 sharp

 Timestamp is 58a9d676 (Sun Feb 19 14:31:34 2017)

 Preferred load address is 0000000180000000

 Start         Length     Name                   Class
 0001:00000000 00000130H .text                   CODE
 0001:00000130 00029280H .text$mn                CODE
 0001:000293b0 00000020H .text$mn$00             CODE
 0001:000293d0 00001c30H .text$x                 CODE
 0002:00000000 00000700H .idata$5                DATA
 0002:00000700 00000010H .00cfg                  DATA
 0002:00000710 00000008H .CRT$XCA                DATA
 0002:00000718 00000008H .CRT$XCU                DATA
 0002:00000720 00000008H .CRT$XCZ                DATA
 0002:00000728 00000008H .CRT$XIA                DATA
 0002:00000730 00000018H .CRT$XIC                DATA
 0002:00000748 00000008H .CRT$XIZ                DATA
 0002:00000750 00000008H .CRT$XPA                DATA
 0002:00000758 00000010H .CRT$XPX                DATA
 0002:00000768 00000008H .CRT$XPXA               DATA
 0002:00000770 00000008H .CRT$XPZ                DATA
 0002:00000778 00000008H .CRT$XTA                DATA
 0002:00000780 00000010H .CRT$XTZ                DATA
 0002:00000790 0000a4d8H .rdata                  DATA
 0002:0000ac68 00000484H .rdata$r                DATA
 0002:0000b0ec 0000040cH .rdata$zzzdbg           DATA
 0002:0000b4f8 00000008H .rtc$IAA                DATA
 0002:0000b500 00000008H .rtc$IZZ                DATA
 0002:0000b508 00000008H .rtc$TAA                DATA
 0002:0000b510 00000010H .rtc$TZZ                DATA
 0002:0000b520 00004c88H .xdata                  DATA
 0002:000101a8 0000032cH .xdata$x                DATA
 0002:000104d4 00000020H .didat$2                DATA
 0002:000104f4 00000024H .didat$3                DATA
 0002:00010518 000001b8H .didat$4                DATA
 0002:000106d0 00000e10H .didat$6                DATA
 0002:000114e0 000001c0H .didat$7                DATA
 0002:000116a0 00000050H .edata                  DATA
 0002:000116f0 00000050H .idata$2                DATA
 0002:00011740 00000018H .idata$3                DATA
 0002:00011758 00000700H .idata$4                DATA
 0002:00011e58 00001dccH .idata$6                DATA
 0002:00013c24 000000b8H .idata$7                DATA
 0003:00000000 00000970H .data                   DATA
 0003:00000970 00000220H .data$r                 DATA
 0003:00000b90 000001c0H .didat$5                DATA
 0003:00000d50 00001200H .bss                    DATA
 0004:00000000 00001f68H .pdata                  DATA
 0005:00000000 00000084H .gfids$x                DATA
 0005:00000084 00000060H .gfids$y                DATA
 0006:00000000 00000060H .rsrc$01                DATA
 0006:00000060 00000180H .rsrc$02                DATA

  Address         Publics by Value              Rva+Base               Lib:Object

 0000:00000000       __dynamic_value_reloc_table 0000000000000000     <absolute>
 0000:00000000       __guard_iat_count          0000000000000000     <absolute>
 0000:00000000       __guard_iat_table          0000000000000000     <absolute>
 0000:00000000       __guard_longjmp_table      0000000000000000     <absolute>
 0000:00000000       __guard_longjmp_count      0000000000000000     <absolute>
 0000:00000000       __guard_fids_count         0000000000000000     <absolute>
 0000:00000000       ___safe_se_handler_table   0000000000000000     <absolute>
 0000:00000000       ___safe_se_handler_count   0000000000000000     <absolute>
 0000:00000000       __guard_fids_table         0000000000000000     <absolute>
 0000:00000100       __guard_flags              0000000000000100     <absolute>
 0000:00000000       __ImageBase                0000000180000000     <linker-defined>
 0001:00000000       vips_image_remove          0000000180001000     libvips:dmrks01465.o
 0001:00000008       vips_foreign_find_load_buffer 0000000180001008     libvips:dmrks01230.o
 0001:00000010       vips_operation_boolean_get_type 0000000180001010     libvips:dmrks01662.o
 0001:00000018       vips_enum_from_nick        0000000180001018     libvips:dmrks01175.o
 0001:00000020       vips_interpretation_get_type 0000000180001020     libvips:dmrks01506.o
 0001:00000028       vips_foreign_find_load     0000000180001028     libvips:dmrks01229.o
 0001:00000030       vips_blob_get_type         0000000180001030     libvips:dmrks00939.o
 0001:00000038       vips_error_clear           0000000180001038     libvips:dmrks01186.o
 0001:00000040       vips_enum_nick             0000000180001040     libvips:dmrks01176.o
 0001:00000048       vips_thread_shutdown       0000000180001048     libvips:dmrks01887.o
 0001:00000050       vips_get_tile_size         0000000180001050     libvips:dmrks01338.o
 0001:00000058       vips_blob_new              0000000180001058     libvips:dmrks00940.o
 0001:00000060       vips_kernel_get_type       0000000180001060     libvips:dmrks01524.o
 0001:00000068       vips_area_unref            0000000180001068     libvips:dmrks00870.o
 0001:00000070       vips_init                  0000000180001070     libvips:dmrks01486.o
 0001:00000078       vips_cache_get_max_mem     0000000180001078     libvips:dmrks00987.o
 0001:00000080       vips_version               0000000180001080     libvips:dmrks01957.o
 0001:00000088       vips_cache_get_size        0000000180001088     libvips:dmrks00988.o
 0001:00000090       vips_vector_set_enabled    0000000180001090     libvips:dmrks01950.o
 0001:00000098       vips_cache_get_max         0000000180001098     libvips:dmrks00985.o
 0001:000000a0       vips_cache_set_max         00000001800010a0     libvips:dmrks00996.o
 0001:000000a8       vips_cache_get_max_files   00000001800010a8     libvips:dmrks00986.o
 0001:000000b0       vips_cache_set_max_mem     00000001800010b0     libvips:dmrks00998.o
 0001:000000b8       vips_concurrency_get       00000001800010b8     libvips:dmrks01102.o
 0001:000000c0       vips_cache_set_max_files   00000001800010c0     libvips:dmrks00997.o
 0001:000000c8       vips_type_find             00000001800010c8     libvips:dmrks01909.o
 0001:000000d0       vips_concurrency_set       00000001800010d0     libvips:dmrks01103.o
 0001:000000d8       vips_vector_isenabled      00000001800010d8     libvips:dmrks01946.o
 0001:000000e0       vips_tracked_get_mem_highwater 00000001800010e0     libvips:dmrks01905.o
 0001:000000e8       vips_tracked_get_mem       00000001800010e8     libvips:dmrks01904.o
 0001:000000f0       vips_tracked_get_files     00000001800010f0     libvips:dmrks01903.o
 0001:00000100       g_free                     0000000180001100     libglib-2.0:dgoks00380.o
 0001:00000108       g_atomic_int_inc           0000000180001108     libglib-2.0:dgoks00077.o
 0001:00000110       g_atomic_int_dec_and_test  0000000180001110     libglib-2.0:dgoks00074.o
 0001:00000118       g_malloc                   0000000180001118     libglib-2.0:dgoks00673.o
 0001:00000120       g_stat                     0000000180001120     libglib-2.0:dgoks01122.o
 0001:00000128       g_snprintf                 0000000180001128     libglib-2.0:dgoks01081.o
 0001:00000130       ??0exception@stdext@@QEAA@AEBV01@@Z 0000000180001130 f i common.obj
 0001:00000150       ?what@exception@stdext@@UEBAPEBDXZ 0000000180001150 f i common.obj
 0001:00000170       _guard_check_icall_nop     0000000180001170 f i LIBCMT:guard_support.obj
 0001:00000170       __except_validate_context_record 0000000180001170 f i libvcruntime:jbcxrval.obj
 0001:00000170       ?_Doraise@exception@stdext@@MEBAXXZ 0000000180001170 f i common.obj
 0001:00000170       ??3@YAXPEAX0@Z             0000000180001170 f i pipeline.obj
 0001:00000180       ??_Eexception@stdext@@UEAAPEAXI@Z 0000000180001180 f i * CIL library *:* CIL module *
 0001:00000180       ??_Gexception@stdext@@UEAAPEAXI@Z 0000000180001180 f i common.obj
 0001:000001b0       ?length@?$char_traits@D@std@@SA_KPEBD@Z 00000001800011b0 f i common.obj
 0001:000001d0       ?_Deallocate@std@@YAXPEAX_K1@Z 00000001800011d0 f i common.obj
 0001:00000240       ?to_string@std@@YA?AV?$basic_string@DU?$char_traits@D@std@@V?$allocator@D@2@@1@H@Z 0000000180001240 f i common.obj
 0001:00000260       ?Get@Nan@@YA?AV?$MaybeLocal@VValue@v8@@@v8@@V?$Local@VObject@v8@@@3@V?$Local@VValue@v8@@@3@@Z 0000000180001260 f i common.obj
 0001:000002f0       ?Has@Nan@@YA?AV?$Maybe@_N@v8@@V?$Local@VObject@v8@@@3@V?$Local@VString@v8@@@3@@Z 00000001800012f0 f i common.obj
 0001:00000370       ?convert@?$ToFactory@I@imp@Nan@@SA?AV?$Maybe@I@v8@@V?$Local@VValue@v8@@@5@@Z 0000000180001370 f i common.obj
 0001:000003f0       ?New@Nan@@YA?AV?$MaybeLocal@VString@v8@@@v8@@AEBV?$basic_string@DU?$char_traits@D@std@@V?$allocator@D@2@@std@@@Z 00000001800013f0 f i common.obj
 0001:00000440       ??1HandleScope@Nan@@QEAA@XZ 0000000180001440 f i common.obj
 0001:00000440       ??1EscapableHandleScope@Nan@@QEAA@XZ 0000000180001440 f i metadata.obj
 0001:00000450       ??0Utf8String@Nan@@QEAA@V?$Local@VValue@v8@@@v8@@@Z 0000000180001450 f i common.obj
 0001:00000560       ??1Utf8String@Nan@@QEAA@XZ 0000000180001560 f i common.obj
 0001:00000580       ?HasAttr@sharp@@YA_NV?$Local@VObject@v8@@@v8@@V?$basic_string@DU?$char_traits@D@std@@V?$allocator@D@2@@std@@@Z 0000000180001580 f   common.obj
 0001:00000610       ?AttrAsStr@sharp@@YA?AV?$basic_string@DU?$char_traits@D@std@@V?$allocator@D@2@@std@@V?$Local@VObject@v8@@@v8@@V23@@Z 0000000180001610 f   common.obj
 0001:00000720       ?CreateInputDescriptor@sharp@@YAPEAUInputDescriptor@1@V?$Local@VObject@v8@@@v8@@V?$vector@V?$Local@VObject@v8@@@v8@@V?$allocator@V?$Local@VObject@v8@@@v8@@@std@@@std@@@Z 0000000180001720 f   common.obj
 0001:00000b70       ?IsJpeg@sharp@@YA_NAEBV?$basic_string@DU?$char_traits@D@std@@V?$allocator@D@2@@std@@@Z 0000000180001b70 f   common.obj
 0001:00000fb0       ?IsPng@sharp@@YA_NAEBV?$basic_string@DU?$char_traits@D@std@@V?$allocator@D@2@@std@@@Z 0000000180001fb0 f   common.obj
 0001:00001250       ?IsWebp@sharp@@YA_NAEBV?$basic_string@DU?$char_traits@D@std@@V?$allocator@D@2@@std@@@Z 0000000180002250 f   common.obj
 0001:000014f0       ?IsTiff@sharp@@YA_NAEBV?$basic_string@DU?$char_traits@D@std@@V?$allocator@D@2@@std@@@Z 00000001800024f0 f   common.obj
 0001:00001930       ?IsDz@sharp@@YA_NAEBV?$basic_string@DU?$char_traits@D@std@@V?$allocator@D@2@@std@@@Z 0000000180002930 f   common.obj
 0001:00001bd0       ?IsDzZip@sharp@@YA_NAEBV?$basic_string@DU?$char_traits@D@std@@V?$allocator@D@2@@std@@@Z 0000000180002bd0 f   common.obj
 0001:00002010       ?IsV@sharp@@YA_NAEBV?$basic_string@DU?$char_traits@D@std@@V?$allocator@D@2@@std@@@Z 0000000180003010 f   common.obj
 0001:00002450       ?ImageTypeId@sharp@@YA?AV?$basic_string@DU?$char_traits@D@std@@V?$allocator@D@2@@std@@W4ImageType@1@@Z 0000000180003450 f   common.obj
 0001:000025d0       ?DetermineImageType@sharp@@YA?AW4ImageType@1@PEAX_K@Z 00000001800035d0 f   common.obj
 0001:00002c30       ?DetermineImageType@sharp@@YA?AW4ImageType@1@PEBD@Z 0000000180003c30 f   common.obj
 0001:00003430       ?OpenInput@sharp@@YA?AV?$tuple@VVImage@vips@@W4ImageType@sharp@@@std@@PEAUInputDescriptor@1@W4VipsAccess@@@Z 0000000180004430 f   common.obj
 0001:00003840       ??1?$tuple@VVImage@vips@@W4ImageType@sharp@@@std@@QEAA@XZ 0000000180004840 f i common.obj
 0001:00003850       ?HasProfile@sharp@@YA_NVVImage@vips@@@Z 0000000180004850 f   common.obj
 0001:000038a0       ?HasAlpha@sharp@@YA_NVVImage@vips@@@Z 00000001800048a0 f   common.obj
 0001:00003910       ?RemoveExifOrientation@sharp@@YAXVVImage@vips@@@Z 0000000180004910 f   common.obj
 0001:00003950       ?SetDensity@sharp@@YAXVVImage@vips@@H@Z 0000000180004950 f   common.obj
 0001:000039d0       ?FreeCallback@sharp@@YAXPEADPEAX@Z 00000001800049d0 f   common.obj
 0001:000039e0       ?CalculateCrop@sharp@@YA?AV?$tuple@HH@std@@HHHHH@Z 00000001800049e0 f   common.obj
 0001:00003ae0       ?CalculateCrop@sharp@@YA?AV?$tuple@HH@std@@HHHHHH@Z 0000000180004ae0 f   common.obj
 0001:00003b50       ?GetRgbaAsColourspace@sharp@@YA?AV?$vector@NV?$allocator@N@std@@@std@@V23@W4VipsInterpretation@@@Z 0000000180004b50 f   common.obj
 0001:00003d40       ??1?$vector@PEAUInputDescriptor@sharp@@V?$allocator@PEAUInputDescriptor@sharp@@@std@@@std@@QEAA@XZ 0000000180004d40 f i pipeline.obj
 0001:00003d40       ??1?$vector@NV?$allocator@N@std@@@std@@QEAA@XZ 0000000180004d40 f i common.obj
 0001:00003d40       ??1?$vector@V?$Local@VObject@v8@@@v8@@V?$allocator@V?$Local@VObject@v8@@@v8@@@std@@@std@@QEAA@XZ 0000000180004d40 f i common.obj
 0001:00003d80       ??0?$vector@NV?$allocator@N@std@@@std@@QEAA@AEBV01@@Z 0000000180004d80 f i common.obj
 0001:00003e30       ?data@?$basic_string@DU?$char_traits@D@std@@V?$allocator@D@2@@std@@QEBAPEBDXZ 0000000180004e30 f i common.obj
 0001:00003e40       ??4?$basic_string@DU?$char_traits@D@std@@V?$allocator@D@2@@std@@QEAAAEAV01@PEBD@Z 0000000180004e40 f i common.obj
 0001:00003e60       ??1?$basic_string@DU?$char_traits@D@std@@V?$allocator@D@2@@std@@QEAA@XZ 0000000180004e60 f i common.obj
 0001:00003ef0       ??4?$basic_string@DU?$char_traits@D@std@@V?$allocator@D@2@@std@@QEAAAEAV01@$$QEAV01@@Z 0000000180004ef0 f i common.obj
 0001:00003fa0       ??0?$basic_string@DU?$char_traits@D@std@@V?$allocator@D@2@@std@@QEAA@PEBD@Z 0000000180004fa0 f i common.obj
 0001:00003fe0       ??0?$basic_string@DU?$char_traits@D@std@@V?$allocator@D@2@@std@@QEAA@AEBV01@@Z 0000000180004fe0 f i common.obj
 0001:00004020       ?_Reserve@?$vector@V?$Local@VObject@v8@@@v8@@V?$allocator@V?$Local@VObject@v8@@@v8@@@std@@@std@@IEAAX_K@Z 0000000180005020 f i common.obj
 0001:000040b0       ?_Tidy@?$basic_string@DU?$char_traits@D@std@@V?$allocator@D@2@@std@@QEAAX_N_K@Z 00000001800050b0 f i common.obj
 0001:00004160       ?assign@?$basic_string@DU?$char_traits@D@std@@V?$allocator@D@2@@std@@QEAAAEAV12@PEBD_K@Z 0000000180005160 f i common.obj
 0001:00004290       ?assign@?$basic_string@DU?$char_traits@D@std@@V?$allocator@D@2@@std@@QEAAAEAV12@AEBV12@_K1@Z 0000000180005290 f i common.obj
 0001:000043c0       ?_Assign_rv@?$basic_string@DU?$char_traits@D@std@@V?$allocator@D@2@@std@@QEAAX$$QEAV12@@Z 00000001800053c0 f i common.obj
 0001:00004440       ?deallocate@?$_Wrap_alloc@V?$allocator@PEAUInputDescriptor@sharp@@@std@@@std@@QEAAXPEAPEAUInputDescriptor@sharp@@_K@Z 0000000180005440 f i pipeline.obj
 0001:00004440       ?deallocate@?$_Wrap_alloc@V?$allocator@N@std@@@std@@QEAAXPEAN_K@Z 0000000180005440 f i common.obj
 0001:00004440       ?deallocate@?$_Wrap_alloc@V?$allocator@V?$Local@VObject@v8@@@v8@@@std@@@std@@QEAAXPEAV?$Local@VObject@v8@@@v8@@_K@Z 0000000180005440 f i common.obj
 0001:000044b0       ?_Reallocate@?$vector@V?$Local@VObject@v8@@@v8@@V?$allocator@V?$Local@VObject@v8@@@v8@@@std@@@std@@IEAAX_K@Z 00000001800054b0 f i common.obj
 0001:000045c0       ?allocate@?$_Wrap_alloc@V?$allocator@V?$Local@VObject@v8@@@v8@@@std@@@std@@QEAAPEAV?$Local@VObject@v8@@@v8@@_K@Z 00000001800055c0 f i common.obj
 0001:000045c0       ?allocate@?$_Wrap_alloc@V?$allocator@N@std@@@std@@QEAAPEAN_K@Z 00000001800055c0 f i common.obj
 0001:00004630       ?erase@?$basic_string@DU?$char_traits@D@std@@V?$allocator@D@2@@std@@QEAAAEAV12@_K0@Z 0000000180005630 f i common.obj
 0001:00004700       ?_Copy@?$basic_string@DU?$char_traits@D@std@@V?$allocator@D@2@@std@@QEAAX_K0@Z 0000000180005700 f i common.obj
 0001:00004880       ??$_Integral_to_string@DH@std@@YA?AV?$basic_string@DU?$char_traits@D@std@@V?$allocator@D@2@@0@H@Z 0000000180005880 f i common.obj
 0001:00004960       ??$New@VString@v8@@V?$basic_string@DU?$char_traits@D@std@@V?$allocator@D@2@@std@@@Nan@@YA?AV?$MaybeLocal@VString@v8@@@v8@@V?$basic_string@DU?$char_traits@D@std@@V?$allocator@D@2@@std@@@Z 0000000180005960 f i common.obj
 0001:00004a10       ??$AttrAs@VObject@v8@@@sharp@@YA?AV?$Local@VObject@v8@@@v8@@V12@V?$basic_string@DU?$char_traits@D@std@@V?$allocator@D@2@@std@@@Z 0000000180005a10 f i common.obj
 0001:00004a10       ??$AttrAs@VFunction@v8@@@sharp@@YA?AV?$Local@VFunction@v8@@@v8@@V?$Local@VObject@v8@@@2@V?$basic_string@DU?$char_traits@D@std@@V?$allocator@D@2@@std@@@Z 0000000180005a10 f i pipeline.obj
 0001:00004a10       ??$AttrAs@VArray@v8@@@sharp@@YA?AV?$Local@VArray@v8@@@v8@@V?$Local@VObject@v8@@@2@V?$basic_string@DU?$char_traits@D@std@@V?$allocator@D@2@@std@@@Z 0000000180005a10 f i pipeline.obj
 0001:00004ab0       ??$AttrTo@I@sharp@@YAIV?$Local@VObject@v8@@@v8@@V?$basic_string@DU?$char_traits@D@std@@V?$allocator@D@2@@std@@@Z 0000000180005ab0 f i common.obj
 0001:00004b60       ??$make_tuple@AEAVVImage@vips@@AEAW4ImageType@sharp@@@std@@YA?AV?$tuple@VVImage@vips@@W4ImageType@sharp@@@0@AEAVVImage@vips@@AEAW4ImageType@sharp@@@Z 0000000180005b60 f i common.obj
 0001:00004b90       ?Set@Nan@@YA?AV?$Maybe@_N@v8@@V?$Local@VObject@v8@@@3@V?$Local@VValue@v8@@@3@1@Z 0000000180005b90 f i metadata.obj
 0001:00004c20       ?convert@?$ToFactory@VUint32@v8@@@imp@Nan@@SA?AV?$MaybeLocal@VUint32@v8@@@v8@@V?$Local@VValue@v8@@@5@@Z 0000000180005c20 f i metadata.obj
 0001:00004cb0       ?Error@Nan@@YA?AV?$Local@VValue@v8@@@v8@@PEBD@Z 0000000180005cb0 f i metadata.obj
 0001:00004d50       ??0Callback@Nan@@QEAA@AEBV?$Local@VFunction@v8@@@v8@@@Z 0000000180005d50 f i metadata.obj
 0001:00004da0       ?Call@Callback@Nan@@QEBA?AV?$Local@VValue@v8@@@v8@@HQEAV34@@Z 0000000180005da0 f i metadata.obj
 0001:00004e50       ?Call_@Callback@Nan@@AEBA?AV?$Local@VValue@v8@@@v8@@PEAVIsolate@4@V?$Local@VObject@v8@@@4@HQEAV34@@Z 0000000180005e50 f i metadata.obj
 0001:00004f10       ??0AsyncWorker@Nan@@QEAA@PEAVCallback@1@@Z 0000000180005f10 f i metadata.obj
 0001:00004fe0       ??1AsyncWorker@Nan@@UEAA@XZ 0000000180005fe0 f i metadata.obj
 0001:000050a0       ?WorkComplete@AsyncWorker@Nan@@UEAAXXZ 00000001800060a0 f i metadata.obj
 0001:00005140       ?GetFromPersistent@AsyncWorker@Nan@@QEBA?AV?$Local@VValue@v8@@@v8@@I@Z 0000000180006140 f i metadata.obj
 0001:000051e0       ?Destroy@AsyncWorker@Nan@@UEAAXXZ 00000001800061e0 f i metadata.obj
 0001:00005200       ?HandleOKCallback@AsyncWorker@Nan@@MEAAXXZ 0000000180006200 f i metadata.obj
 0001:00005250       ?HandleErrorCallback@AsyncWorker@Nan@@MEAAXXZ 0000000180006250 f i metadata.obj
 0001:00005300       ??_GAsyncWorker@Nan@@UEAAPEAXI@Z 0000000180006300 f i metadata.obj
 0001:00005300       ??_EAsyncWorker@Nan@@UEAAPEAXI@Z 0000000180006300 f i * CIL library *:* CIL module *
 0001:00005340       ??1?$Persistent@VObject@v8@@V?$NonCopyablePersistentTraits@VObject@v8@@@2@@Nan@@QEAA@XZ 0000000180006340 f i metadata.obj
 0001:00005360       ?AsyncExecute@Nan@@YAXPEAUuv_work_s@@@Z 0000000180006360 f i metadata.obj
 0001:00005370       ?AsyncExecuteComplete@Nan@@YAXPEAUuv_work_s@@@Z 0000000180006370 f i metadata.obj
 0001:000053b0       ?AsyncQueueWorker@Nan@@YAXPEAVAsyncWorker@1@@Z 00000001800063b0 f i metadata.obj
 0001:000053e0       ??0MetadataWorker@@QEAA@PEAVCallback@Nan@@PEAUMetadataBaton@@V?$vector@V?$Local@VObject@v8@@@v8@@V?$allocator@V?$Local@VObject@v8@@@v8@@@std@@@std@@@Z 00000001800063e0 f i metadata.obj
 0001:00005480       ?Execute@MetadataWorker@@UEAAXXZ 0000000180006480 f i metadata.obj
 0001:00005890       ?HandleOKCallback@MetadataWorker@@UEAAXXZ 0000000180006890 f i metadata.obj
 0001:00006020       ??_EMetadataWorker@@UEAAPEAXI@Z 0000000180007020 f i * CIL library *:* CIL module *
 0001:00006020       ??_GMetadataWorker@@UEAAPEAXI@Z 0000000180007020 f i metadata.obj
 0001:000060a0       ?metadata@@YAXAEBV?$FunctionCallbackInfo@VValue@v8@@@Nan@@@Z 00000001800070a0 f   metadata.obj
 0001:000062a0       ??0?$vector@V?$Local@VObject@v8@@@v8@@V?$allocator@V?$Local@VObject@v8@@@v8@@@std@@@std@@QEAA@AEBV01@@Z 00000001800072a0 f i metadata.obj
 0001:00006370       ??A?$FunctionCallbackInfo@VValue@v8@@@Nan@@QEBA?AV?$Local@VValue@v8@@@v8@@H@Z 0000000180007370 f i metadata.obj
 0001:000063b0       ?append@?$basic_string@DU?$char_traits@D@std@@V?$allocator@D@2@@std@@QEAAAEAV12@PEBD@Z 00000001800073b0 f i metadata.obj
 0001:000063d0       ?append@?$basic_string@DU?$char_traits@D@std@@V?$allocator@D@2@@std@@QEAAAEAV12@PEBD_K@Z 00000001800073d0 f i metadata.obj
 0001:00006520       ?append@?$basic_string@DU?$char_traits@D@std@@V?$allocator@D@2@@std@@QEAAAEAV12@AEBV12@_K1@Z 0000000180007520 f i metadata.obj
 0001:00006650       ??$New@VUint32@v8@@H@Nan@@YA?AV?$Local@VUint32@v8@@@v8@@H@Z 0000000180007650 f i metadata.obj
 0001:000066b0       ??$_Accumulate_unchecked@PEBV?$Local@VObject@v8@@@v8@@HV<lambda_9252aa89fe9814f85e2a072fe573e6da>@@@std@@YAHPEBV?$Local@VObject@v8@@@v8@@0HAEAV<lambda_9252aa89fe9814f85e2a072fe573e6da>@@@Z 00000001800076b0 f i metadata.obj
 0001:000066b0       ??$_Accumulate_unchecked@PEBV?$Local@VObject@v8@@@v8@@HV<lambda_1cf14cbc5c28648f7ac9038b3f6db2a5>@@@std@@YAHPEBV?$Local@VObject@v8@@@v8@@0HAEAV<lambda_1cf14cbc5c28648f7ac9038b3f6db2a5>@@@Z 00000001800076b0 f i pipeline.obj
 0001:00006760       ?Composite@sharp@@YA?AVVImage@vips@@V23@0H@Z 0000000180007760 f   operations.obj
 0001:000069e0       ?Composite@sharp@@YA?AVVImage@vips@@V23@0HH@Z 00000001800079e0 f   operations.obj
 0001:00006c90       ?IsInputValidForComposition@sharp@@YA_NVVImage@vips@@0@Z 0000000180007c90 f   operations.obj
 0001:00006e90       ?CompositeImage@sharp@@YA?AVVImage@vips@@V23@0@Z 0000000180007e90 f   operations.obj
 0001:00007140       ?Cutout@sharp@@YA?AVVImage@vips@@V23@0H@Z 0000000180008140 f   operations.obj
 0001:00007750       ?Normalise@sharp@@YA?AVVImage@vips@@V23@@Z 0000000180008750 f   operations.obj
 0001:00007a00       ?Gamma@sharp@@YA?AVVImage@vips@@V23@N@Z 0000000180008a00 f   operations.obj
 0001:00007bc0       ?Blur@sharp@@YA?AVVImage@vips@@V23@N@Z 0000000180008bc0 f   operations.obj
 0001:00007cb0       ?Convolve@sharp@@YA?AVVImage@vips@@V23@HHNNAEBV?$unique_ptr@$$BY0A@NU?$default_delete@$$BY0A@N@std@@@std@@@Z 0000000180008cb0 f   operations.obj
 0001:00007da0       ?Sharpen@sharp@@YA?AVVImage@vips@@V23@NNN@Z 0000000180008da0 f   operations.obj
 0001:00007f30       ??RAttentionStrategy@sharp@@QEAANVVImage@vips@@@Z 0000000180008f30 f   operations.obj
 0001:00008440       ?Crop@sharp@@YA?AV?$tuple@HH@std@@VVImage@vips@@HHV?$function@$$A6ANVVImage@vips@@@Z@3@@Z 0000000180009440 f   operations.obj
 0001:000087a0       ?TileCache@sharp@@YA?AVVImage@vips@@V23@N@Z 00000001800097a0 f   operations.obj
 0001:000088d0       ?Threshold@sharp@@YA?AVVImage@vips@@V23@N_N@Z 00000001800098d0 f   operations.obj
 0001:00008960       ?Bandbool@sharp@@YA?AVVImage@vips@@V23@W4VipsOperationBoolean@@@Z 0000000180009960 f   operations.obj
 0001:00008a00       ?Boolean@sharp@@YA?AVVImage@vips@@V23@0W4VipsOperationBoolean@@@Z 0000000180009a00 f   operations.obj
 0001:00008a90       ?Trim@sharp@@YA?AVVImage@vips@@V23@H@Z 0000000180009a90 f   operations.obj
 0001:00008ec0       ??1?$function@$$A6ANVVImage@vips@@@Z@std@@QEAA@XZ 0000000180009ec0 f i operations.obj
 0001:00008ef0       ??$_Construct@PEBN@?$vector@NV?$allocator@N@std@@@std@@QEAAXPEBN0Uforward_iterator_tag@1@@Z 0000000180009ef0 f i operations.obj
 0001:00008fa0       ?Get@Nan@@YA?AV?$MaybeLocal@VValue@v8@@@v8@@V?$Local@VObject@v8@@@3@I@Z 0000000180009fa0 f i pipeline.obj
 0001:00009040       ?convert@?$ToFactory@_N@imp@Nan@@SA?AV?$Maybe@_N@v8@@V?$Local@VValue@v8@@@5@@Z 000000018000a040 f i pipeline.obj
 0001:000090c0       ?convert@?$ToFactory@N@imp@Nan@@SA?AV?$Maybe@N@v8@@V?$Local@VValue@v8@@@5@@Z 000000018000a0c0 f i pipeline.obj
 0001:00009140       ?convert@?$ToFactory@H@imp@Nan@@SA?AV?$Maybe@H@v8@@V?$Local@VValue@v8@@@5@@Z 000000018000a140 f i pipeline.obj
 0001:000091c0       ??0PipelineBaton@@QEAA@XZ  000000018000a1c0 f i pipeline.obj
 0001:00009460       ??0PipelineWorker@@QEAA@PEAVCallback@Nan@@PEAUPipelineBaton@@0V?$vector@V?$Local@VObject@v8@@@v8@@V?$allocator@V?$Local@VObject@v8@@@v8@@@std@@@std@@@Z 000000018000a460 f i pipeline.obj
 0001:00009510       ?Execute@PipelineWorker@@UEAAXXZ 000000018000a510 f i pipeline.obj
 0001:0000db80       ?HandleOKCallback@PipelineWorker@@UEAAXXZ 000000018000eb80 f i pipeline.obj
 0001:0000e380       ?CalculateRotationAndFlip@PipelineWorker@@AEAA?AV?$tuple@W4VipsAngle@@_N_N@std@@HVVImage@vips@@@Z 000000018000f380 f i pipeline.obj
 0001:0000e4b0       ?AssembleSuffixString@PipelineWorker@@AEAA?AV?$basic_string@DU?$char_traits@D@std@@V?$allocator@D@2@@std@@V23@V?$vector@U?$pair@V?$basic_string@DU?$char_traits@D@std@@V?$allocator@D@2@@std@@V12@@std@@V?$allocator@U?$pair@V?$basic_string@DU?$char_traits@D@std@@V?$allocator@D@2@@std@@V12@@std@@@2@@3@@Z 000000018000f4b0 f i pipeline.obj
 0001:0000e840       ??_EPipelineWorker@@UEAAPEAXI@Z 000000018000f840 f i * CIL library *:* CIL module *
 0001:0000e840       ??_GPipelineWorker@@UEAAPEAXI@Z 000000018000f840 f i pipeline.obj
 0001:0000e8c0       ??1?$map@W4VipsInterpretation@@V?$basic_string@DU?$char_traits@D@std@@V?$allocator@D@2@@std@@U?$less@W4VipsInterpretation@@@3@V?$allocator@U?$pair@$$CBW4VipsInterpretation@@V?$basic_string@DU?$char_traits@D@std@@V?$allocator@D@2@@std@@@std@@@3@@std@@QEAA@XZ 000000018000f8c0 f i pipeline.obj
 0001:0000e8f0       ??1?$pair@W4VipsInterpretation@@V?$basic_string@DU?$char_traits@D@std@@V?$allocator@D@2@@std@@@std@@QEAA@XZ 000000018000f8f0 f i pipeline.obj
 0001:0000e900       ??1?$pair@V?$basic_string@DU?$char_traits@D@std@@V?$allocator@D@2@@std@@V12@@std@@QEAA@XZ 000000018000f900 f i pipeline.obj
 0001:0000e920       ??1PipelineBaton@@QEAA@XZ  000000018000f920 f i pipeline.obj
 0001:0000e9d0       ?pipeline@@YAXAEBV?$FunctionCallbackInfo@VValue@v8@@@Nan@@@Z 000000018000f9d0 f   pipeline.obj
 0001:00010a10       ??1?$vector@U?$pair@V?$basic_string@DU?$char_traits@D@std@@V?$allocator@D@2@@std@@V12@@std@@V?$allocator@U?$pair@V?$basic_string@DU?$char_traits@D@std@@V?$allocator@D@2@@std@@V12@@std@@@2@@std@@QEAA@XZ 0000000180011a10 f i pipeline.obj
 0001:00010a20       ??0?$vector@U?$pair@V?$basic_string@DU?$char_traits@D@std@@V?$allocator@D@2@@std@@V12@@std@@V?$allocator@U?$pair@V?$basic_string@DU?$char_traits@D@std@@V?$allocator@D@2@@std@@V12@@std@@@2@@std@@QEAA@V?$initializer_list@U?$pair@V?$basic_string@DU?$char_traits@D@std@@V?$allocator@D@2@@std@@V12@@std@@@1@AEBV?$allocator@U?$pair@V?$basic_string@DU?$char_traits@D@std@@V?$allocator@D@2@@std@@V12@@std@@@1@@Z 0000000180011a20 f i pipeline.obj
 0001:00010a80       ??0?$vector@U?$pair@V?$basic_string@DU?$char_traits@D@std@@V?$allocator@D@2@@std@@V12@@std@@V?$allocator@U?$pair@V?$basic_string@DU?$char_traits@D@std@@V?$allocator@D@2@@std@@V12@@std@@@2@@std@@QEAA@AEBV01@@Z 0000000180011a80 f i pipeline.obj
 0001:00010ae0       ?push_back@?$vector@PEAUInputDescriptor@sharp@@V?$allocator@PEAUInputDescriptor@sharp@@@std@@@std@@QEAAX$$QEAPEAUInputDescriptor@sharp@@@Z 0000000180011ae0 f i pipeline.obj
 0001:00010b70       ??4?$vector@NV?$allocator@N@std@@@std@@QEAAAEAV01@$$QEAV01@@Z 0000000180011b70 f i pipeline.obj
 0001:00010bf0       ?compare@?$basic_string@DU?$char_traits@D@std@@V?$allocator@D@2@@std@@QEBAHPEBD@Z 0000000180011bf0 f i pipeline.obj
 0001:00010c80       ?append@?$basic_string@DU?$char_traits@D@std@@V?$allocator@D@2@@std@@QEAAAEAV12@AEBV12@@Z 0000000180011c80 f i pipeline.obj
 0001:00010c90       ?_Tidy@?$vector@U?$pair@V?$basic_string@DU?$char_traits@D@std@@V?$allocator@D@2@@std@@V12@@std@@V?$allocator@U?$pair@V?$basic_string@DU?$char_traits@D@std@@V?$allocator@D@2@@std@@V12@@std@@@2@@std@@IEAAXXZ 0000000180011c90 f i pipeline.obj
 0001:00010d30       ?_Buy@?$vector@U?$pair@V?$basic_string@DU?$char_traits@D@std@@V?$allocator@D@2@@std@@V12@@std@@V?$allocator@U?$pair@V?$basic_string@DU?$char_traits@D@std@@V?$allocator@D@2@@std@@V12@@std@@@2@@std@@IEAA_N_K@Z 0000000180011d30 f i pipeline.obj
 0001:00010dd0       ?_Reserve@?$vector@NV?$allocator@N@std@@@std@@IEAAX_K@Z 0000000180011dd0 f i pipeline.obj
 0001:00010dd0       ?_Reserve@?$vector@PEAUInputDescriptor@sharp@@V?$allocator@PEAUInputDescriptor@sharp@@@std@@@std@@IEAAX_K@Z 0000000180011dd0 f i pipeline.obj
 0001:00010e60       ?erase@?$_Tree@V?$_Tmap_traits@W4VipsInterpretation@@V?$basic_string@DU?$char_traits@D@std@@V?$allocator@D@2@@std@@U?$less@W4VipsInterpretation@@@3@V?$allocator@U?$pair@$$CBW4VipsInterpretation@@V?$basic_string@DU?$char_traits@D@std@@V?$allocator@D@2@@std@@@std@@@3@$0A@@std@@@std@@QEAA?AV?$_Tree_iterator@V?$_Tree_val@U?$_Tree_simple_types@U?$pair@$$CBW4VipsInterpretation@@V?$basic_string@DU?$char_traits@D@std@@V?$allocator@D@2@@std@@@std@@@std@@@std@@@2@V?$_Tree_const_iterator@V?$_Tree_val@U?$_Tree_simple_types@U?$pair@$$CBW4VipsInterpretation@@V?$basic_string@DU?$char_traits@D@std@@V?$allocator@D@2@@std@@@std@@@std@@@std@@@2@0@Z 0000000180011e60 f i pipeline.obj
 0001:00010f60       ?_Reallocate@?$vector@PEAUInputDescriptor@sharp@@V?$allocator@PEAUInputDescriptor@sharp@@@std@@@std@@IEAAX_K@Z 0000000180011f60 f i pipeline.obj
 0001:00010f60       ?_Reallocate@?$vector@NV?$allocator@N@std@@@std@@IEAAX_K@Z 0000000180011f60 f i pipeline.obj
 0001:00011040       ?erase@?$_Tree@V?$_Tmap_traits@W4VipsInterpretation@@V?$basic_string@DU?$char_traits@D@std@@V?$allocator@D@2@@std@@U?$less@W4VipsInterpretation@@@3@V?$allocator@U?$pair@$$CBW4VipsInterpretation@@V?$basic_string@DU?$char_traits@D@std@@V?$allocator@D@2@@std@@@std@@@3@$0A@@std@@@std@@QEAA?AV?$_Tree_iterator@V?$_Tree_val@U?$_Tree_simple_types@U?$pair@$$CBW4VipsInterpretation@@V?$basic_string@DU?$char_traits@D@std@@V?$allocator@D@2@@std@@@std@@@std@@@std@@@2@V?$_Tree_const_iterator@V?$_Tree_val@U?$_Tree_simple_types@U?$pair@$$CBW4VipsInterpretation@@V?$basic_string@DU?$char_traits@D@std@@V?$allocator@D@2@@std@@@std@@@std@@@std@@@2@@Z 0000000180012040 f i pipeline.obj
 0001:00011510       ?_Rrotate@?$_Tree@V?$_Tmap_traits@W4VipsInterpretation@@V?$basic_string@DU?$char_traits@D@std@@V?$allocator@D@2@@std@@U?$less@W4VipsInterpretation@@@3@V?$allocator@U?$pair@$$CBW4VipsInterpretation@@V?$basic_string@DU?$char_traits@D@std@@V?$allocator@D@2@@std@@@std@@@3@$0A@@std@@@std@@IEAAXPEAU?$_Tree_node@U?$pair@$$CBW4VipsInterpretation@@V?$basic_string@DU?$char_traits@D@std@@V?$allocator@D@2@@std@@@std@@PEAX@2@@Z 0000000180012510 f i pipeline.obj
 0001:00011570       ?_Lrotate@?$_Tree@V?$_Tmap_traits@W4VipsInterpretation@@V?$basic_string@DU?$char_traits@D@std@@V?$allocator@D@2@@std@@U?$less@W4VipsInterpretation@@@3@V?$allocator@U?$pair@$$CBW4VipsInterpretation@@V?$basic_string@DU?$char_traits@D@std@@V?$allocator@D@2@@std@@@std@@@3@$0A@@std@@@std@@IEAAXPEAU?$_Tree_node@U?$pair@$$CBW4VipsInterpretation@@V?$basic_string@DU?$char_traits@D@std@@V?$allocator@D@2@@std@@@std@@PEAX@2@@Z 0000000180012570 f i pipeline.obj
 0001:000115d0       ?_Erase@?$_Tree@V?$_Tmap_traits@W4VipsInterpretation@@V?$basic_string@DU?$char_traits@D@std@@V?$allocator@D@2@@std@@U?$less@W4VipsInterpretation@@@3@V?$allocator@U?$pair@$$CBW4VipsInterpretation@@V?$basic_string@DU?$char_traits@D@std@@V?$allocator@D@2@@std@@@std@@@3@$0A@@std@@@std@@IEAAXPEAU?$_Tree_node@U?$pair@$$CBW4VipsInterpretation@@V?$basic_string@DU?$char_traits@D@std@@V?$allocator@D@2@@std@@@std@@PEAX@2@@Z 00000001800125d0 f i pipeline.obj
 0001:000116b0       ??$?HDU?$char_traits@D@std@@V?$allocator@D@1@@std@@YA?AV?$basic_string@DU?$char_traits@D@std@@V?$allocator@D@2@@0@AEBV10@PEBD@Z 00000001800126b0 f i pipeline.obj
 0001:00011770       ??$?HDU?$char_traits@D@std@@V?$allocator@D@1@@std@@YA?AV?$basic_string@DU?$char_traits@D@std@@V?$allocator@D@2@@0@$$QEAV10@PEBD@Z 0000000180012770 f i pipeline.obj
 0001:000117c0       ??$?8DU?$char_traits@D@std@@V?$allocator@D@1@@std@@YA_NAEBV?$basic_string@DU?$char_traits@D@std@@V?$allocator@D@2@@0@PEBD@Z 00000001800127c0 f i pipeline.obj
 0001:000117e0       ??$?0AEAY09$$CBDPEBDX$0A@@?$pair@V?$basic_string@DU?$char_traits@D@std@@V?$allocator@D@2@@std@@V12@@std@@QEAA@AEAY09$$CBD$$QEAPEBD@Z 00000001800127e0 f i pipeline.obj
 0001:00011870       ??$?0AEAY0M@$$CBDV?$basic_string@DU?$char_traits@D@std@@V?$allocator@D@2@@std@@X$0A@@?$pair@V?$basic_string@DU?$char_traits@D@std@@V?$allocator@D@2@@std@@V12@@std@@QEAA@AEAY0M@$$CBD$$QEAV?$basic_string@DU?$char_traits@D@std@@V?$allocator@D@2@@1@@Z 0000000180012870 f i pipeline.obj
 0001:000118e0       ??$?0AEAY06$$CBDPEBDX$0A@@?$pair@V?$basic_string@DU?$char_traits@D@std@@V?$allocator@D@2@@std@@V12@@std@@QEAA@AEAY06$$CBD$$QEAPEBD@Z 00000001800128e0 f i pipeline.obj
 0001:00011970       ??$?0AEAY01$$CBDV?$basic_string@DU?$char_traits@D@std@@V?$allocator@D@2@@std@@X$0A@@?$pair@V?$basic_string@DU?$char_traits@D@std@@V?$allocator@D@2@@std@@V12@@std@@QEAA@AEAY01$$CBD$$QEAV?$basic_string@DU?$char_traits@D@std@@V?$allocator@D@2@@1@@Z 0000000180012970 f i pipeline.obj
 0001:000119e0       ??$?0AEAY07$$CBDV?$basic_string@DU?$char_traits@D@std@@V?$allocator@D@2@@std@@X$0A@@?$pair@V?$basic_string@DU?$char_traits@D@std@@V?$allocator@D@2@@std@@V12@@std@@QEAA@AEAY07$$CBD$$QEAV?$basic_string@DU?$char_traits@D@std@@V?$allocator@D@2@@1@@Z 00000001800129e0 f i pipeline.obj
 0001:00011a50       ??$?0AEAY08$$CBDPEBDX$0A@@?$pair@V?$basic_string@DU?$char_traits@D@std@@V?$allocator@D@2@@std@@V12@@std@@QEAA@AEAY08$$CBD$$QEAPEBD@Z 0000000180012a50 f i pipeline.obj
 0001:00011ae0       ??$?0AEAY0O@$$CBDPEBDX$0A@@?$pair@V?$basic_string@DU?$char_traits@D@std@@V?$allocator@D@2@@std@@V12@@std@@QEAA@AEAY0O@$$CBD$$QEAPEBD@Z 0000000180012ae0 f i pipeline.obj
 0001:00011b80       ??$?0AEAY0N@$$CBDPEBDX$0A@@?$pair@V?$basic_string@DU?$char_traits@D@std@@V?$allocator@D@2@@std@@V12@@std@@QEAA@AEAY0N@$$CBD$$QEAPEBD@Z 0000000180012b80 f i pipeline.obj
 0001:00011c10       ??$?0AEAY0BE@$$CBDPEBDX$0A@@?$pair@V?$basic_string@DU?$char_traits@D@std@@V?$allocator@D@2@@std@@V12@@std@@QEAA@AEAY0BE@$$CBD$$QEAPEBD@Z 0000000180012c10 f i pipeline.obj
 0001:00011ca0       ??$?0AEAY0P@$$CBDPEBDX$0A@@?$pair@V?$basic_string@DU?$char_traits@D@std@@V?$allocator@D@2@@std@@V12@@std@@QEAA@AEAY0P@$$CBD$$QEAPEBD@Z 0000000180012ca0 f i pipeline.obj
 0001:00011d30       ??$?0AEAY0BA@$$CBDAEAY04$$CBDX$0A@@?$pair@V?$basic_string@DU?$char_traits@D@std@@V?$allocator@D@2@@std@@V12@@std@@QEAA@AEAY0BA@$$CBDAEAY04$$CBD@Z 0000000180012d30 f i pipeline.obj
 0001:00011da0       ??$?HDU?$char_traits@D@std@@V?$allocator@D@1@@std@@YA?AV?$basic_string@DU?$char_traits@D@std@@V?$allocator@D@2@@0@PEBDAEBV10@@Z 0000000180012da0 f i pipeline.obj
 0001:00011e20       ??$?HDU?$char_traits@D@std@@V?$allocator@D@1@@std@@YA?AV?$basic_string@DU?$char_traits@D@std@@V?$allocator@D@2@@0@$$QEAV10@AEBV10@@Z 0000000180012e20 f i pipeline.obj
 0001:00011e70       ??$AttrTo@_N@sharp@@YA_NV?$Local@VObject@v8@@@v8@@V?$basic_string@DU?$char_traits@D@std@@V?$allocator@D@2@@std@@@Z 0000000180012e70 f i pipeline.obj
 0001:00011f20       ??$AttrTo@H@sharp@@YAHV?$Local@VObject@v8@@@v8@@V?$basic_string@DU?$char_traits@D@std@@V?$allocator@D@2@@std@@@Z 0000000180012f20 f i pipeline.obj
 0001:00011fd0       ??$AttrTo@N@sharp@@YANV?$Local@VObject@v8@@@v8@@V?$basic_string@DU?$char_traits@D@std@@V?$allocator@D@2@@std@@@Z 0000000180012fd0 f i pipeline.obj
 0001:00012090       ?reserve@?$basic_string@DU?$char_traits@D@std@@V?$allocator@D@2@@std@@QEAAX_K@Z 0000000180013090 f i pipeline.obj
 0001:00012140       ??$?8DU?$char_traits@D@std@@V?$allocator@D@1@@std@@YA_NAEBV?$basic_string@DU?$char_traits@D@std@@V?$allocator@D@2@@0@0@Z 0000000180013140 f i pipeline.obj
 0001:000121c0       ??$_For_each_unchecked@PEAPEAUInputDescriptor@sharp@@V<lambda_c3ae18baaead4f54367c36d71046f7c6>@@@std@@YAXPEAPEAUInputDescriptor@sharp@@0AEAV<lambda_c3ae18baaead4f54367c36d71046f7c6>@@@Z 00000001800131c0 f i pipeline.obj
 0001:00012330       ??$_Try_emplace@W4VipsInterpretation@@$$V@?$map@W4VipsInterpretation@@V?$basic_string@DU?$char_traits@D@std@@V?$allocator@D@2@@std@@U?$less@W4VipsInterpretation@@@3@V?$allocator@U?$pair@$$CBW4VipsInterpretation@@V?$basic_string@DU?$char_traits@D@std@@V?$allocator@D@2@@std@@@std@@@3@@std@@QEAA?AU?$pair@V?$_Tree_iterator@V?$_Tree_val@U?$_Tree_simple_types@U?$pair@$$CBW4VipsInterpretation@@V?$basic_string@DU?$char_traits@D@std@@V?$allocator@D@2@@std@@@std@@@std@@@std@@@std@@_N@1@$$QEAW4VipsInterpretation@@@Z 0000000180013330 f i pipeline.obj
 0001:00012330       ??$_Try_emplace@AEBW4VipsInterpretation@@$$V@?$map@W4VipsInterpretation@@V?$basic_string@DU?$char_traits@D@std@@V?$allocator@D@2@@std@@U?$less@W4VipsInterpretation@@@3@V?$allocator@U?$pair@$$CBW4VipsInterpretation@@V?$basic_string@DU?$char_traits@D@std@@V?$allocator@D@2@@std@@@std@@@3@@std@@QEAA?AU?$pair@V?$_Tree_iterator@V?$_Tree_val@U?$_Tree_simple_types@U?$pair@$$CBW4VipsInterpretation@@V?$basic_string@DU?$char_traits@D@std@@V?$allocator@D@2@@std@@@std@@@std@@@std@@@std@@_N@1@AEBW4VipsInterpretation@@@Z 0000000180013330 f i pipeline.obj
 0001:00012430       ??$_Assign@PEBN@?$vector@NV?$allocator@N@std@@@std@@QEAAXPEBN0Uforward_iterator_tag@1@@Z 0000000180013430 f i pipeline.obj
 0001:00012520       ??$_Destroy_range1@V?$allocator@U?$pair@V?$basic_string@DU?$char_traits@D@std@@V?$allocator@D@2@@std@@V12@@std@@@std@@PEAU?$pair@V?$basic_string@DU?$char_traits@D@std@@V?$allocator@D@2@@std@@V12@@2@@std@@YAXPEAU?$pair@V?$basic_string@DU?$char_traits@D@std@@V?$allocator@D@2@@std@@V12@@0@0AEAU?$_Wrap_alloc@V?$allocator@U?$pair@V?$basic_string@DU?$char_traits@D@std@@V?$allocator@D@2@@std@@V12@@std@@@std@@@0@U?$integral_constant@_N$0A@@0@@Z 0000000180013520 f i pipeline.obj
 0001:00012660       ??$_Insert_nohint@AEAU?$pair@$$CBW4VipsInterpretation@@V?$basic_string@DU?$char_traits@D@std@@V?$allocator@D@2@@std@@@std@@PEAU?$_Tree_node@U?$pair@$$CBW4VipsInterpretation@@V?$basic_string@DU?$char_traits@D@std@@V?$allocator@D@2@@std@@@std@@PEAX@2@@?$_Tree@V?$_Tmap_traits@W4VipsInterpretation@@V?$basic_string@DU?$char_traits@D@std@@V?$allocator@D@2@@std@@U?$less@W4VipsInterpretation@@@3@V?$allocator@U?$pair@$$CBW4VipsInterpretation@@V?$basic_string@DU?$char_traits@D@std@@V?$allocator@D@2@@std@@@std@@@3@$0A@@std@@@std@@IEAA?AU?$pair@V?$_Tree_iterator@V?$_Tree_val@U?$_Tree_simple_types@U?$pair@$$CBW4VipsInterpretation@@V?$basic_string@DU?$char_traits@D@std@@V?$allocator@D@2@@std@@@std@@@std@@@std@@@std@@_N@1@_NAEAU?$pair@$$CBW4VipsInterpretation@@V?$basic_string@DU?$char_traits@D@std@@V?$allocator@D@2@@std@@@1@PEAU?$_Tree_node@U?$pair@$$CBW4VipsInterpretation@@V?$basic_string@DU?$char_traits@D@std@@V?$allocator@D@2@@std@@@std@@PEAX@1@@Z 0000000180013660 f i pipeline.obj
 0001:00012790       ?_Delete_this@?$_Func_impl@UAttentionStrategy@sharp@@V?$allocator@H@std@@NVVImage@vips@@@std@@EEAAX_N@Z 0000000180013790 f i pipeline.obj
 0001:00012790       ?_Delete_this@?$_Func_impl@UEntropyStrategy@sharp@@V?$allocator@H@std@@NVVImage@vips@@@std@@EEAAX_N@Z 0000000180013790 f i pipeline.obj
 0001:000127b0       ?_Get@?$_Func_impl@UAttentionStrategy@sharp@@V?$allocator@H@std@@NVVImage@vips@@@std@@EEBAPEBXXZ 00000001800137b0 f i pipeline.obj
 0001:000127b0       ?_Get@?$_Func_impl@UEntropyStrategy@sharp@@V?$allocator@H@std@@NVVImage@vips@@@std@@EEBAPEBXXZ 00000001800137b0 f i pipeline.obj
 0001:000127c0       ?_Target_type@?$_Func_impl@UAttentionStrategy@sharp@@V?$allocator@H@std@@NVVImage@vips@@@std@@EEBAAEBVtype_info@@XZ 00000001800137c0 f i pipeline.obj
 0001:000127d0       ?_Do_call@?$_Func_impl@UAttentionStrategy@sharp@@V?$allocator@H@std@@NVVImage@vips@@@std@@EEAAN$$QEAVVImage@vips@@@Z 00000001800137d0 f i pipeline.obj
 0001:000127f0       ?_Move@?$_Func_impl@UAttentionStrategy@sharp@@V?$allocator@H@std@@NVVImage@vips@@@std@@EEAAPEAV?$_Func_base@NVVImage@vips@@@2@PEAX@Z 00000001800137f0 f i pipeline.obj
 0001:000127f0       ?_Copy@?$_Func_impl@UAttentionStrategy@sharp@@V?$allocator@H@std@@NVVImage@vips@@@std@@EEBAPEAV?$_Func_base@NVVImage@vips@@@2@PEAX@Z 00000001800137f0 f i pipeline.obj
 0001:00012810       ?_Target_type@?$_Func_impl@UEntropyStrategy@sharp@@V?$allocator@H@std@@NVVImage@vips@@@std@@EEBAAEBVtype_info@@XZ 0000000180013810 f i pipeline.obj
 0001:00012820       ?_Do_call@?$_Func_impl@UEntropyStrategy@sharp@@V?$allocator@H@std@@NVVImage@vips@@@std@@EEAAN$$QEAVVImage@vips@@@Z 0000000180013820 f i pipeline.obj
 0001:00012890       ?_Copy@?$_Func_impl@UEntropyStrategy@sharp@@V?$allocator@H@std@@NVVImage@vips@@@std@@EEBAPEAV?$_Func_base@NVVImage@vips@@@2@PEAX@Z 0000000180013890 f i pipeline.obj
 0001:00012890       ?_Move@?$_Func_impl@UEntropyStrategy@sharp@@V?$allocator@H@std@@NVVImage@vips@@@std@@EEAAPEAV?$_Func_base@NVVImage@vips@@@2@PEAX@Z 0000000180013890 f i pipeline.obj
 0001:000128b0       ??$_Insert_at@AEAU?$pair@$$CBW4VipsInterpretation@@V?$basic_string@DU?$char_traits@D@std@@V?$allocator@D@2@@std@@@std@@PEAU?$_Tree_node@U?$pair@$$CBW4VipsInterpretation@@V?$basic_string@DU?$char_traits@D@std@@V?$allocator@D@2@@std@@@std@@PEAX@2@@?$_Tree@V?$_Tmap_traits@W4VipsInterpretation@@V?$basic_string@DU?$char_traits@D@std@@V?$allocator@D@2@@std@@U?$less@W4VipsInterpretation@@@3@V?$allocator@U?$pair@$$CBW4VipsInterpretation@@V?$basic_string@DU?$char_traits@D@std@@V?$allocator@D@2@@std@@@std@@@3@$0A@@std@@@std@@IEAA?AV?$_Tree_iterator@V?$_Tree_val@U?$_Tree_simple_types@U?$pair@$$CBW4VipsInterpretation@@V?$basic_string@DU?$char_traits@D@std@@V?$allocator@D@2@@std@@@std@@@std@@@std@@@1@_NPEAU?$_Tree_node@U?$pair@$$CBW4VipsInterpretation@@V?$basic_string@DU?$char_traits@D@std@@V?$allocator@D@2@@std@@@std@@PEAX@1@AEAU?$pair@$$CBW4VipsInterpretation@@V?$basic_string@DU?$char_traits@D@std@@V?$allocator@D@2@@std@@@1@1@Z 00000001800138b0 f i pipeline.obj
 0001:00012b60       ??$_Insert_hint@AEAU?$pair@$$CBW4VipsInterpretation@@V?$basic_string@DU?$char_traits@D@std@@V?$allocator@D@2@@std@@@std@@PEAU?$_Tree_node@U?$pair@$$CBW4VipsInterpretation@@V?$basic_string@DU?$char_traits@D@std@@V?$allocator@D@2@@std@@@std@@PEAX@2@@?$_Tree@V?$_Tmap_traits@W4VipsInterpretation@@V?$basic_string@DU?$char_traits@D@std@@V?$allocator@D@2@@std@@U?$less@W4VipsInterpretation@@@3@V?$allocator@U?$pair@$$CBW4VipsInterpretation@@V?$basic_string@DU?$char_traits@D@std@@V?$allocator@D@2@@std@@@std@@@3@$0A@@std@@@std@@IEAA?AV?$_Tree_iterator@V?$_Tree_val@U?$_Tree_simple_types@U?$pair@$$CBW4VipsInterpretation@@V?$basic_string@DU?$char_traits@D@std@@V?$allocator@D@2@@std@@@std@@@std@@@std@@@1@V?$_Tree_const_iterator@V?$_Tree_val@U?$_Tree_simple_types@U?$pair@$$CBW4VipsInterpretation@@V?$basic_string@DU?$char_traits@D@std@@V?$allocator@D@2@@std@@@std@@@std@@@std@@@1@AEAU?$pair@$$CBW4VipsInterpretation@@V?$basic_string@DU?$char_traits@D@std@@V?$allocator@D@2@@std@@@1@PEAU?$_Tree_node@U?$pair@$$CBW4VipsInterpretation@@V?$basic_string@DU?$char_traits@D@std@@V?$allocator@D@2@@std@@@std@@PEAX@1@@Z 0000000180013b60 f i pipeline.obj
 0001:00012db0       ??$_Uninitialized_copy_al_unchecked1@PEBU?$pair@V?$basic_string@DU?$char_traits@D@std@@V?$allocator@D@2@@std@@V12@@std@@PEAU12@V?$allocator@U?$pair@V?$basic_string@DU?$char_traits@D@std@@V?$allocator@D@2@@std@@V12@@std@@@2@@std@@YAPEAU?$pair@V?$basic_string@DU?$char_traits@D@std@@V?$allocator@D@2@@std@@V12@@0@PEBU10@0PEAU10@AEAU?$_Wrap_alloc@V?$allocator@U?$pair@V?$basic_string@DU?$char_traits@D@std@@V?$allocator@D@2@@std@@V12@@std@@@std@@@0@U_General_ptr_iterator_tag@0@U_Any_tag@0@@Z 0000000180013db0 f i pipeline.obj
 0001:00012f10       ?NewInstance@Nan@@YA?AV?$MaybeLocal@VObject@v8@@@v8@@V?$Local@VObjectTemplate@v8@@@3@@Z 0000000180013f10 f i sharp.obj
 0001:00012f90       ?GetFunction@Nan@@YA?AV?$MaybeLocal@VFunction@v8@@@v8@@V?$Local@VFunctionTemplate@v8@@@3@@Z 0000000180013f90 f i sharp.obj
 0001:00013010       ?New@?$Factory@VFunctionTemplate@v8@@@imp@Nan@@SA?AV?$Local@VFunctionTemplate@v8@@@v8@@P6AXAEBV?$FunctionCallbackInfo@VValue@v8@@@3@@ZV?$Local@VValue@v8@@@5@V?$Local@VSignature@v8@@@5@@Z 0000000180014010 f i sharp.obj
 0001:00013180       ?init@@YAXV?$Local@VObject@v8@@@v8@@@Z 0000000180014180 f   sharp.obj
 0001:00013620       ?convert@?$ToFactory@VInteger@v8@@@imp@Nan@@SA?AV?$MaybeLocal@VInteger@v8@@@v8@@V?$Local@VValue@v8@@@5@@Z 0000000180014620 f i utilities.obj
 0001:000136b0       ?ThrowError@Nan@@YAXPEBD@Z 00000001800146b0 f i utilities.obj
 0001:00013750       ?cache@@YAXAEBV?$FunctionCallbackInfo@VValue@v8@@@Nan@@@Z 0000000180014750 f   utilities.obj
 0001:00013de0       ?concurrency@@YAXAEBV?$FunctionCallbackInfo@VValue@v8@@@Nan@@@Z 0000000180014de0 f   utilities.obj
 0001:00013ee0       ?counters@@YAXAEBV?$FunctionCallbackInfo@VValue@v8@@@Nan@@@Z 0000000180014ee0 f   utilities.obj
 0001:00014080       ?simd@@YAXAEBV?$FunctionCallbackInfo@VValue@v8@@@Nan@@@Z 0000000180015080 f   utilities.obj
 0001:00014160       ?libvipsVersion@@YAXAEBV?$FunctionCallbackInfo@VValue@v8@@@Nan@@@Z 0000000180015160 f   utilities.obj
 0001:00014260       ?format@@YAXAEBV?$FunctionCallbackInfo@VValue@v8@@@Nan@@@Z 0000000180015260 f   utilities.obj
 0001:00014b40       ?_maxColourDistance@@YAXAEBV?$FunctionCallbackInfo@VValue@v8@@@Nan@@@Z 0000000180015b40 f   utilities.obj
 0001:0001504c       __imp_load_?GetCurrentContext@Isolate@v8@@QEAA?AV?$Local@VContext@v8@@@2@XZ 000000018001604c f   node:node.exe
 0001:00015058       __tailMerge_node_exe       0000000180016058 f i node:node.exe
 0001:000150d1       __imp_load_?GetCurrent@Isolate@v8@@SAPEAV12@XZ 00000001800160d1 f   node:node.exe
 0001:000150dd       __imp_load_??1HandleScope@v8@@QEAA@XZ 00000001800160dd f   node:node.exe
 0001:000150e9       __imp_load_??0HandleScope@v8@@QEAA@PEAVIsolate@1@@Z 00000001800160e9 f   node:node.exe
 0001:000150f5       __imp_load_?ToLocalEmpty@V8@v8@@CAXXZ 00000001800160f5 f   node:node.exe
 0001:00015101       __imp_load_?FromJustIsNothing@V8@v8@@CAXXZ 0000000180016101 f   node:node.exe
 0001:0001510d       __imp_load_?Uint32Value@Value@v8@@QEBA?AV?$Maybe@I@2@V?$Local@VContext@v8@@@2@@Z 000000018001610d f   node:node.exe
 0001:00015119       __imp_load_?Escape@EscapableHandleScope@v8@@AEAAPEAPEAVObject@internal@2@PEAPEAV342@@Z 0000000180016119 f   node:node.exe
 0001:00015125       __imp_load_??0EscapableHandleScope@v8@@QEAA@PEAVIsolate@1@@Z 0000000180016125 f   node:node.exe
 0001:00015131       __imp_load_?NewFromUtf8@String@v8@@SA?AV?$MaybeLocal@VString@v8@@@2@PEAVIsolate@2@PEBDW4NewStringType@2@H@Z 0000000180016131 f   node:node.exe
 0001:0001513d       __imp_load_?WriteUtf8@String@v8@@QEBAHPEADHPEAHH@Z 000000018001613d f   node:node.exe
 0001:00015149       __imp_load_?Length@String@v8@@QEBAHXZ 0000000180016149 f   node:node.exe
 0001:00015155       __imp_load_?Has@Object@v8@@QEAA?AV?$Maybe@_N@2@V?$Local@VContext@v8@@@2@V?$Local@VValue@v8@@@2@@Z 0000000180016155 f   node:node.exe
 0001:00015161       __imp_load_?Get@Object@v8@@QEAA?AV?$MaybeLocal@VValue@v8@@@2@V?$Local@VContext@v8@@@2@V?$Local@VValue@v8@@@2@@Z 0000000180016161 f   node:node.exe
 0001:0001516d       __imp_load_?Data@Buffer@node@@YAPEADV?$Local@VObject@v8@@@v8@@@Z 000000018001616d f   node:node.exe
 0001:00015179       __imp_load_?Length@Buffer@node@@YA_KV?$Local@VObject@v8@@@v8@@@Z 0000000180016179 f   node:node.exe
 0001:00015185       __imp_load_?ToString@Value@v8@@QEBA?AV?$Local@VString@v8@@@2@XZ 0000000180016185 f   node:node.exe
 0001:00015191       __imp_load_??1EscapableHandleScope@v8@@QEAA@XZ 0000000180016191 f   node:node.exe
 0001:0001519d       __imp_load_uv_queue_work   000000018001619d f   node:node.exe
 0001:000151a9       __imp_load_?Global@Context@v8@@QEAA?AV?$Local@VObject@v8@@@2@XZ 00000001800161a9 f   node:node.exe
 0001:000151b5       __imp_load_?NewFromUnsigned@Integer@v8@@SA?AV?$Local@VInteger@v8@@@2@PEAVIsolate@2@I@Z 00000001800161b5 f   node:node.exe
 0001:000151c1       __imp_load_?CreateHandle@HandleScope@v8@@KAPEAPEAVObject@internal@2@PEAVIsolate@42@PEAV342@@Z 00000001800161c1 f   node:node.exe
 0001:000151cd       __imp_load_?Error@Exception@v8@@SA?AV?$Local@VValue@v8@@@2@V?$Local@VString@v8@@@2@@Z 00000001800161cd f   node:node.exe
 0001:000151d9       __imp_load_?DisposeGlobal@V8@v8@@CAXPEAPEAVObject@internal@2@@Z 00000001800161d9 f   node:node.exe
 0001:000151e5       __imp_load_?GlobalizeReference@V8@v8@@CAPEAPEAVObject@internal@2@PEAVIsolate@42@PEAPEAV342@@Z 00000001800161e5 f   node:node.exe
 0001:000151f1       __imp_load_?ToUint32@Value@v8@@QEBA?AV?$MaybeLocal@VUint32@v8@@@2@V?$Local@VContext@v8@@@2@@Z 00000001800161f1 f   node:node.exe
 0001:000151fd       __imp_load_?New@Object@v8@@SA?AV?$Local@VObject@v8@@@2@PEAVIsolate@2@@Z 00000001800161fd f   node:node.exe
 0001:00015209       __imp_load_?Get@Object@v8@@QEAA?AV?$Local@VValue@v8@@@2@I@Z 0000000180016209 f   node:node.exe
 0001:00015215       __imp_load_?Set@Object@v8@@QEAA?AV?$Maybe@_N@2@V?$Local@VContext@v8@@@2@V?$Local@VValue@v8@@@2@1@Z 0000000180016215 f   node:node.exe
 0001:00015221       __imp_load_?Set@Object@v8@@QEAA_NIV?$Local@VValue@v8@@@2@@Z 0000000180016221 f   node:node.exe
 0001:0001522d       __imp_load_?New@Buffer@node@@YA?AV?$MaybeLocal@VObject@v8@@@v8@@PEAVIsolate@4@PEAD_KP6AX1PEAX@Z3@Z 000000018001622d f   node:node.exe
 0001:00015239       __imp_load_?MakeCallback@node@@YA?AV?$Local@VValue@v8@@@v8@@PEAVIsolate@3@V?$Local@VObject@v8@@@3@V?$Local@VFunction@v8@@@3@HPEAV23@@Z 0000000180016239 f   node:node.exe
 0001:00015245       __imp_load_uv_default_loop 0000000180016245 f   node:node.exe
 0001:00015251       __imp_load_?Int32Value@Value@v8@@QEBA?AV?$Maybe@H@2@V?$Local@VContext@v8@@@2@@Z 0000000180016251 f   node:node.exe
 0001:0001525d       __imp_load_?NumberValue@Value@v8@@QEBA?AV?$Maybe@N@2@V?$Local@VContext@v8@@@2@@Z 000000018001625d f   node:node.exe
 0001:00015269       __imp_load_?BooleanValue@Value@v8@@QEBA?AV?$Maybe@_N@2@V?$Local@VContext@v8@@@2@@Z 0000000180016269 f   node:node.exe
 0001:00015275       __imp_load_?Get@Object@v8@@QEAA?AV?$MaybeLocal@VValue@v8@@@2@V?$Local@VContext@v8@@@2@I@Z 0000000180016275 f   node:node.exe
 0001:00015281       __imp_load_?Value@External@v8@@QEBAPEAXXZ 0000000180016281 f   node:node.exe
 0001:0001528d       __imp_load_?New@External@v8@@SA?AV?$Local@VExternal@v8@@@2@PEAVIsolate@2@PEAX@Z 000000018001628d f   node:node.exe
 0001:00015299       __imp_load_?CreateHandle@HandleScope@v8@@CAPEAPEAVObject@internal@2@PEAVHeapObject@42@PEAV342@@Z 0000000180016299 f   node:node.exe
 0001:000152a5       __imp_load_?GetFunction@FunctionTemplate@v8@@QEAA?AV?$MaybeLocal@VFunction@v8@@@2@V?$Local@VContext@v8@@@2@@Z 00000001800162a5 f   node:node.exe
 0001:000152b1       __imp_load_?New@FunctionTemplate@v8@@SA?AV?$Local@VFunctionTemplate@v8@@@2@PEAVIsolate@2@P6AXAEBV?$FunctionCallbackInfo@VValue@v8@@@2@@ZV?$Local@VValue@v8@@@2@V?$Local@VSignature@v8@@@2@H@Z 00000001800162b1 f   node:node.exe
 0001:000152bd       __imp_load_?SlowGetInternalField@Object@v8@@AEAA?AV?$Local@VValue@v8@@@2@H@Z 00000001800162bd f   node:node.exe
 0001:000152c9       __imp_load_?SetInternalField@Object@v8@@QEAAXHV?$Local@VValue@v8@@@2@@Z 00000001800162c9 f   node:node.exe
 0001:000152d5       __imp_load_?SetInternalFieldCount@ObjectTemplate@v8@@QEAAXH@Z 00000001800162d5 f   node:node.exe
 0001:000152e1       __imp_load_?NewInstance@ObjectTemplate@v8@@QEAA?AV?$MaybeLocal@VObject@v8@@@2@V?$Local@VContext@v8@@@2@@Z 00000001800162e1 f   node:node.exe
 0001:000152ed       __imp_load_?New@ObjectTemplate@v8@@SA?AV?$Local@VObjectTemplate@v8@@@2@PEAVIsolate@2@V?$Local@VFunctionTemplate@v8@@@2@@Z 00000001800162ed f   node:node.exe
 0001:000152f9       __imp_load_node_module_register 00000001800162f9 f   node:node.exe
 0001:00015305       __imp_load_?New@Integer@v8@@SA?AV?$Local@VInteger@v8@@@2@PEAVIsolate@2@H@Z 0000000180016305 f   node:node.exe
 0001:00015311       __imp_load_?ThrowException@Isolate@v8@@QEAA?AV?$Local@VValue@v8@@@2@V32@@Z 0000000180016311 f   node:node.exe
 0001:0001531d       __imp_load_?ToInteger@Value@v8@@QEBA?AV?$MaybeLocal@VInteger@v8@@@2@V?$Local@VContext@v8@@@2@@Z 000000018001631d f   node:node.exe
 0001:00015329       __imp_load_?IsInt32@Value@v8@@QEBA_NXZ 0000000180016329 f   node:node.exe
 0001:00015335       __imp_load_?IsBoolean@Value@v8@@QEBA_NXZ 0000000180016335 f   node:node.exe
 0001:00015341       __imp_load_?New@Number@v8@@SA?AV?$Local@VNumber@v8@@@2@PEAVIsolate@2@N@Z 0000000180016341 f   node:node.exe
 0001:0001534e       ??0VError@vips@@QEAA@AEBV01@@Z 000000018001634e f   libvips-cpp:libvips-cpp.dll
 0001:00015354       ??1VError@vips@@UEAA@XZ    0000000180016354 f   libvips-cpp:libvips-cpp.dll
 0001:0001535c       ??0bad_alloc@std@@QEAA@AEBV01@@Z 000000018001635c f i libcpmt:xthrow.obj
 0001:0001539c       ??0bad_alloc@std@@QEAA@XZ  000000018001639c f i libcpmt:xthrow.obj
 0001:000153bc       ??0bad_function_call@std@@QEAA@AEBV01@@Z 00000001800163bc f i libcpmt:xthrow.obj
 0001:000153fc       ??0bad_function_call@std@@QEAA@XZ 00000001800163fc f i libcpmt:xthrow.obj
 0001:00015414       ??0exception@std@@QEAA@AEBV01@@Z 0000000180016414 f i libcpmt:xthrow.obj
 0001:0001544c       ??0length_error@std@@QEAA@AEBV01@@Z 000000018001644c f i libcpmt:xthrow.obj
 0001:0001548c       ??0length_error@std@@QEAA@PEBD@Z 000000018001648c f i libcpmt:xthrow.obj
 0001:000154d8       ??0logic_error@std@@QEAA@AEBV01@@Z 00000001800164d8 f i libcpmt:xthrow.obj
 0001:00015518       ??0out_of_range@std@@QEAA@AEBV01@@Z 0000000180016518 f i libcpmt:xthrow.obj
 0001:00015558       ??0out_of_range@std@@QEAA@PEBD@Z 0000000180016558 f i libcpmt:xthrow.obj
 0001:000155a4       ??1length_error@std@@UEAA@XZ 00000001800165a4 f i libcpmt:xthrow.obj
 0001:000155a4       ??1bad_exception@std@@UEAA@XZ 00000001800165a4 f i libvcruntime:frame.obj
 0001:000155a4       ??1bad_alloc@std@@UEAA@XZ  00000001800165a4 f i libcpmt:xthrow.obj
 0001:000155a4       ??1out_of_range@std@@UEAA@XZ 00000001800165a4 f i libcpmt:xthrow.obj
 0001:000155a4       ??1bad_array_new_length@std@@UEAA@XZ 00000001800165a4 f i LIBCMT:throw_bad_alloc.obj
 0001:000155a4       ??1bad_function_call@std@@UEAA@XZ 00000001800165a4 f i libcpmt:xthrow.obj
 0001:000155b8       ?__scrt_throw_std_bad_alloc@@YAXXZ 00000001800165b8 f   LIBCMT:throw_bad_alloc.obj
 0001:000155b8       ?_Xbad_alloc@std@@YAXXZ    00000001800165b8 f   libcpmt:xthrow.obj
 0001:000155d8       ?_Xbad_function_call@std@@YAXXZ 00000001800165d8 f   libcpmt:xthrow.obj
 0001:000155f8       ?_Xlength_error@std@@YAXPEBD@Z 00000001800165f8 f   libcpmt:xthrow.obj
 0001:0001561c       ?_Xout_of_range@std@@YAXPEBD@Z 000000018001661c f   libcpmt:xthrow.obj
 0001:00015640       ?what@bad_function_call@std@@UEBAPEBDXZ 0000000180016640 f i libcpmt:xthrow.obj
 0001:00015648       ?what@exception@std@@UEBAPEBDXZ 0000000180016648 f i libcpmt:xthrow.obj
 0001:00015670       __security_check_cookie    0000000180016670 f   LIBCMT:_amdsecgs_.obj
 0001:00015694       ??2@YAPEAX_K@Z             0000000180016694 f   LIBCMT:new_scalar.obj
 0001:000156d0       ??3@YAXPEAX@Z              00000001800166d0 f   LIBCMT:delete_scalar.obj
 0001:000156d8       ??_V@YAXPEAX@Z             00000001800166d8 f   LIBCMT:delete_array.obj
 0001:000156d8       ??3@YAXPEAX_K@Z            00000001800166d8 f   LIBCMT:delete_scalar_size.obj
 0001:000156e0       ??_Etype_info@@UEAAPEAXI@Z 00000001800166e0 f i LIBCMT:std_type_info_static.obj
 0001:000156e0       ??_Gtype_info@@UEAAPEAXI@Z 00000001800166e0 f i LIBCMT:std_type_info_static.obj
 0001:0001570c       ??_M@YAXPEAX_K1P6AX0@Z@Z   000000018001670c f   LIBCMT:ehvecdtr.obj
 0001:00015778       ?__ArrayUnwind@@YAXPEAX_K1P6AX0@Z@Z 0000000180016778 f   LIBCMT:ehvecdtr.obj
 0001:000157dc       ??_U@YAPEAX_K@Z            00000001800167dc f   LIBCMT:new_array.obj
 0001:00015b30       _DllMainCRTStartup         0000000180016b30 f   LIBCMT:dll_dllmain.obj
 0001:00015b70       __raise_securityfailure    0000000180016b70 f   LIBCMT:gs_report.obj
 0001:00015ba4       __report_gsfailure         0000000180016ba4 f   LIBCMT:gs_report.obj
 0001:00015c78       __report_rangecheckfailure 0000000180016c78 f   LIBCMT:gs_report.obj
 0001:00015c8c       __report_securityfailure   0000000180016c8c f   LIBCMT:gs_report.obj
 0001:00015e0c       ??0bad_array_new_length@std@@QEAA@AEBV01@@Z 0000000180016e0c f i LIBCMT:throw_bad_alloc.obj
 0001:00015e4c       ??0bad_array_new_length@std@@QEAA@XZ 0000000180016e4c f i LIBCMT:throw_bad_alloc.obj
 0001:00015e6c       ??_Gout_of_range@std@@UEAAPEAXI@Z 0000000180016e6c f i libcpmt:xthrow.obj
 0001:00015e6c       ??_Ebad_array_new_length@std@@UEAAPEAXI@Z 0000000180016e6c f i LIBCMT:throw_bad_alloc.obj
 0001:00015e6c       ??_Eout_of_range@std@@UEAAPEAXI@Z 0000000180016e6c f i libcpmt:xthrow.obj
 0001:00015e6c       ??_Gexception@std@@UEAAPEAXI@Z 0000000180016e6c f i libcpmt:xthrow.obj
 0001:00015e6c       ??_Gbad_function_call@std@@UEAAPEAXI@Z 0000000180016e6c f i libcpmt:xthrow.obj
 0001:00015e6c       ??_Glogic_error@std@@UEAAPEAXI@Z 0000000180016e6c f i libcpmt:xthrow.obj
 0001:00015e6c       ??_Glength_error@std@@UEAAPEAXI@Z 0000000180016e6c f i libcpmt:xthrow.obj
 0001:00015e6c       ??_Ebad_function_call@std@@UEAAPEAXI@Z 0000000180016e6c f i libcpmt:xthrow.obj
 0001:00015e6c       ??_Gbad_exception@std@@UEAAPEAXI@Z 0000000180016e6c f i libvcruntime:frame.obj
 0001:00015e6c       ??_Ebad_alloc@std@@UEAAPEAXI@Z 0000000180016e6c f i libcpmt:xthrow.obj
 0001:00015e6c       ??_Elength_error@std@@UEAAPEAXI@Z 0000000180016e6c f i libcpmt:xthrow.obj
 0001:00015e6c       ??_Gbad_array_new_length@std@@UEAAPEAXI@Z 0000000180016e6c f i LIBCMT:throw_bad_alloc.obj
 0001:00015e6c       ??_Elogic_error@std@@UEAAPEAXI@Z 0000000180016e6c f i libcpmt:xthrow.obj
 0001:00015e6c       ??_Gbad_alloc@std@@UEAAPEAXI@Z 0000000180016e6c f i libcpmt:xthrow.obj
 0001:00015e6c       ??_Ebad_exception@std@@UEAAPEAXI@Z 0000000180016e6c f i libvcruntime:frame.obj
 0001:00015e6c       ??_Eexception@std@@UEAAPEAXI@Z 0000000180016e6c f i libcpmt:xthrow.obj
 0001:00015eb0       ?__scrt_throw_std_bad_array_new_length@@YAXXZ 0000000180016eb0 f   LIBCMT:throw_bad_alloc.obj
 0001:00015ed0       _guard_check_icall         0000000180016ed0 f i LIBCMT:checkcfg.obj
 0001:00015ed8       __scrt_acquire_startup_lock 0000000180016ed8 f   LIBCMT:utility.obj
 0001:00015f14       __scrt_dllmain_after_initialize_c 0000000180016f14 f   LIBCMT:utility.obj
 0001:00015f48       __scrt_dllmain_before_initialize_c 0000000180016f48 f   LIBCMT:utility.obj
 0001:00015f60       __scrt_dllmain_crt_thread_attach 0000000180016f60 f   LIBCMT:utility.obj
 0001:00015f88       __scrt_dllmain_crt_thread_detach 0000000180016f88 f   LIBCMT:utility.obj
 0001:00015fa0       __scrt_dllmain_exception_filter 0000000180016fa0 f   LIBCMT:utility.obj
 0001:00016004       __scrt_dllmain_uninitialize_c 0000000180017004 f   LIBCMT:utility.obj
 0001:00016034       __scrt_dllmain_uninitialize_critical 0000000180017034 f   LIBCMT:utility.obj
 0001:00016048       __scrt_initialize_crt      0000000180017048 f   LIBCMT:utility.obj
 0001:00016094       __scrt_initialize_onexit_tables 0000000180017094 f   LIBCMT:utility.obj
 0001:00016160       __scrt_is_nonwritable_in_current_image 0000000180017160 f   LIBCMT:utility.obj
 0001:000161fc       __scrt_release_startup_lock 00000001800171fc f   LIBCMT:utility.obj
 0001:00016220       __scrt_uninitialize_crt    0000000180017220 f   LIBCMT:utility.obj
 0001:0001624c       _onexit                    000000018001724c f   LIBCMT:utility.obj
 0001:0001629c       atexit                     000000018001729c f   LIBCMT:utility.obj
 0001:000162b4       __security_init_cookie     00000001800172b4 f   LIBCMT:gs_support.obj
 0001:00016360       DllMain                    0000000180017360 f   LIBCMT:dll_dllmain_stub.obj
 0001:00016360       _get_startup_argv_mode     0000000180017360 f   LIBCMT:argv_mode.obj
 0001:00016368       ?__scrt_initialize_type_info@@YAXXZ 0000000180017368 f   LIBCMT:tncleanup.obj
 0001:00016378       ?__scrt_uninitialize_type_info@@YAXXZ 0000000180017378 f   LIBCMT:tncleanup.obj
 0001:00016384       __local_stdio_printf_options 0000000180017384 f i LIBCMT:default_local_stdio_options.obj
 0001:0001638c       __local_stdio_scanf_options 000000018001738c f i LIBCMT:default_local_stdio_options.obj
 0001:00016394       __scrt_initialize_default_local_stdio_options 0000000180017394 f   LIBCMT:default_local_stdio_options.obj
 0001:000163b0       __scrt_get_dyn_tls_init_callback 00000001800173b0 f   LIBCMT:dyn_tls_init.obj
 0001:000163b8       __crt_debugger_hook        00000001800173b8 f   LIBCMT:utility_desktop.obj
 0001:000163c0       __scrt_fastfail            00000001800173c0 f   LIBCMT:utility_desktop.obj
 0001:00016508       _RTC_Initialize            0000000180017508 f   LIBCMT:_initsect_.obj
 0001:00016554       _RTC_Terminate             0000000180017554 f   LIBCMT:_initsect_.obj
 0001:000165a0       __isa_available_init       00000001800175a0 f   LIBCMT:_cpu_disp_.obj
 0001:00016768       __scrt_is_ucrt_dll_in_use  0000000180017768 f   LIBCMT:ucrt_detection.obj
 0001:00016790       memcpy                     0000000180017790 f   libvcruntime:memcpy.obj
 0001:00016790       memmove                    0000000180017790 f   libvcruntime:memcpy.obj
 0001:00016bc8       __DestructExceptionObject  0000000180017bc8 f   libvcruntime:frame.obj
 0001:00016c50       ??0bad_exception@std@@QEAA@AEBV01@@Z 0000000180017c50 f i libvcruntime:frame.obj
 0001:00016c90       ??0bad_exception@std@@QEAA@XZ 0000000180017c90 f i libvcruntime:frame.obj
 0001:0001760c       ?_CallMemberFunction0@@YAXPEAXP6AX0@Z@Z 000000018001860c f i libvcruntime:frame.obj
 0001:00017610       ?_CallMemberFunction1@@YAXPEAXP6AX0@Z0@Z 0000000180018610 f i libvcruntime:frame.obj
 0001:0001761c       ?_CallMemberFunction2@@YAXPEAXP6AX0@Z0H@Z 000000018001861c f i libvcruntime:frame.obj
 0001:0001762c       __AdjustPointer            000000018001862c f   libvcruntime:frame.obj
 0001:00017650       __BuildCatchObject         0000000180018650 f   libvcruntime:frame.obj
 0001:00017714       __BuildCatchObjectHelper   0000000180018714 f   libvcruntime:frame.obj
 0001:000178f4       __CxxCallCatchBlock        00000001800188f4 f   libvcruntime:frame.obj
 0001:00017ae0       __FrameUnwindFilter        0000000180018ae0 f   libvcruntime:frame.obj
 0001:00017b2c       __FrameUnwindToState       0000000180018b2c f   libvcruntime:frame.obj
 0001:00017cc0       __InternalCxxFrameHandler  0000000180018cc0 f   libvcruntime:frame.obj
 0001:00017f18       __TypeMatch                0000000180018f18 f   libvcruntime:frame.obj
 0001:00018058       __std_terminate            0000000180019058 f   libvcruntime:frame.obj
 0001:00018064       _purecall                  0000000180019064 f   libvcruntime:purevirt.obj
 0001:000180a0       __std_exception_copy       00000001800190a0 f   libvcruntime:std_exception.obj
 0001:00018130       __std_exception_destroy    0000000180019130 f   libvcruntime:std_exception.obj
 0001:00018158       _CxxThrowException         0000000180019158 f   libvcruntime:throw.obj
 0001:00018230       __C_specific_handler       0000000180019230 f   libvcruntime:_chandler_.obj
 0001:0001842c       __vcrt_initialize          000000018001942c f   libvcruntime:initialization.obj
 0001:00018460       __vcrt_thread_attach       0000000180019460 f   libvcruntime:initialization.obj
 0001:00018474       __vcrt_thread_detach       0000000180019474 f   libvcruntime:initialization.obj
 0001:00018488       __vcrt_uninitialize        0000000180019488 f   libvcruntime:initialization.obj
 0001:000184a8       __vcrt_uninitialize_critical 00000001800194a8 f   libvcruntime:initialization.obj
 0001:000184b8       __std_type_info_compare    00000001800194b8 f   libvcruntime:std_type_info.obj
 0001:000184e0       __std_type_info_destroy_list 00000001800194e0 f   libvcruntime:std_type_info.obj
 0001:00018520       memset                     0000000180019520 f   libvcruntime:memset.obj
 0001:000186c0       __vcrt_freefls             00000001800196c0 f   libvcruntime:per_thread_data.obj
 0001:000186e0       __vcrt_freeptd             00000001800196e0 f   libvcruntime:per_thread_data.obj
 0001:00018730       __vcrt_getptd              0000000180019730 f   libvcruntime:per_thread_data.obj
 0001:0001874c       __vcrt_getptd_noexit       000000018001974c f   libvcruntime:per_thread_data.obj
 0001:00018804       __vcrt_initialize_ptd      0000000180019804 f   libvcruntime:per_thread_data.obj
 0001:00018844       __vcrt_uninitialize_ptd    0000000180019844 f   libvcruntime:per_thread_data.obj
 0001:00018868       ?__GetCurrentState@@YAHPEA_KPEAU_xDISPATCHER_CONTEXT@@PEBU_s_FuncInfo@@@Z 0000000180019868 f   libvcruntime:ehstate.obj
 0001:00018890       ?__GetUnwindTryBlock@@YAHPEA_KPEAU_xDISPATCHER_CONTEXT@@PEBU_s_FuncInfo@@@Z 0000000180019890 f   libvcruntime:ehstate.obj
 0001:000188bc       ?__SetState@@YAXPEA_KPEAU_xDISPATCHER_CONTEXT@@PEBU_s_FuncInfo@@H@Z 00000001800198bc f   libvcruntime:ehstate.obj
 0001:000188c8       ?__SetUnwindTryBlock@@YAXPEA_KPEAU_xDISPATCHER_CONTEXT@@PEBU_s_FuncInfo@@H@Z 00000001800198c8 f   libvcruntime:ehstate.obj
 0001:00018904       ?__StateFromControlPc@@YAHPEBU_s_FuncInfo@@PEAU_xDISPATCHER_CONTEXT@@@Z 0000000180019904 f   libvcruntime:ehstate.obj
 0001:0001890c       ?__StateFromIp@@YAHPEBU_s_FuncInfo@@PEAU_xDISPATCHER_CONTEXT@@_J@Z 000000018001990c f   libvcruntime:ehstate.obj
 0001:00018990       _CallSettingFrame          0000000180019990 f   libvcruntime:handlers.obj
 0001:000189d0       ?_ExecutionInCatch@@YAHPEAU_xDISPATCHER_CONTEXT@@PEBU_s_FuncInfo@@@Z 00000001800199d0 f   libvcruntime:trnsctrl.obj
 0001:00018a44       ?_GetEstablisherFrame@@YAPEA_KPEA_KPEAU_xDISPATCHER_CONTEXT@@PEBU_s_FuncInfo@@0@Z 0000000180019a44 f   libvcruntime:trnsctrl.obj
 0001:00018b10       ?_GetRangeOfTrysToCheck@@YAPEBU_s_TryBlockMapEntry@@PEA_KPEBU_s_FuncInfo@@HHPEAI2PEAU_xDISPATCHER_CONTEXT@@@Z 0000000180019b10 f   libvcruntime:trnsctrl.obj
 0001:00018c3c       ?__FrameUnwindToEmptyState@@YAXPEA_KPEAU_xDISPATCHER_CONTEXT@@PEBU_s_FuncInfo@@@Z 0000000180019c3c f   libvcruntime:trnsctrl.obj
 0001:00018cd0       ?__SehTransFilter@@YAHPEAU_EXCEPTION_POINTERS@@PEAUEHExceptionRecord@@PEA_KPEAU_CONTEXT@@PEAU_xDISPATCHER_CONTEXT@@PEBU_s_FuncInfo@@PEAH@Z 0000000180019cd0 f   libvcruntime:trnsctrl.obj
 0001:00018d68       _CallSETranslator          0000000180019d68 f   libvcruntime:trnsctrl.obj
 0001:00018dc0       _CreateFrameInfo           0000000180019dc0 f   libvcruntime:trnsctrl.obj
 0001:00018dfc       _FindAndUnlinkFrame        0000000180019dfc f   libvcruntime:trnsctrl.obj
 0001:00018e54       _GetImageBase              0000000180019e54 f   libvcruntime:trnsctrl.obj
 0001:00018e68       _GetThrowImageBase         0000000180019e68 f   libvcruntime:trnsctrl.obj
 0001:00018e7c       _IsExceptionObjectToBeDestroyed 0000000180019e7c f   libvcruntime:trnsctrl.obj
 0001:00018eac       _SetImageBase              0000000180019eac f   libvcruntime:trnsctrl.obj
 0001:00018ec4       _SetThrowImageBase         0000000180019ec4 f   libvcruntime:trnsctrl.obj
 0001:00018edc       _UnwindNestedFrames        0000000180019edc f   libvcruntime:trnsctrl.obj
 0001:00019000       __CxxFrameHandler3         000000018001a000 f   libvcruntime:trnsctrl.obj
 0001:00019090       _local_unwind              000000018001a090 f   libvcruntime:_jmpuwind_.obj
 0001:000190c0       _NLG_Notify                000000018001a0c0 f   libvcruntime:_jmpuwind_.obj
 0001:000190e0       __NLG_Dispatch2            000000018001a0e0 f   libvcruntime:_jmpuwind_.obj
 0001:000190f0       __NLG_Return2              000000018001a0f0 f   libvcruntime:_jmpuwind_.obj
 0001:000190f4       __vcrt_initialize_pure_virtual_call_handler 000000018001a0f4 f   libvcruntime:purevirt_data.obj
 0001:00019118       __vcrt_initialize_locks    000000018001a118 f   libvcruntime:locks.obj
 0001:00019160       __vcrt_uninitialize_locks  000000018001a160 f   libvcruntime:locks.obj
 0001:00019360       __vcrt_FlsAlloc            000000018001a360 f   libvcruntime:winapi_downlevel.obj
 0001:000193b4       __vcrt_FlsFree             000000018001a3b4 f   libvcruntime:winapi_downlevel.obj
 0001:00019408       __vcrt_FlsGetValue         000000018001a408 f   libvcruntime:winapi_downlevel.obj
 0001:0001945c       __vcrt_FlsSetValue         000000018001a45c f   libvcruntime:winapi_downlevel.obj
 0001:000194c4       __vcrt_InitializeCriticalSectionEx 000000018001a4c4 f   libvcruntime:winapi_downlevel.obj
 0001:0001953c       __vcrt_initialize_winapi_thunks 000000018001a53c f   libvcruntime:winapi_downlevel.obj
 0001:00019588       __vcrt_uninitialize_winapi_thunks 000000018001a588 f   libvcruntime:winapi_downlevel.obj
 0001:000195c8       free                       000000018001a5c8 f   libucrt:free.obj
 0001:000195d0       round                      000000018001a5d0 f   libucrt:round.obj
 0001:0001a020       ??$ftprintf@PEAU_iobuf@@PEB_WAEBQEB_WAEBQEB_WAEBI@?$__crt_char_traits@_W@@SAH$$QEAPEAU_iobuf@@$$QEAPEB_WAEBQEB_W2AEBI@Z 000000018001b020 f i libucrt:assert.obj
 0001:0001a048       _wassert                   000000018001b048 f   libucrt:assert.obj
 0001:0001a0cc       fwprintf                   000000018001b0cc f i libucrt:assert.obj
 0001:0001a110       swprintf                   000000018001b110 f i libucrt:assert.obj
 0001:0001a164       __acrt_call_reportfault    000000018001b164 f   libucrt:invalid_parameter.obj
 0001:0001a2c0       __acrt_initialize_invalid_parameter_handler 000000018001b2c0 f   libucrt:invalid_parameter.obj
 0001:0001a2c8       _invalid_parameter         000000018001b2c8 f   libucrt:invalid_parameter.obj
 0001:0001a370       _invalid_parameter_noinfo  000000018001b370 f   libucrt:invalid_parameter.obj
 0001:0001a390       _invalid_parameter_noinfo_noreturn 000000018001b390 f   libucrt:invalid_parameter.obj
 0001:0001a3c0       _invoke_watson             000000018001b3c0 f   libucrt:invalid_parameter.obj
 0001:0001a408       malloc                     000000018001b408 f   libucrt:malloc.obj
 0001:0001a410       ??0_LocaleUpdate@@QEAA@QEAU__crt_locale_pointers@@@Z 000000018001b410 f i libucrt:stricmp.obj
 0001:0001a4a0       __ascii_stricmp            000000018001b4a0 f   libucrt:stricmp.obj
 0001:0001a4dc       _stricmp                   000000018001b4dc f   libucrt:stricmp.obj
 0001:0001a524       _stricmp_l                 000000018001b524 f   libucrt:stricmp.obj
 0001:0001a5d8       __acrt_initialize_new_handler 000000018001b5d8 f   libucrt:new_handler.obj
 0001:0001a5e0       _callnewh                  000000018001b5e0 f   libucrt:new_handler.obj
 0001:0001a620       _query_new_handler         000000018001b620 f   libucrt:new_handler.obj
 0001:0001a654       terminate                  000000018001b654 f   libucrt:terminate.obj
 0001:0001a67c       _initterm                  000000018001b67c f   libucrt:initterm.obj
 0001:0001a6f4       _initterm_e                000000018001b6f4 f   libucrt:initterm.obj
 0001:0001a740       _seh_filter_dll            000000018001b740 f   libucrt:exception_filter.obj
 0001:0001a754       _seh_filter_exe            000000018001b754 f   libucrt:exception_filter.obj
 0001:0001ab14       __acrt_initialize_thread_local_exit_callback 000000018001bb14 f   libucrt:exit.obj
 0001:0001ab1c       _cexit                     000000018001bb1c f   libucrt:exit.obj
 0001:0001ab2c       _exit                      000000018001bb2c f   libucrt:exit.obj
 0001:0001ab38       _is_c_termination_complete 000000018001bb38 f   libucrt:exit.obj
 0001:0001acfc       __acrt_allocate_buffer_for_argv 000000018001bcfc f   libucrt:argv_parsing.obj
 0001:0001ad60       _configure_narrow_argv     000000018001bd60 f   libucrt:argv_parsing.obj
 0001:0001b0bc       __dcrt_uninitialize_environments_nolock 000000018001c0bc f   libucrt:environment_initialization.obj
 0001:0001b0f4       _initialize_narrow_environment 000000018001c0f4 f   libucrt:environment_initialization.obj
 0001:0001b0fc       ??$?RV<lambda_b8c45f8f788dd370798f47cfe8ac3a86>@@AEAV<lambda_4e60a939b0d047cfe11ddc22648dfba9>@@V<lambda_332c3edc96d0294ec56c57d38c1cdfd5>@@@?$__crt_seh_guarded_call@H@@QEAAH$$QEAV<lambda_b8c45f8f788dd370798f47cfe8ac3a86>@@AEAV<lambda_4e60a939b0d047cfe11ddc22648dfba9>@@$$QEAV<lambda_332c3edc96d0294ec56c57d38c1cdfd5>@@@Z 000000018001c0fc f i libucrt:onexit.obj
 0001:0001b138       ??$?RV<lambda_e24bbb7b643b32fcea6fa61b31d4c984>@@AEAV<lambda_275893d493268fdec8709772e3fcec0e>@@V<lambda_9d71df4d7cf3f480f8d633942495c3b0>@@@?$__crt_seh_guarded_call@H@@QEAAH$$QEAV<lambda_e24bbb7b643b32fcea6fa61b31d4c984>@@AEAV<lambda_275893d493268fdec8709772e3fcec0e>@@$$QEAV<lambda_9d71df4d7cf3f480f8d633942495c3b0>@@@Z 000000018001c138 f i libucrt:onexit.obj
 0001:0001b4b4       _crt_atexit                000000018001c4b4 f   libucrt:onexit.obj
 0001:0001b4c4       _execute_onexit_table      000000018001c4c4 f   libucrt:onexit.obj
 0001:0001b500       _initialize_onexit_table   000000018001c500 f   libucrt:onexit.obj
 0001:0001b540       _register_onexit_function  000000018001c540 f   libucrt:onexit.obj
 0001:0001b6bc       __acrt_initialize          000000018001c6bc f   libucrt:initialization.obj
 0001:0001b6d0       __acrt_thread_attach       000000018001c6d0 f   libucrt:initialization.obj
 0001:0001b6e4       __acrt_thread_detach       000000018001c6e4 f   libucrt:initialization.obj
 0001:0001b6f4       __acrt_uninitialize        000000018001c6f4 f   libucrt:initialization.obj
 0001:0001b708       __acrt_uninitialize_critical 000000018001c708 f   libucrt:initialization.obj
 0001:0001b718       abort                      000000018001c718 f   libucrt:abort.obj
 0001:0001b770       strcpy_s                   000000018001c770 f   libucrt:strcpy_s.obj
 0001:0001b7d0       _free_base                 000000018001c7d0 f   libucrt:free_base.obj
 0001:0001b810       _malloc_base               000000018001c810 f   libucrt:malloc_base.obj
 0001:0001b870       _calloc_base               000000018001c870 f   libucrt:calloc_base.obj
 0001:0001b8e8       ??$?RV<lambda_7b91131dde12e1c3dfc74ff76b3f2eac>@@AEAV<lambda_dd75445284c072d0bd3768540cc698fa>@@V<lambda_16bc4ecb55b4718497c16bceaea2ceaf>@@@?$__crt_seh_guarded_call@H@@QEAAH$$QEAV<lambda_7b91131dde12e1c3dfc74ff76b3f2eac>@@AEAV<lambda_dd75445284c072d0bd3768540cc698fa>@@$$QEAV<lambda_16bc4ecb55b4718497c16bceaea2ceaf>@@@Z 000000018001c8e8 f i libucrt:output.obj
 0001:0001b928       ??$ensure_buffer_is_big_enough@D@formatting_buffer@__crt_stdio_output@@QEAA_N_K@Z 000000018001c928 f i libucrt:output.obj
 0001:0001b9d4       ??$is_wide_character_specifier@_W@__crt_stdio_output@@YA_N_K_WW4length_modifier@0@@Z 000000018001c9d4 f i libucrt:output.obj
 0001:0001ba18       ??$type_case_integer_parse_into_buffer@I@?$output_processor@_WV?$string_output_adapter@_W@__crt_stdio_output@@V?$standard_base@_WV?$string_output_adapter@_W@__crt_stdio_output@@@2@@__crt_stdio_output@@AEAAXII_N@Z 000000018001ca18 f i libucrt:output.obj
 0001:0001ba18       ??$type_case_integer_parse_into_buffer@I@?$output_processor@_WV?$stream_output_adapter@_W@__crt_stdio_output@@V?$standard_base@_WV?$stream_output_adapter@_W@__crt_stdio_output@@@2@@__crt_stdio_output@@AEAAXII_N@Z 000000018001ca18 f i libucrt:output.obj
 0001:0001bab4       ??$type_case_integer_parse_into_buffer@_K@?$output_processor@_WV?$string_output_adapter@_W@__crt_stdio_output@@V?$standard_base@_WV?$string_output_adapter@_W@__crt_stdio_output@@@2@@__crt_stdio_output@@AEAAX_KI_N@Z 000000018001cab4 f i libucrt:output.obj
 0001:0001bab4       ??$type_case_integer_parse_into_buffer@_K@?$output_processor@_WV?$stream_output_adapter@_W@__crt_stdio_output@@V?$standard_base@_WV?$stream_output_adapter@_W@__crt_stdio_output@@@2@@__crt_stdio_output@@AEAAX_KI_N@Z 000000018001cab4 f i libucrt:output.obj
 0001:0001bb50       ??$write_multiple_characters@V?$stream_output_adapter@_W@__crt_stdio_output@@D@__crt_stdio_output@@YAXAEBV?$stream_output_adapter@_W@0@DHQEAH@Z 000000018001cb50 f i libucrt:output.obj
 0001:0001bbe0       ??$write_multiple_characters@V?$string_output_adapter@_W@__crt_stdio_output@@D@__crt_stdio_output@@YAXAEBV?$string_output_adapter@_W@0@DHQEAH@Z 000000018001cbe0 f i libucrt:output.obj
 0001:0001bc50       ??0?$output_processor@_WV?$string_output_adapter@_W@__crt_stdio_output@@V?$standard_base@_WV?$string_output_adapter@_W@__crt_stdio_output@@@2@@__crt_stdio_output@@QEAA@AEBV?$string_output_adapter@_W@1@_KQEB_WQEAU__crt_locale_pointers@@QEAD@Z 000000018001cc50 f i libucrt:output.obj
 0001:0001bc50       ??0?$output_processor@_WV?$stream_output_adapter@_W@__crt_stdio_output@@V?$standard_base@_WV?$stream_output_adapter@_W@__crt_stdio_output@@@2@@__crt_stdio_output@@QEAA@AEBV?$stream_output_adapter@_W@1@_KQEB_WQEAU__crt_locale_pointers@@QEAD@Z 000000018001cc50 f i libucrt:output.obj
 0001:0001bdc0       ?force_decimal_point@__crt_stdio_output@@YAXPEADQEAU__crt_locale_pointers@@@Z 000000018001cdc0 f i libucrt:output.obj
 0001:0001be30       ?parse_int_from_format_string@?$output_processor@_WV?$string_output_adapter@_W@__crt_stdio_output@@V?$standard_base@_WV?$string_output_adapter@_W@__crt_stdio_output@@@2@@__crt_stdio_output@@AEAA_NQEAH@Z 000000018001ce30 f i libucrt:output.obj
 0001:0001be30       ?parse_int_from_format_string@?$output_processor@_WV?$stream_output_adapter@_W@__crt_stdio_output@@V?$standard_base@_WV?$stream_output_adapter@_W@__crt_stdio_output@@@2@@__crt_stdio_output@@AEAA_NQEAH@Z 000000018001ce30 f i libucrt:output.obj
 0001:0001beb0       ?process@?$output_processor@_WV?$stream_output_adapter@_W@__crt_stdio_output@@V?$standard_base@_WV?$stream_output_adapter@_W@__crt_stdio_output@@@2@@__crt_stdio_output@@QEAAHXZ 000000018001ceb0 f i libucrt:output.obj
 0001:0001c128       ?process@?$output_processor@_WV?$string_output_adapter@_W@__crt_stdio_output@@V?$standard_base@_WV?$string_output_adapter@_W@__crt_stdio_output@@@2@@__crt_stdio_output@@QEAAHXZ 000000018001d128 f i libucrt:output.obj
 0001:0001c3a4       ?state_case_size@?$output_processor@_WV?$stream_output_adapter@_W@__crt_stdio_output@@V?$standard_base@_WV?$stream_output_adapter@_W@__crt_stdio_output@@@2@@__crt_stdio_output@@AEAA_NXZ 000000018001d3a4 f i libucrt:output.obj
 0001:0001c548       ?state_case_size@?$output_processor@_WV?$string_output_adapter@_W@__crt_stdio_output@@V?$standard_base@_WV?$string_output_adapter@_W@__crt_stdio_output@@@2@@__crt_stdio_output@@AEAA_NXZ 000000018001d548 f i libucrt:output.obj
 0001:0001c6ec       ?state_case_type@?$output_processor@_WV?$stream_output_adapter@_W@__crt_stdio_output@@V?$standard_base@_WV?$stream_output_adapter@_W@__crt_stdio_output@@@2@@__crt_stdio_output@@AEAA_NXZ 000000018001d6ec f i libucrt:output.obj
 0001:0001c9b8       ?state_case_type@?$output_processor@_WV?$string_output_adapter@_W@__crt_stdio_output@@V?$standard_base@_WV?$string_output_adapter@_W@__crt_stdio_output@@@2@@__crt_stdio_output@@AEAA_NXZ 000000018001d9b8 f i libucrt:output.obj
 0001:0001cc84       ?type_case_Z@?$output_processor@_WV?$stream_output_adapter@_W@__crt_stdio_output@@V?$standard_base@_WV?$stream_output_adapter@_W@__crt_stdio_output@@@2@@__crt_stdio_output@@AEAA_NXZ 000000018001dc84 f i libucrt:output.obj
 0001:0001cc84       ?type_case_Z@?$output_processor@_WV?$string_output_adapter@_W@__crt_stdio_output@@V?$standard_base@_WV?$string_output_adapter@_W@__crt_stdio_output@@@2@@__crt_stdio_output@@AEAA_NXZ 000000018001dc84 f i libucrt:output.obj
 0001:0001cd04       ?type_case_a@?$output_processor@_WV?$stream_output_adapter@_W@__crt_stdio_output@@V?$standard_base@_WV?$stream_output_adapter@_W@__crt_stdio_output@@@2@@__crt_stdio_output@@AEAA_NXZ 000000018001dd04 f i libucrt:output.obj
 0001:0001cd04       ?type_case_a@?$output_processor@_WV?$string_output_adapter@_W@__crt_stdio_output@@V?$standard_base@_WV?$string_output_adapter@_W@__crt_stdio_output@@@2@@__crt_stdio_output@@AEAA_NXZ 000000018001dd04 f i libucrt:output.obj
 0001:0001cf48       ?type_case_c_tchar@?$output_processor@_WV?$stream_output_adapter@_W@__crt_stdio_output@@V?$standard_base@_WV?$stream_output_adapter@_W@__crt_stdio_output@@@2@@__crt_stdio_output@@AEAA_N_W@Z 000000018001df48 f i libucrt:output.obj
 0001:0001cf48       ?type_case_c_tchar@?$output_processor@_WV?$string_output_adapter@_W@__crt_stdio_output@@V?$standard_base@_WV?$string_output_adapter@_W@__crt_stdio_output@@@2@@__crt_stdio_output@@AEAA_N_W@Z 000000018001df48 f i libucrt:output.obj
 0001:0001cff0       ?type_case_integer@?$output_processor@_WV?$string_output_adapter@_W@__crt_stdio_output@@V?$standard_base@_WV?$string_output_adapter@_W@__crt_stdio_output@@@2@@__crt_stdio_output@@AEAA_NI_N@Z 000000018001dff0 f i libucrt:output.obj
 0001:0001cff0       ?type_case_integer@?$output_processor@_WV?$stream_output_adapter@_W@__crt_stdio_output@@V?$standard_base@_WV?$stream_output_adapter@_W@__crt_stdio_output@@@2@@__crt_stdio_output@@AEAA_NI_N@Z 000000018001dff0 f i libucrt:output.obj
 0001:0001d190       ?type_case_n@?$output_processor@_WV?$stream_output_adapter@_W@__crt_stdio_output@@V?$standard_base@_WV?$stream_output_adapter@_W@__crt_stdio_output@@@2@@__crt_stdio_output@@AEAA_NXZ 000000018001e190 f i libucrt:output.obj
 0001:0001d190       ?type_case_n@?$output_processor@_WV?$string_output_adapter@_W@__crt_stdio_output@@V?$standard_base@_WV?$string_output_adapter@_W@__crt_stdio_output@@@2@@__crt_stdio_output@@AEAA_NXZ 000000018001e190 f i libucrt:output.obj
 0001:0001d26c       ?type_case_s@?$output_processor@_WV?$stream_output_adapter@_W@__crt_stdio_output@@V?$standard_base@_WV?$stream_output_adapter@_W@__crt_stdio_output@@@2@@__crt_stdio_output@@AEAA_NXZ 000000018001e26c f i libucrt:output.obj
 0001:0001d26c       ?type_case_s@?$output_processor@_WV?$string_output_adapter@_W@__crt_stdio_output@@V?$standard_base@_WV?$string_output_adapter@_W@__crt_stdio_output@@@2@@__crt_stdio_output@@AEAA_NXZ 000000018001e26c f i libucrt:output.obj
 0001:0001d334       ?write_stored_string_tchar@?$output_processor@_WV?$stream_output_adapter@_W@__crt_stdio_output@@V?$standard_base@_WV?$stream_output_adapter@_W@__crt_stdio_output@@@2@@__crt_stdio_output@@AEAA_N_W@Z 000000018001e334 f i libucrt:output.obj
 0001:0001d420       ?write_stored_string_tchar@?$output_processor@_WV?$string_output_adapter@_W@__crt_stdio_output@@V?$standard_base@_WV?$string_output_adapter@_W@__crt_stdio_output@@@2@@__crt_stdio_output@@AEAA_N_W@Z 000000018001e420 f i libucrt:output.obj
 0001:0001d510       ?write_string@?$stream_output_adapter@_W@__crt_stdio_output@@QEBAXQEB_WHQEAH1@Z 000000018001e510 f i libucrt:output.obj
 0001:0001d61c       ?write_string@?$string_output_adapter@_W@__crt_stdio_output@@QEBAXQEB_WHQEAH1@Z 000000018001e61c f i libucrt:output.obj
 0001:0001d6dc       __stdio_common_vfwprintf   000000018001e6dc f   libucrt:output.obj
 0001:0001d768       __stdio_common_vswprintf   000000018001e768 f   libucrt:output.obj
 0001:0001d9a0       ??$is_overflow_condition@K@__crt_strtox@@YA_NIK@Z 000000018001e9a0 f i libucrt:atox.obj
 0001:0001d9cc       ??$parse_integer@KV?$c_string_character_source@_W@__crt_strtox@@@__crt_strtox@@YAKQEAU__crt_locale_pointers@@V?$c_string_character_source@_W@0@H_N@Z 000000018001e9cc f i libucrt:atox.obj
 0001:0001e0a0       _d_int                     000000018001f0a0 f   libucrt:_test.obj
 0001:0001e1b8       _query_app_type            000000018001f1b8 f   libucrt:report_runtime_error.obj
 0001:0001e1c0       __acrt_errno_from_os_error 000000018001f1c0 f   libucrt:errno.obj
 0001:0001e208       __acrt_errno_map_os_error  000000018001f208 f   libucrt:errno.obj
 0001:0001e258       __doserrno                 000000018001f258 f   libucrt:errno.obj
 0001:0001e278       _errno                     000000018001f278 f   libucrt:errno.obj
 0001:0001e3c0       _itow_s                    000000018001f3c0 f   libucrt:xtoa.obj
 0001:0001e3e0       _set_error_mode            000000018001f3e0 f   libucrt:set_error_mode.obj
 0001:0001e420       wcscat_s                   000000018001f420 f   libucrt:wcscat_s.obj
 0001:0001e4a0       wcscpy_s                   000000018001f4a0 f   libucrt:wcscpy_s.obj
 0001:0001e508       wcsncat_s                  000000018001f508 f   libucrt:wcsncat_s.obj
 0001:0001e630       __acrt_show_wide_message_box 000000018001f630 f   libucrt:crtmbox.obj
 0001:0001e74c       __acrt_initialize_stdio    000000018001f74c f   libucrt:_file.obj
 0001:0001e86c       __acrt_iob_func            000000018001f86c f   libucrt:_file.obj
 0001:0001e880       __acrt_uninitialize_stdio  000000018001f880 f   libucrt:_file.obj
 0001:0001e8dc       _lock_file                 000000018001f8dc f   libucrt:_file.obj
 0001:0001e8e8       _unlock_file               000000018001f8e8 f   libucrt:_file.obj
 0001:0001e8f4       __acrt_stdio_flush_nolock  000000018001f8f4 f   libucrt:fflush.obj
 0001:0001e96c       _fflush_nolock             000000018001f96c f   libucrt:fflush.obj
 0001:0001e9b8       _flushall                  000000018001f9b8 f   libucrt:fflush.obj
 0001:0001eaa8       fflush                     000000018001faa8 f   libucrt:fflush.obj
 0001:0001eaec       ??$?RV<lambda_7a5ef57ff966f610505f1d28a3d40618>@@AEAV<lambda_b721fa326cdb32351d23dfa67958c160>@@V<lambda_5e0fb27672408a07956fe59e48ccb2aa>@@@?$__crt_seh_guarded_call@H@@QEAAH$$QEAV<lambda_7a5ef57ff966f610505f1d28a3d40618>@@AEAV<lambda_b721fa326cdb32351d23dfa67958c160>@@$$QEAV<lambda_5e0fb27672408a07956fe59e48ccb2aa>@@@Z 000000018001faec f i libucrt:setvbuf.obj
 0001:0001ec1c       setvbuf                    000000018001fc1c f   libucrt:setvbuf.obj
 0001:0001ecbc       ??$?RV<lambda_c36588078e9f5dfd39652860aa6b3aaf>@@AEAV<lambda_ec61778202f4f5fc7e7711acc23c3bca>@@V<lambda_dc9d2797ccde5d239b4a0efae8ebd7db>@@@?$__crt_seh_guarded_call@P6AXH@Z@@QEAAP6AXH@Z$$QEAV<lambda_c36588078e9f5dfd39652860aa6b3aaf>@@AEAV<lambda_ec61778202f4f5fc7e7711acc23c3bca>@@$$QEAV<lambda_dc9d2797ccde5d239b4a0efae8ebd7db>@@@Z 000000018001fcbc f i libucrt:signal.obj
 0001:0001ed04       __acrt_get_sigabrt_handler 000000018001fd04 f   libucrt:signal.obj
 0001:0001ed34       __acrt_initialize_signal_handlers 000000018001fd34 f   libucrt:signal.obj
 0001:0001ed54       raise                      000000018001fd54 f   libucrt:signal.obj
 0001:0001eff0       ??$?RV<lambda_46352004c1216016012b18bd6f87e700>@@AEAV<lambda_3bd07e1a1191394380780325891bf33f>@@V<lambda_334532d3f185bcaa59b5be82d7d22bff>@@@?$__crt_seh_guarded_call@X@@QEAAX$$QEAV<lambda_46352004c1216016012b18bd6f87e700>@@AEAV<lambda_3bd07e1a1191394380780325891bf33f>@@$$QEAV<lambda_334532d3f185bcaa59b5be82d7d22bff>@@@Z 000000018001fff0 f i libucrt:per_thread_data.obj
 0001:0001f050       ??$?RV<lambda_5e887d1dcbef67a5eb4283622ba103bf>@@AEAV<lambda_4466841279450cc726390878d4a41900>@@V<lambda_341c25c0346d94847f1f3c463c57e077>@@@?$__crt_seh_guarded_call@X@@QEAAX$$QEAV<lambda_5e887d1dcbef67a5eb4283622ba103bf>@@AEAV<lambda_4466841279450cc726390878d4a41900>@@$$QEAV<lambda_341c25c0346d94847f1f3c463c57e077>@@@Z 0000000180020050 f i libucrt:per_thread_data.obj
 0001:0001f098       ??$?RV<lambda_72d1df2b273a38828b1ce30cbf4cdab5>@@AEAV<lambda_876a65b173b8412d3a47c70a915b0cf4>@@V<lambda_41932305e351933ebe8f8be3ed8bb5dc>@@@?$__crt_seh_guarded_call@X@@QEAAX$$QEAV<lambda_72d1df2b273a38828b1ce30cbf4cdab5>@@AEAV<lambda_876a65b173b8412d3a47c70a915b0cf4>@@$$QEAV<lambda_41932305e351933ebe8f8be3ed8bb5dc>@@@Z 0000000180020098 f i libucrt:per_thread_data.obj
 0001:0001f0d8       ??$?RV<lambda_fb3a7dec4e47f37f22dae91bb15c9095>@@AEAV<lambda_698284760c8add0bfb0756c19673e34b>@@V<lambda_dfb8eca1e75fef3034a8fb18dd509707>@@@?$__crt_seh_guarded_call@X@@QEAAX$$QEAV<lambda_fb3a7dec4e47f37f22dae91bb15c9095>@@AEAV<lambda_698284760c8add0bfb0756c19673e34b>@@$$QEAV<lambda_dfb8eca1e75fef3034a8fb18dd509707>@@@Z 00000001800200d8 f i libucrt:per_thread_data.obj
 0001:0001f368       __acrt_freeptd             0000000180020368 f   libucrt:per_thread_data.obj
 0001:0001f3ac       __acrt_getptd              00000001800203ac f   libucrt:per_thread_data.obj
 0001:0001f440       __acrt_getptd_noexit       0000000180020440 f   libucrt:per_thread_data.obj
 0001:0001f4e0       __acrt_initialize_ptd      00000001800204e0 f   libucrt:per_thread_data.obj
 0001:0001f51c       __acrt_uninitialize_ptd    000000018002051c f   libucrt:per_thread_data.obj
 0001:0001f590       _tolower_l                 0000000180020590 f   libucrt:tolower_toupper.obj
 0001:0001f6d0       tolower                    00000001800206d0 f   libucrt:tolower_toupper.obj
 0001:0001f6fc       __acrt_update_locale_info  00000001800206fc f   libucrt:locale_update.obj
 0001:0001f730       __acrt_update_multibyte_info 0000000180020730 f   libucrt:locale_update.obj
 0001:0001f764       __acrt_set_locale_changed  0000000180020764 f   libucrt:wsetlocale.obj
 0001:0001f770       __acrt_uninitialize_locale 0000000180020770 f   libucrt:wsetlocale.obj
 0001:0001f7b8       __acrt_initialize_locks    00000001800207b8 f   libucrt:locks.obj
 0001:0001f800       __acrt_lock                0000000180020800 f   libucrt:locks.obj
 0001:0001f81c       __acrt_uninitialize_locks  000000018002081c f   libucrt:locks.obj
 0001:0001f854       __acrt_unlock              0000000180020854 f   libucrt:locks.obj
 0001:0001fa10       __acrt_FlsAlloc            0000000180020a10 f   libucrt:winapi_thunks.obj
 0001:0001fa68       __acrt_FlsFree             0000000180020a68 f   libucrt:winapi_thunks.obj
 0001:0001fac0       __acrt_FlsGetValue         0000000180020ac0 f   libucrt:winapi_thunks.obj
 0001:0001fb18       __acrt_FlsSetValue         0000000180020b18 f   libucrt:winapi_thunks.obj
 0001:0001fb80       __acrt_InitializeCriticalSectionEx 0000000180020b80 f   libucrt:winapi_thunks.obj
 0001:0001fbf8       __acrt_LCMapStringEx       0000000180020bf8 f   libucrt:winapi_thunks.obj
 0001:0001fce8       __acrt_LocaleNameToLCID    0000000180020ce8 f   libucrt:winapi_thunks.obj
 0001:0001fd50       __acrt_MessageBoxW         0000000180020d50 f   libucrt:winapi_thunks.obj
 0001:0001fdd8       __acrt_can_show_message_box 0000000180020dd8 f   libucrt:winapi_thunks.obj
 0001:0001fe34       __acrt_get_parent_window   0000000180020e34 f   libucrt:winapi_thunks.obj
 0001:0001fec4       __acrt_initialize_winapi_thunks 0000000180020ec4 f   libucrt:winapi_thunks.obj
 0001:0001fefc       __acrt_is_interactive      0000000180020efc f   libucrt:winapi_thunks.obj
 0001:0001ffd0       __acrt_is_packaged_app     0000000180020fd0 f   libucrt:winapi_thunks.obj
 0001:00020058       __acrt_uninitialize_winapi_thunks 0000000180021058 f   libucrt:winapi_thunks.obj
 0001:00020578       ?expand_if_necessary@?$argument_list@D@?A0xca0879c4@@AEAAHXZ 0000000180021578 f i libucrt:argv_wildcards.obj
 0001:00020640       __acrt_expand_narrow_argv_wildcards 0000000180021640 f   libucrt:argv_wildcards.obj
 0001:00020648       ??$?RV<lambda_99476a1ad63dd22509b5d3e65b0ffc95>@@AEAV<lambda_ad1ced32f4ac17aa236e5ef05d6b3b7c>@@V<lambda_f7424dd8d45958661754dc4f2697e9c3>@@@?$__crt_seh_guarded_call@X@@QEAAX$$QEAV<lambda_99476a1ad63dd22509b5d3e65b0ffc95>@@AEAV<lambda_ad1ced32f4ac17aa236e5ef05d6b3b7c>@@$$QEAV<lambda_f7424dd8d45958661754dc4f2697e9c3>@@@Z 0000000180021648 f i libucrt:mbctype.obj
 0001:00020d44       __acrt_initialize_multibyte 0000000180021d44 f   libucrt:mbctype.obj
 0001:00020d6c       __acrt_update_thread_multibyte_data 0000000180021d6c f   libucrt:mbctype.obj
 0001:00020e2c       _setmbcp_nolock            0000000180021e2c f   libucrt:mbctype.obj
 0001:0002114c       _ismbblead                 000000018002214c f   libucrt:ismbbyte.obj
 0001:00021160       __acrt_initialize_command_line 0000000180022160 f   libucrt:argv_data.obj
 0001:00021188       __acrt_uninitialize_command_line 0000000180022188 f   libucrt:argv_data.obj
 0001:0002118c       __dcrt_get_narrow_environment_from_os 000000018002218c f   libucrt:get_environment_from_os.obj
 0001:00021290       _recalloc                  0000000180022290 f   libucrt:recalloc.obj
 0001:00021298       _recalloc_base             0000000180022298 f   libucrt:recalloc.obj
 0001:00021330       __acrt_initialize_heap     0000000180022330 f   libucrt:heap_handle.obj
 0001:0002134c       __acrt_uninitialize_heap   000000018002234c f   libucrt:heap_handle.obj
 0001:00021540       __acrt_initialize_lowio    0000000180022540 f   libucrt:ioinit.obj
 0001:0002157c       __acrt_uninitialize_lowio  000000018002257c f   libucrt:ioinit.obj
 0001:000215bc       __acrt_execute_initializers 00000001800225bc f   libucrt:shared_initialization.obj
 0001:00021650       __acrt_execute_uninitializers 0000000180022650 f   libucrt:shared_initialization.obj
 0001:000216a0       __acrt_has_user_matherr    00000001800226a0 f   libucrt:matherr.obj
 0001:000216c0       __acrt_initialize_user_matherr 00000001800226c0 f   libucrt:matherr.obj
 0001:000216c8       __acrt_invoke_user_matherr 00000001800226c8 f   libucrt:matherr.obj
 0001:00021710       __acrt_stdio_begin_temporary_buffering_nolock 0000000180022710 f   libucrt:_sftbuf.obj
 0001:000217e0       __acrt_stdio_end_temporary_buffering_nolock 00000001800227e0 f   libucrt:_sftbuf.obj
 0001:0002181c       _query_new_mode            000000018002281c f   libucrt:new_mode.obj
 0001:00021824       isdigit                    0000000180022824 f i libucrt:_ctype.obj
 0001:00021898       ??$make_c_string_character_source@_WPEAPEA_W@__crt_strtox@@YA?AV?$c_string_character_source@_W@0@QEB_WQEAPEA_W@Z 0000000180022898 f i libucrt:strtox.obj
 0001:000218ac       wcstol                     00000001800228ac f   libucrt:strtox.obj
 0001:000218dc       _mbtowc_l                  00000001800228dc f   libucrt:mbtowc.obj
 0001:00021a24       mbtowc                     0000000180022a24 f   libucrt:mbtowc.obj
 0001:00021a2c       _wctomb_s_l                0000000180022a2c f   libucrt:wctomb.obj
 0001:00021bb0       wctomb_s                   0000000180022bb0 f   libucrt:wctomb.obj
 0001:00021bc4       wcsnlen                    0000000180022bc4 f   libucrt:strnlen.obj
 0001:00021db4       ?__acrt_fp_classify@@YA?AW4__acrt_fp_class@@AEBN@Z 0000000180022db4 f i libucrt:cvt.obj
 0001:000227ec       __acrt_fp_format           00000001800237ec f   libucrt:cvt.obj
 0001:00022a30       _fputwc_nolock             0000000180023a30 f   libucrt:fputwc.obj
 0001:00022bac       _fileno                    0000000180023bac f   libucrt:fileno.obj
 0001:00022bd4       _fputc_nolock              0000000180023bd4 f   libucrt:fputc.obj
 0001:00022bec       _get_printf_count_output   0000000180023bec f   libucrt:printf_count_output.obj
 0001:00022c04       __pctype_func              0000000180023c04 f   libucrt:ctype.obj
 0001:00022c34       iswctype                   0000000180023c34 f   libucrt:iswctype.obj
 0001:00022ca4       _isctype_l                 0000000180023ca4 f   libucrt:isctype.obj
 0001:00022db4       _getfpcontrolword          0000000180023db4 f   libucrt:_fenvutils.obj
 0001:00022dcc       _getfpstatusword           0000000180023dcc f   libucrt:_fenvutils.obj
 0001:00022de0       _setfpcontrolword          0000000180023de0 f   libucrt:_fenvutils.obj
 0001:00022dec       _setfpstatusword           0000000180023dec f   libucrt:_fenvutils.obj
 0001:00022e3c       _fcloseall                 0000000180023e3c f   libucrt:closeall.obj
 0001:00022ef0       __acrt_stdio_free_buffer_nolock 0000000180023ef0 f   libucrt:_freebuf.obj
 0001:00022f30       ??$?RV<lambda_b521505b218e5242e90febf6bfebc422>@@AEAV<lambda_6978c1fb23f02e42e1d9e99668cc68aa>@@V<lambda_314360699dd331753a4119843814e9a7>@@@?$__crt_seh_guarded_call@H@@QEAAH$$QEAV<lambda_b521505b218e5242e90febf6bfebc422>@@AEAV<lambda_6978c1fb23f02e42e1d9e99668cc68aa>@@$$QEAV<lambda_314360699dd331753a4119843814e9a7>@@@Z 0000000180023f30 f i libucrt:commit.obj
 0001:00022fbc       _commit                    0000000180023fbc f   libucrt:commit.obj
 0001:000235f0       _write                     00000001800245f0 f   libucrt:write.obj
 0001:000236dc       _write_nolock              00000001800246dc f   libucrt:write.obj
 0001:000239c0       __acrt_add_locale_ref      00000001800249c0 f   libucrt:locale_refcounting.obj
 0001:00023a4c       __acrt_free_locale         0000000180024a4c f   libucrt:locale_refcounting.obj
 0001:00023bc4       __acrt_locale_add_lc_time_reference 0000000180024bc4 f   libucrt:locale_refcounting.obj
 0001:00023bec       __acrt_locale_free_lc_time_if_unreferenced 0000000180024bec f   libucrt:locale_refcounting.obj
 0001:00023c24       __acrt_locale_release_lc_time_reference 0000000180024c24 f   libucrt:locale_refcounting.obj
 0001:00023c4c       __acrt_release_locale_ref  0000000180024c4c f   libucrt:locale_refcounting.obj
 0001:00023cf4       __acrt_update_thread_locale_data 0000000180024cf4 f   libucrt:locale_refcounting.obj
 0001:00023d64       _updatetlocinfoEx_nolock   0000000180024d64 f   libucrt:locale_refcounting.obj
 0001:00023dcc       _isleadbyte_l              0000000180024dcc f i libucrt:_wctype.obj
 0001:00024168       __acrt_LCMapStringA        0000000180025168 f   libucrt:lcmapstringa.obj
 0001:00024200       __acrt_locale_free_monetary 0000000180025200 f   libucrt:initmon.obj
 0001:0002430c       __acrt_locale_free_numeric 000000018002530c f   libucrt:initnum.obj
 0001:000243d0       __acrt_locale_free_time    00000001800253d0 f   libucrt:inittime.obj
 0001:000244d8       __acrt_GetStringTypeA      00000001800254d8 f   libucrt:getstringtypea.obj
 0001:00024754       __acrt_DownlevelLocaleNameToLCID 0000000180025754 f   libucrt:lcidtoname_downlevel.obj
 0001:00024860       qsort                      0000000180025860 f   libucrt:qsort.obj
 0001:00024b94       strncpy_s                  0000000180025b94 f   libucrt:strncpy_s.obj
 0001:00024c68       strpbrk                    0000000180025c68 f   libucrt:strpbrk.obj
 0001:00024d08       _mbsdec                    0000000180025d08 f   libucrt:mbsdec.obj
 0001:00024d10       _mbsdec_l                  0000000180025d10 f   libucrt:mbsdec.obj
 0001:00024dc0       _msize                     0000000180025dc0 f   libucrt:msize.obj
 0001:00024dfc       _realloc_base              0000000180025dfc f   libucrt:realloc_base.obj
 0001:00024e80       __acrt_lowio_create_handle_array 0000000180025e80 f   libucrt:osfinfo.obj
 0001:00024f18       __acrt_lowio_destroy_handle_array 0000000180025f18 f   libucrt:osfinfo.obj
 0001:00024f68       __acrt_lowio_ensure_fh_exists 0000000180025f68 f   libucrt:osfinfo.obj
 0001:00025020       __acrt_lowio_lock_fh       0000000180026020 f   libucrt:osfinfo.obj
 0001:00025044       __acrt_lowio_unlock_fh     0000000180026044 f   libucrt:osfinfo.obj
 0001:00025068       _free_osfhnd               0000000180026068 f   libucrt:osfinfo.obj
 0001:00025124       _get_osfhandle             0000000180026124 f   libucrt:osfinfo.obj
 0001:0002519c       _isatty                    000000018002619c f   libucrt:isatty.obj
 0001:000251fc       __acrt_fp_strflt_to_string 00000001800261fc f   libucrt:_fptostr.obj
 0001:000252c0       ?divide@__crt_strtox@@YA_KAEAUbig_integer@1@AEBU21@@Z 00000001800262c0 f i libucrt:cfout.obj
 0001:00025790       __acrt_fltout              0000000180026790 f   libucrt:cfout.obj
 0001:00026d94       __acrt_stdio_flush_and_write_narrow_nolock 0000000180027d94 f   libucrt:_flsbuf.obj
 0001:00026e7c       __acrt_stdio_flush_and_write_wide_nolock 0000000180027e7c f   libucrt:_flsbuf.obj
 0001:00026f68       _clearfp                   0000000180027f68 f   libucrt:ieee.obj
 0001:00026fbc       _controlfp                 0000000180027fbc f   libucrt:ieee.obj
 0001:00026fc8       _statusfp                  0000000180027fc8 f   libucrt:ieee.obj
 0001:000272c0       _get_fpsr                  00000001800282c0 f   libucrt:fpsr.obj
 0001:000272d0       _set_fpsr                  00000001800282d0 f   libucrt:fpsr.obj
 0001:000272da       _fclrf                     00000001800282da f   libucrt:fpsr.obj
 0001:000272ee       _frnd                      00000001800282ee f   libucrt:fpsr.obj
 0001:00027310       _fclose_nolock             0000000180028310 f   libucrt:fclose.obj
 0001:00027394       fclose                     0000000180028394 f   libucrt:fclose.obj
 0001:0002758c       _lseeki64                  000000018002858c f   libucrt:lseek.obj
 0001:00027594       _lseeki64_nolock           0000000180028594 f   libucrt:lseek.obj
 0001:0002759c       _putwch_nolock             000000018002859c f   libucrt:putwch.obj
 0001:000275f8       __strncnt                  00000001800285f8 f   libucrt:strncnt.obj
 0001:00027610       fegetenv                   0000000180028610 f   libucrt:fegetenv.obj
 0001:00027630       fesetenv                   0000000180028630 f   libucrt:fesetenv.obj
 0001:0002767c       feholdexcept               000000018002867c f   libucrt:feholdexcept.obj
 0001:000276cc       ceil                       00000001800286cc f   libucrt:ceil.obj
 0001:00027790       log10                      0000000180028790 f   libucrt:log10.obj
 0001:00027d3c       __acrt_stdio_allocate_buffer_nolock 0000000180028d3c f   libucrt:_getbuf.obj
 0001:00027da0       ??$?RV<lambda_bfedae4ebbf01fab1bb6dcc6a9e276e0>@@AEAV<lambda_2fe9b910cf3cbf4a0ab98a02ba45b3ec>@@V<lambda_237c231691f317818eb88cc1d5d642d6>@@@?$__crt_seh_guarded_call@H@@QEAAH$$QEAV<lambda_bfedae4ebbf01fab1bb6dcc6a9e276e0>@@AEAV<lambda_2fe9b910cf3cbf4a0ab98a02ba45b3ec>@@$$QEAV<lambda_237c231691f317818eb88cc1d5d642d6>@@@Z 0000000180028da0 f i libucrt:close.obj
 0001:00027e14       _close                     0000000180028e14 f   libucrt:close.obj
 0001:00027eb8       _close_nolock              0000000180028eb8 f   libucrt:close.obj
 0001:00027f74       ?__acrt_stdio_free_stream@@YAXV__crt_stdio_stream@@@Z 0000000180028f74 f   libucrt:stream.obj
 0001:00027fb8       __dcrt_lowio_initialize_console_output 0000000180028fb8 f   libucrt:initcon.obj
 0001:00027ff4       __dcrt_terminate_console_output 0000000180028ff4 f   libucrt:initcon.obj
 0001:00028138       _handle_error              0000000180029138 f   libucrt:libm_error.obj
 0001:00028260       _handle_nan                0000000180029260 f   libucrt:libm_error.obj
 0001:00028280       __acrt_initialize_fma3     0000000180029280 f   libucrt:fma3_available.obj
 0001:000282f0       _log10_special             00000001800292f0 f   libucrt:log_special.obj
 0001:000283a8       _raise_exc                 00000001800293a8 f   libucrt:fpexcept.obj
 0001:000283d0       _raise_exc_ex              00000001800293d0 f   libucrt:fpexcept.obj
 0001:000286d8       _set_errno_from_matherr    00000001800296d8 f   libucrt:fpexcept.obj
 0001:00028708       _clrfp                     0000000180029708 f   libucrt:fpctrl.obj
 0001:00028728       _ctrlfp                    0000000180029728 f   libucrt:fpctrl.obj
 0001:000287a4       _set_statfp                00000001800297a4 f   libucrt:fpctrl.obj
 0001:000287c4       _statfp                    00000001800297c4 f   libucrt:fpctrl.obj
 0001:000287d6       IsProcessorFeaturePresent  00000001800297d6 f   kernel32:KERNEL32.dll
 0001:000287dc       RtlUnwindEx                00000001800297dc f   kernel32:KERNEL32.dll
 0001:000287e4       ?DloadAcquireSectionWriteAccess@@YAXXZ 00000001800297e4 f i DelayImp:delayhlp.obj
 0001:000288a0       ?DloadGetSRWLockFunctionPointers@@YAEXZ 00000001800298a0 f i DelayImp:delayhlp.obj
 0001:0002893c       ?DloadMakePermanentImageCommit@@YAXPEAX_K@Z 000000018002993c f i DelayImp:delayhlp.obj
 0001:000289d4       ?DloadObtainSection@@YAPEAXPEAK0@Z 00000001800299d4 f i DelayImp:delayhlp.obj
 0001:00028a6c       ?DloadProtectSection@@YAXKPEAK@Z 0000000180029a6c f i DelayImp:delayhlp.obj
 0001:00028afc       ?DloadReleaseSectionWriteAccess@@YAXXZ 0000000180029afc f i DelayImp:delayhlp.obj
 0001:00028ba0       __delayLoadHelper2         0000000180029ba0 f   DelayImp:delayhlp.obj
 0001:00028ea0       _FindPESection             0000000180029ea0 f   LIBCMT:pesect.obj
 0001:00028ef0       _IsNonwritableInCurrentImage 0000000180029ef0 f   LIBCMT:pesect.obj
 0001:00028f40       _ValidateImageBase         0000000180029f40 f   LIBCMT:pesect.obj
 0001:00028f70       __GSHandlerCheck           0000000180029f70 f   LIBCMT:_gshandler_.obj
 0001:00028f90       __GSHandlerCheckCommon     0000000180029f90 f   LIBCMT:_gshandler_.obj
 0001:00029000       _alloca_probe              000000018002a000 f   LIBCMT:_chkstk_.obj
 0001:00029000       __chkstk                   000000018002a000 f   LIBCMT:_chkstk_.obj
 0001:00029070       memcmp                     000000018002a070 f   libvcruntime:memcmp.obj
 0001:00029138       strrchr                    000000018002a138 f   libvcruntime:strrchr.obj
 0001:00029278       __GSHandlerCheck_EH        000000018002a278 f   LIBCMT:gshandlereh.obj
 0001:000292f8       floor                      000000018002a2f8 f   libucrt:floor.obj
 0001:000293c0       _guard_dispatch_icall_nop  000000018002a3c0 f   LIBCMT:_guard_dispatch_.obj
 0002:00000000       __imp_GetModuleHandleA     000000018002c000     kernel32:KERNEL32.dll
 0002:00000008       __imp_VirtualQuery         000000018002c008     kernel32:KERNEL32.dll
 0002:00000010       __imp_VirtualProtect       000000018002c010     kernel32:KERNEL32.dll
 0002:00000018       __imp_GetSystemInfo        000000018002c018     kernel32:KERNEL32.dll
 0002:00000020       __imp_CreateFileW          000000018002c020     kernel32:KERNEL32.dll
 0002:00000028       __imp_SetFilePointerEx     000000018002c028     kernel32:KERNEL32.dll
 0002:00000030       __imp_SetStdHandle         000000018002c030     kernel32:KERNEL32.dll
 0002:00000038       __imp_HeapReAlloc          000000018002c038     kernel32:KERNEL32.dll
 0002:00000040       __imp_HeapSize             000000018002c040     kernel32:KERNEL32.dll
 0002:00000048       __imp_GetConsoleMode       000000018002c048     kernel32:KERNEL32.dll
 0002:00000050       __imp_GetConsoleCP         000000018002c050     kernel32:KERNEL32.dll
 0002:00000058       __imp_FlushFileBuffers     000000018002c058     kernel32:KERNEL32.dll
 0002:00000060       __imp_GetStringTypeW       000000018002c060     kernel32:KERNEL32.dll
 0002:00000068       __imp_GetProcessHeap       000000018002c068     kernel32:KERNEL32.dll
 0002:00000070       __imp_FreeEnvironmentStringsW 000000018002c070     kernel32:KERNEL32.dll
 0002:00000078       __imp_GetEnvironmentStringsW 000000018002c078     kernel32:KERNEL32.dll
 0002:00000080       __imp_GetCommandLineW      000000018002c080     kernel32:KERNEL32.dll
 0002:00000088       __imp_GetCommandLineA      000000018002c088     kernel32:KERNEL32.dll
 0002:00000090       __imp_GetCPInfo            000000018002c090     kernel32:KERNEL32.dll
 0002:00000098       __imp_GetOEMCP             000000018002c098     kernel32:KERNEL32.dll
 0002:000000a0       __imp_IsValidCodePage      000000018002c0a0     kernel32:KERNEL32.dll
 0002:000000a8       __imp_FindNextFileA        000000018002c0a8     kernel32:KERNEL32.dll
 0002:000000b0       __imp_FindFirstFileExA     000000018002c0b0     kernel32:KERNEL32.dll
 0002:000000b8       __imp_FindClose            000000018002c0b8     kernel32:KERNEL32.dll
 0002:000000c0       __imp_LCMapStringW         000000018002c0c0     kernel32:KERNEL32.dll
 0002:000000c8       __imp_GetACP               000000018002c0c8     kernel32:KERNEL32.dll
 0002:000000d0       __imp_CreateThread         000000018002c0d0     kernel32:KERNEL32.dll
 0002:000000d8       __imp_WaitForSingleObjectEx 000000018002c0d8     kernel32:KERNEL32.dll
 0002:000000e0       __imp_CloseHandle          000000018002c0e0     kernel32:KERNEL32.dll
 0002:000000e8       __imp_OutputDebugStringW   000000018002c0e8     kernel32:KERNEL32.dll
 0002:000000f0       __imp_WriteFile            000000018002c0f0     kernel32:KERNEL32.dll
 0002:000000f8       __imp_HeapAlloc            000000018002c0f8     kernel32:KERNEL32.dll
 0002:00000100       __imp_HeapFree             000000018002c100     kernel32:KERNEL32.dll
 0002:00000108       __imp_WideCharToMultiByte  000000018002c108     kernel32:KERNEL32.dll
 0002:00000110       __imp_MultiByteToWideChar  000000018002c110     kernel32:KERNEL32.dll
 0002:00000118       __imp_ExitProcess          000000018002c118     kernel32:KERNEL32.dll
 0002:00000120       __imp_WriteConsoleW        000000018002c120     kernel32:KERNEL32.dll
 0002:00000128       __imp_GetModuleHandleExW   000000018002c128     kernel32:KERNEL32.dll
 0002:00000130       __imp_GetModuleFileNameW   000000018002c130     kernel32:KERNEL32.dll
 0002:00000138       __imp_GetModuleFileNameA   000000018002c138     kernel32:KERNEL32.dll
 0002:00000140       __imp_GetFileType          000000018002c140     kernel32:KERNEL32.dll
 0002:00000148       __imp_GetStdHandle         000000018002c148     kernel32:KERNEL32.dll
 0002:00000150       __imp_LoadLibraryExW       000000018002c150     kernel32:KERNEL32.dll
 0002:00000158       __imp_GetProcAddress       000000018002c158     kernel32:KERNEL32.dll
 0002:00000160       __imp_FreeLibrary          000000018002c160     kernel32:KERNEL32.dll
 0002:00000168       __imp_TlsFree              000000018002c168     kernel32:KERNEL32.dll
 0002:00000170       __imp_TlsSetValue          000000018002c170     kernel32:KERNEL32.dll
 0002:00000178       __imp_TlsGetValue          000000018002c178     kernel32:KERNEL32.dll
 0002:00000180       __imp_TlsAlloc             000000018002c180     kernel32:KERNEL32.dll
 0002:00000188       __imp_InitializeCriticalSectionAndSpinCount 000000018002c188     kernel32:KERNEL32.dll
 0002:00000190       __imp_DeleteCriticalSection 000000018002c190     kernel32:KERNEL32.dll
 0002:00000198       __imp_LeaveCriticalSection 000000018002c198     kernel32:KERNEL32.dll
 0002:000001a0       __imp_EnterCriticalSection 000000018002c1a0     kernel32:KERNEL32.dll
 0002:000001a8       __imp_SetLastError         000000018002c1a8     kernel32:KERNEL32.dll
 0002:000001b0       __imp_GetLastError         000000018002c1b0     kernel32:KERNEL32.dll
 0002:000001b8       __imp_InterlockedFlushSList 000000018002c1b8     kernel32:KERNEL32.dll
 0002:000001c0       __imp_RtlUnwindEx          000000018002c1c0     kernel32:KERNEL32.dll
 0002:000001c8       __imp_RaiseException       000000018002c1c8     kernel32:KERNEL32.dll
 0002:000001d0       __imp_EncodePointer        000000018002c1d0     kernel32:KERNEL32.dll
 0002:000001d8       __imp_RtlPcToFileHeader    000000018002c1d8     kernel32:KERNEL32.dll
 0002:000001e0       __imp_GetModuleHandleW     000000018002c1e0     kernel32:KERNEL32.dll
 0002:000001e8       __imp_GetStartupInfoW      000000018002c1e8     kernel32:KERNEL32.dll
 0002:000001f0       __imp_IsDebuggerPresent    000000018002c1f0     kernel32:KERNEL32.dll
 0002:000001f8       __imp_InitializeSListHead  000000018002c1f8     kernel32:KERNEL32.dll
 0002:00000200       __imp_GetSystemTimeAsFileTime 000000018002c200     kernel32:KERNEL32.dll
 0002:00000208       __imp_GetCurrentThreadId   000000018002c208     kernel32:KERNEL32.dll
 0002:00000210       __imp_GetCurrentProcessId  000000018002c210     kernel32:KERNEL32.dll
 0002:00000218       __imp_QueryPerformanceCounter 000000018002c218     kernel32:KERNEL32.dll
 0002:00000220       __imp_IsProcessorFeaturePresent 000000018002c220     kernel32:KERNEL32.dll
 0002:00000228       __imp_TerminateProcess     000000018002c228     kernel32:KERNEL32.dll
 0002:00000230       __imp_GetCurrentProcess    000000018002c230     kernel32:KERNEL32.dll
 0002:00000238       __imp_SetUnhandledExceptionFilter 000000018002c238     kernel32:KERNEL32.dll
 0002:00000240       __imp_UnhandledExceptionFilter 000000018002c240     kernel32:KERNEL32.dll
 0002:00000248       __imp_RtlVirtualUnwind     000000018002c248     kernel32:KERNEL32.dll
 0002:00000250       __imp_RtlLookupFunctionEntry 000000018002c250     kernel32:KERNEL32.dll
 0002:00000258       __imp_RtlCaptureContext    000000018002c258     kernel32:KERNEL32.dll
 0002:00000260       __imp_LoadLibraryExA       000000018002c260     kernel32:KERNEL32.dll
 0002:00000268       \177KERNEL32_NULL_THUNK_DATA 000000018002c268     kernel32:KERNEL32.dll
 0002:00000270       __imp_g_atomic_int_dec_and_test 000000018002c270     libglib-2.0:dgoks00074.o
 0002:00000278       __imp_g_atomic_int_inc     000000018002c278     libglib-2.0:dgoks00077.o
 0002:00000280       __imp_g_free               000000018002c280     libglib-2.0:dgoks00380.o
 0002:00000288       __imp_g_malloc             000000018002c288     libglib-2.0:dgoks00673.o
 0002:00000290       __imp_g_snprintf           000000018002c290     libglib-2.0:dgoks01081.o
 0002:00000298       __imp_g_stat               000000018002c298     libglib-2.0:dgoks01122.o
 0002:000002a8       __imp_vips_area_unref      000000018002c2a8     libvips:dmrks00870.o
 0002:000002b0       __imp_vips_blob_get_type   000000018002c2b0     libvips:dmrks00939.o
 0002:000002b8       __imp_vips_blob_new        000000018002c2b8     libvips:dmrks00940.o
 0002:000002c0       __imp_vips_cache_get_max   000000018002c2c0     libvips:dmrks00985.o
 0002:000002c8       __imp_vips_cache_get_max_files 000000018002c2c8     libvips:dmrks00986.o
 0002:000002d0       __imp_vips_cache_get_max_mem 000000018002c2d0     libvips:dmrks00987.o
 0002:000002d8       __imp_vips_cache_get_size  000000018002c2d8     libvips:dmrks00988.o
 0002:000002e0       __imp_vips_cache_set_max   000000018002c2e0     libvips:dmrks00996.o
 0002:000002e8       __imp_vips_cache_set_max_files 000000018002c2e8     libvips:dmrks00997.o
 0002:000002f0       __imp_vips_cache_set_max_mem 000000018002c2f0     libvips:dmrks00998.o
 0002:000002f8       __imp_vips_concurrency_get 000000018002c2f8     libvips:dmrks01102.o
 0002:00000300       __imp_vips_concurrency_set 000000018002c300     libvips:dmrks01103.o
 0002:00000308       __imp_vips_enum_from_nick  000000018002c308     libvips:dmrks01175.o
 0002:00000310       __imp_vips_enum_nick       000000018002c310     libvips:dmrks01176.o
 0002:00000318       __imp_vips_error_clear     000000018002c318     libvips:dmrks01186.o
 0002:00000320       __imp_vips_foreign_find_load 000000018002c320     libvips:dmrks01229.o
 0002:00000328       __imp_vips_foreign_find_load_buffer 000000018002c328     libvips:dmrks01230.o
 0002:00000330       __imp_vips_get_tile_size   000000018002c330     libvips:dmrks01338.o
 0002:00000338       __imp_vips_image_remove    000000018002c338     libvips:dmrks01465.o
 0002:00000340       __imp_vips_init            000000018002c340     libvips:dmrks01486.o
 0002:00000348       __imp_vips_interpretation_get_type 000000018002c348     libvips:dmrks01506.o
 0002:00000350       __imp_vips_kernel_get_type 000000018002c350     libvips:dmrks01524.o
 0002:00000358       __imp_vips_operation_boolean_get_type 000000018002c358     libvips:dmrks01662.o
 0002:00000360       __imp_vips_thread_shutdown 000000018002c360     libvips:dmrks01887.o
 0002:00000368       __imp_vips_tracked_get_files 000000018002c368     libvips:dmrks01903.o
 0002:00000370       __imp_vips_tracked_get_mem 000000018002c370     libvips:dmrks01904.o
 0002:00000378       __imp_vips_tracked_get_mem_highwater 000000018002c378     libvips:dmrks01905.o
 0002:00000380       __imp_vips_type_find       000000018002c380     libvips:dmrks01909.o
 0002:00000388       __imp_vips_vector_isenabled 000000018002c388     libvips:dmrks01946.o
 0002:00000390       __imp_vips_vector_set_enabled 000000018002c390     libvips:dmrks01950.o
 0002:00000398       __imp_vips_version         000000018002c398     libvips:dmrks01957.o
 0002:000003a8       __imp_?webpload@VImage@vips@@SA?AV12@PEADPEAVVOption@2@@Z 000000018002c3a8     libvips-cpp:libvips-cpp.dll
 0002:000003b0       __imp_?jpegload_buffer@VImage@vips@@SA?AV12@PEAU_VipsBlob@@PEAVVOption@2@@Z 000000018002c3b0     libvips-cpp:libvips-cpp.dll
 0002:000003b8       __imp_?jpegload@VImage@vips@@SA?AV12@PEADPEAVVOption@2@@Z 000000018002c3b8     libvips-cpp:libvips-cpp.dll
 0002:000003c0       __imp_?unpremultiply@VImage@vips@@QEAA?AV12@PEAVVOption@2@@Z 000000018002c3c0     libvips-cpp:libvips-cpp.dll
 0002:000003c8       __imp_?premultiply@VImage@vips@@QEAA?AV12@PEAVVOption@2@@Z 000000018002c3c8     libvips-cpp:libvips-cpp.dll
 0002:000003d0       __imp_?rot@VImage@vips@@QEAA?AV12@W4VipsAngle@@PEAVVOption@2@@Z 000000018002c3d0     libvips-cpp:libvips-cpp.dll
 0002:000003d8       __imp_?replicate@VImage@vips@@QEAA?AV12@HHPEAVVOption@2@@Z 000000018002c3d8     libvips-cpp:libvips-cpp.dll
 0002:000003e0       __imp_?flip@VImage@vips@@QEAA?AV12@W4VipsDirection@@PEAVVOption@2@@Z 000000018002c3e0     libvips-cpp:libvips-cpp.dll
 0002:000003e8       __imp_?invert@VImage@vips@@QEAA?AV12@PEAVVOption@2@@Z 000000018002c3e8     libvips-cpp:libvips-cpp.dll
 0002:000003f0       __imp_?new_from_image@VImage@vips@@QEAA?AV12@N@Z 000000018002c3f0     libvips-cpp:libvips-cpp.dll
 0002:000003f8       __imp_??0VInterpolate@vips@@QEAA@AEBV01@@Z 000000018002c3f8     libvips-cpp:libvips-cpp.dll
 0002:00000400       __imp_??1VInterpolate@vips@@QEAA@XZ 000000018002c400     libvips-cpp:libvips-cpp.dll
 0002:00000408       __imp_?write_to_memory@VImage@vips@@QEAAPEAXPEA_K@Z 000000018002c408     libvips-cpp:libvips-cpp.dll
 0002:00000410       __imp_?dE00@VImage@vips@@QEAA?AV12@V12@PEAVVOption@2@@Z 000000018002c410     libvips-cpp:libvips-cpp.dll
 0002:00000418       __imp_?what@VError@vips@@UEBAPEBDXZ 000000018002c418     libvips-cpp:libvips-cpp.dll
 0002:00000420       __imp_?bandbool@VImage@vips@@QEAA?AV12@W4VipsOperationBoolean@@PEAVVOption@2@@Z 000000018002c420     libvips-cpp:libvips-cpp.dll
 0002:00000428       __imp_?cast@VImage@vips@@QEAA?AV12@W4VipsBandFormat@@PEAVVOption@2@@Z 000000018002c428     libvips-cpp:libvips-cpp.dll
 0002:00000430       __imp_?flatten@VImage@vips@@QEAA?AV12@PEAVVOption@2@@Z 000000018002c430     libvips-cpp:libvips-cpp.dll
 0002:00000438       __imp_?gamma@VImage@vips@@QEAA?AV12@PEAVVOption@2@@Z 000000018002c438     libvips-cpp:libvips-cpp.dll
 0002:00000440       __imp_?hist_entropy@VImage@vips@@QEAANPEAVVOption@2@@Z 000000018002c440     libvips-cpp:libvips-cpp.dll
 0002:00000448       __imp_?conv@VImage@vips@@QEAA?AV12@V12@PEAVVOption@2@@Z 000000018002c448     libvips-cpp:libvips-cpp.dll
 0002:00000450       __imp_?sharpen@VImage@vips@@QEAA?AV12@PEAVVOption@2@@Z 000000018002c450     libvips-cpp:libvips-cpp.dll
 0002:00000458       __imp_?gaussblur@VImage@vips@@QEAA?AV12@NPEAVVOption@2@@Z 000000018002c458     libvips-cpp:libvips-cpp.dll
 0002:00000460       __imp_??AVImage@vips@@QEAA?AV01@H@Z 000000018002c460     libvips-cpp:libvips-cpp.dll
 0002:00000468       __imp_??Pvips@@YA?AVVImage@0@V10@N@Z 000000018002c468     libvips-cpp:libvips-cpp.dll
 0002:00000470       __imp_?set@VOption@vips@@QEAAPEAV12@PEBDV?$vector@NV?$allocator@N@std@@@std@@@Z 000000018002c470     libvips-cpp:libvips-cpp.dll
 0002:00000478       __imp_?set@VOption@vips@@QEAAPEAV12@PEBD_N@Z 000000018002c478     libvips-cpp:libvips-cpp.dll
 0002:00000480       __imp_??Ovips@@YA?AVVImage@0@V10@N@Z 000000018002c480     libvips-cpp:libvips-cpp.dll
 0002:00000488       __imp_??Nvips@@YA?AVVImage@0@V10@N@Z 000000018002c488     libvips-cpp:libvips-cpp.dll
 0002:00000490       __imp_??Dvips@@YA?AVVImage@0@V10@N@Z 000000018002c490     libvips-cpp:libvips-cpp.dll
 0002:00000498       __imp_??Dvips@@YA?AVVImage@0@NV10@@Z 000000018002c498     libvips-cpp:libvips-cpp.dll
 0002:000004a0       __imp_?bandjoin@VImage@vips@@QEAA?AV12@V12@PEAVVOption@2@@Z 000000018002c4a0     libvips-cpp:libvips-cpp.dll
 0002:000004a8       __imp_??Hvips@@YA?AVVImage@0@V10@0@Z 000000018002c4a8     libvips-cpp:libvips-cpp.dll
 0002:000004b0       __imp_??Ivips@@YA?AVVImage@0@V10@0@Z 000000018002c4b0     libvips-cpp:libvips-cpp.dll
 0002:000004b8       __imp_?width@VImage@vips@@QEAAHXZ 000000018002c4b8     libvips-cpp:libvips-cpp.dll
 0002:000004c0       __imp_?height@VImage@vips@@QEAAHXZ 000000018002c4c0     libvips-cpp:libvips-cpp.dll
 0002:000004c8       __imp_?get_blob@VImage@vips@@QEAAPEBXPEBDPEA_K@Z 000000018002c4c8     libvips-cpp:libvips-cpp.dll
 0002:000004d0       __imp_??0VError@vips@@QEAA@V?$basic_string@DU?$char_traits@D@std@@V?$allocator@D@2@@std@@@Z 000000018002c4d0     libvips-cpp:libvips-cpp.dll
 0002:000004d8       __imp_??1VError@vips@@UEAA@XZ 000000018002c4d8     libvips-cpp:libvips-cpp.dll
 0002:000004e0       __imp_?vipssave@VImage@vips@@QEAAXPEADPEAVVOption@2@@Z 000000018002c4e0     libvips-cpp:libvips-cpp.dll
 0002:000004e8       __imp_?get_image@VImage@vips@@QEAAPEAU_VipsImage@@XZ 000000018002c4e8     libvips-cpp:libvips-cpp.dll
 0002:000004f0       __imp_?bands@VImage@vips@@QEAAHXZ 000000018002c4f0     libvips-cpp:libvips-cpp.dll
 0002:000004f8       __imp_?interpretation@VImage@vips@@QEAA?AW4VipsInterpretation@@XZ 000000018002c4f8     libvips-cpp:libvips-cpp.dll
 0002:00000500       __imp_?tiffsave@VImage@vips@@QEAAXPEADPEAVVOption@2@@Z 000000018002c500     libvips-cpp:libvips-cpp.dll
 0002:00000508       __imp_?set@VImage@vips@@QEAAXPEBDH@Z 000000018002c508     libvips-cpp:libvips-cpp.dll
 0002:00000510       __imp_?set@VImage@vips@@QEAAXPEBDN@Z 000000018002c510     libvips-cpp:libvips-cpp.dll
 0002:00000518       __imp_?set@VImage@vips@@QEAAXPEBD0@Z 000000018002c518     libvips-cpp:libvips-cpp.dll
 0002:00000520       __imp_?get_typeof@VImage@vips@@QEAA_KPEBD@Z 000000018002c520     libvips-cpp:libvips-cpp.dll
 0002:00000528       __imp_?get_int@VImage@vips@@QEAAHPEBD@Z 000000018002c528     libvips-cpp:libvips-cpp.dll
 0002:00000530       __imp_?option@VImage@vips@@SAPEAVVOption@2@XZ 000000018002c530     libvips-cpp:libvips-cpp.dll
 0002:00000538       __imp_?new_from_memory@VImage@vips@@SA?AV12@PEAX_KHHHW4VipsBandFormat@@@Z 000000018002c538     libvips-cpp:libvips-cpp.dll
 0002:00000540       __imp_??0VError@vips@@QEAA@AEBV01@@Z 000000018002c540     libvips-cpp:libvips-cpp.dll
 0002:00000548       __imp_??1VImage@vips@@QEAA@XZ 000000018002c548     libvips-cpp:libvips-cpp.dll
 0002:00000550       __imp_??0VImage@vips@@QEAA@AEBV01@@Z 000000018002c550     libvips-cpp:libvips-cpp.dll
 0002:00000558       __imp_??4VImage@vips@@QEAAAEAV01@$$QEAV01@@Z 000000018002c558     libvips-cpp:libvips-cpp.dll
 0002:00000560       __imp_?new_from_file@VImage@vips@@SA?AV12@PEBDPEAVVOption@2@@Z 000000018002c560     libvips-cpp:libvips-cpp.dll
 0002:00000568       __imp_?new_from_buffer@VImage@vips@@SA?AV12@PEAX_KPEBDPEAVVOption@2@@Z 000000018002c568     libvips-cpp:libvips-cpp.dll
 0002:00000570       __imp_?new_matrix@VImage@vips@@SA?AV12@HH@Z 000000018002c570     libvips-cpp:libvips-cpp.dll
 0002:00000578       __imp_?new_from_image@VImage@vips@@QEAA?AV12@V?$vector@NV?$allocator@N@std@@@std@@@Z 000000018002c578     libvips-cpp:libvips-cpp.dll
 0002:00000580       __imp_?colourspace@VImage@vips@@QEAA?AV12@W4VipsInterpretation@@PEAVVOption@2@@Z 000000018002c580     libvips-cpp:libvips-cpp.dll
 0002:00000588       __imp_??RVImage@vips@@QEAA?AV?$vector@NV?$allocator@N@std@@@std@@HH@Z 000000018002c588     libvips-cpp:libvips-cpp.dll
 0002:00000590       __imp_?set@VOption@vips@@QEAAPEAV12@PEBD0@Z 000000018002c590     libvips-cpp:libvips-cpp.dll
 0002:00000598       __imp_?set@VOption@vips@@QEAAPEAV12@PEBDN@Z 000000018002c598     libvips-cpp:libvips-cpp.dll
 0002:000005a0       __imp_?set@VOption@vips@@QEAAPEAV12@PEBDH@Z 000000018002c5a0     libvips-cpp:libvips-cpp.dll
 0002:000005a8       __imp_?affine@VImage@vips@@QEAA?AV12@V?$vector@NV?$allocator@N@std@@@std@@PEAVVOption@2@@Z 000000018002c5a8     libvips-cpp:libvips-cpp.dll
 0002:000005b0       __imp_?icc_transform@VImage@vips@@QEAA?AV12@PEADPEAVVOption@2@@Z 000000018002c5b0     libvips-cpp:libvips-cpp.dll
 0002:000005b8       __imp_?set@VOption@vips@@QEAAPEAV12@PEBDVVInterpolate@2@@Z 000000018002c5b8     libvips-cpp:libvips-cpp.dll
 0002:000005c0       __imp_?new_from_name@VInterpolate@vips@@SA?AV12@PEBDPEAVVOption@2@@Z 000000018002c5c0     libvips-cpp:libvips-cpp.dll
 0002:000005c8       __imp_?format@VImage@vips@@QEAA?AW4VipsBandFormat@@XZ 000000018002c5c8     libvips-cpp:libvips-cpp.dll
 0002:000005d0       __imp_?linear@VImage@vips@@QEAA?AV12@NNPEAVVOption@2@@Z 000000018002c5d0     libvips-cpp:libvips-cpp.dll
 0002:000005d8       __imp_?fliphor@VImage@vips@@QEAA?AV12@PEAVVOption@2@@Z 000000018002c5d8     libvips-cpp:libvips-cpp.dll
 0002:000005e0       __imp_?flipver@VImage@vips@@QEAA?AV12@PEAVVOption@2@@Z 000000018002c5e0     libvips-cpp:libvips-cpp.dll
 0002:000005e8       __imp_?webpload_buffer@VImage@vips@@SA?AV12@PEAU_VipsBlob@@PEAVVOption@2@@Z 000000018002c5e8     libvips-cpp:libvips-cpp.dll
 0002:000005f0       __imp_?rot90@VImage@vips@@QEAA?AV12@PEAVVOption@2@@Z 000000018002c5f0     libvips-cpp:libvips-cpp.dll
 0002:000005f8       __imp_?dzsave@VImage@vips@@QEAAXPEADPEAVVOption@2@@Z 000000018002c5f8     libvips-cpp:libvips-cpp.dll
 0002:00000600       __imp_?pngsave@VImage@vips@@QEAAXPEADPEAVVOption@2@@Z 000000018002c600     libvips-cpp:libvips-cpp.dll
 0002:00000608       __imp_?pngsave_buffer@VImage@vips@@QEAAPEAU_VipsBlob@@PEAVVOption@2@@Z 000000018002c608     libvips-cpp:libvips-cpp.dll
 0002:00000610       __imp_?jpegsave@VImage@vips@@QEAAXPEADPEAVVOption@2@@Z 000000018002c610     libvips-cpp:libvips-cpp.dll
 0002:00000618       __imp_?median@VImage@vips@@QEAA?AV12@HPEAVVOption@2@@Z 000000018002c618     libvips-cpp:libvips-cpp.dll
 0002:00000620       __imp_?jpegsave_buffer@VImage@vips@@QEAAPEAU_VipsBlob@@PEAVVOption@2@@Z 000000018002c620     libvips-cpp:libvips-cpp.dll
 0002:00000628       __imp_??0VImage@vips@@QEAA@$$QEAV01@@Z 000000018002c628     libvips-cpp:libvips-cpp.dll
 0002:00000630       __imp_??Gvips@@YA?AVVImage@0@V10@V?$vector@NV?$allocator@N@std@@@std@@@Z 000000018002c630     libvips-cpp:libvips-cpp.dll
 0002:00000638       __imp_??Kvips@@YA?AVVImage@0@V10@N@Z 000000018002c638     libvips-cpp:libvips-cpp.dll
 0002:00000640       __imp_?new_matrixv@VImage@vips@@SA?AV12@HHZZ 000000018002c640     libvips-cpp:libvips-cpp.dll
 0002:00000648       __imp_?boolean@VImage@vips@@QEAA?AV12@V12@W4VipsOperationBoolean@@PEAVVOption@2@@Z 000000018002c648     libvips-cpp:libvips-cpp.dll
 0002:00000650       __imp_?abs@VImage@vips@@QEAA?AV12@PEAVVOption@2@@Z 000000018002c650     libvips-cpp:libvips-cpp.dll
 0002:00000658       __imp_?webpsave@VImage@vips@@QEAAXPEADPEAVVOption@2@@Z 000000018002c658     libvips-cpp:libvips-cpp.dll
 0002:00000660       __imp_?min@VImage@vips@@QEAANPEAVVOption@2@@Z 000000018002c660     libvips-cpp:libvips-cpp.dll
 0002:00000668       __imp_??0VImage@vips@@QEAA@XZ 000000018002c668     libvips-cpp:libvips-cpp.dll
 0002:00000670       __imp_?max@VImage@vips@@QEAANPEAVVOption@2@@Z 000000018002c670     libvips-cpp:libvips-cpp.dll
 0002:00000678       __imp_?shrinkh@VImage@vips@@QEAA?AV12@HPEAVVOption@2@@Z 000000018002c678     libvips-cpp:libvips-cpp.dll
 0002:00000680       __imp_?stats@VImage@vips@@QEAA?AV12@PEAVVOption@2@@Z 000000018002c680     libvips-cpp:libvips-cpp.dll
 0002:00000688       __imp_?shrinkv@VImage@vips@@QEAA?AV12@HPEAVVOption@2@@Z 000000018002c688     libvips-cpp:libvips-cpp.dll
 0002:00000690       __imp_?hist_find@VImage@vips@@QEAA?AV12@PEAVVOption@2@@Z 000000018002c690     libvips-cpp:libvips-cpp.dll
 0002:00000698       __imp_?project@VImage@vips@@QEAA?AV12@PEAV12@PEAVVOption@2@@Z 000000018002c698     libvips-cpp:libvips-cpp.dll
 0002:000006a0       __imp_?webpsave_buffer@VImage@vips@@QEAAPEAU_VipsBlob@@PEAVVOption@2@@Z 000000018002c6a0     libvips-cpp:libvips-cpp.dll
 0002:000006a8       __imp_?profile@VImage@vips@@QEAA?AV12@PEAV12@PEAVVOption@2@@Z 000000018002c6a8     libvips-cpp:libvips-cpp.dll
 0002:000006b0       __imp_?copy@VImage@vips@@QEAA?AV12@PEAVVOption@2@@Z 000000018002c6b0     libvips-cpp:libvips-cpp.dll
 0002:000006b8       __imp_?tilecache@VImage@vips@@QEAA?AV12@PEAVVOption@2@@Z 000000018002c6b8     libvips-cpp:libvips-cpp.dll
 0002:000006c0       __imp_?embed@VImage@vips@@QEAA?AV12@HHHHPEAVVOption@2@@Z 000000018002c6c0     libvips-cpp:libvips-cpp.dll
 0002:000006c8       __imp_?xres@VImage@vips@@QEAANXZ 000000018002c6c8     libvips-cpp:libvips-cpp.dll
 0002:000006d0       __imp_?extract_area@VImage@vips@@QEAA?AV12@HHHHPEAVVOption@2@@Z 000000018002c6d0     libvips-cpp:libvips-cpp.dll
 0002:000006d8       __imp_?reduceh@VImage@vips@@QEAA?AV12@NPEAVVOption@2@@Z 000000018002c6d8     libvips-cpp:libvips-cpp.dll
 0002:000006e0       __imp_??Dvips@@YA?AVVImage@0@V10@0@Z 000000018002c6e0     libvips-cpp:libvips-cpp.dll
 0002:000006e8       __imp_?extract_band@VImage@vips@@QEAA?AV12@HPEAVVOption@2@@Z 000000018002c6e8     libvips-cpp:libvips-cpp.dll
 0002:000006f0       __imp_?reducev@VImage@vips@@QEAA?AV12@NPEAVVOption@2@@Z 000000018002c6f0     libvips-cpp:libvips-cpp.dll
 0002:000006f8       \177libvips-cpp_NULL_THUNK_DATA 000000018002c6f8     libvips-cpp:libvips-cpp.dll
 0002:00000700       __guard_check_icall_fptr   000000018002c700     LIBCMT:guard_support.obj
 0002:00000708       __guard_dispatch_icall_fptr 000000018002c708     LIBCMT:guard_support.obj
 0002:00000710       __xc_a                     000000018002c710     LIBCMT:initializers.obj
 0002:00000718       _register_sharp_           000000018002c718     sharp.obj
 0002:00000720       __xc_z                     000000018002c720     LIBCMT:initializers.obj
 0002:00000728       __xi_a                     000000018002c728     LIBCMT:initializers.obj
 0002:00000730       __acrt_stdio_initializer   000000018002c730     libucrt:stdio_initializer.obj
 0002:00000738       __acrt_multibyte_initializer 000000018002c738     libucrt:multibyte_initializer.obj
 0002:00000740       __acrt_tran_fma3_initializer 000000018002c740     libucrt:fma3_initializer.obj
 0002:00000748       __xi_z                     000000018002c748     LIBCMT:initializers.obj
 0002:00000750       __xp_a                     000000018002c750     LIBCMT:initializers.obj
 0002:00000758       __acrt_locale_terminator   000000018002c758     libucrt:locale_initializer.obj
 0002:00000760       __dcrt_console_output_terminator 000000018002c760     libucrt:console_output_initializer.obj
 0002:00000768       __acrt_stdio_terminator    000000018002c768     libucrt:stdio_initializer.obj
 0002:00000770       __xp_z                     000000018002c770     LIBCMT:initializers.obj
 0002:00000778       __xt_a                     000000018002c778     LIBCMT:initializers.obj
 0002:00000780       __xt_z                     000000018002c780     LIBCMT:initializers.obj
 0002:00000790       __sz_node_exe              000000018002c790     node:node.exe
 0002:000007a8       ??_7exception@std@@6B@     000000018002c7a8     libcpmt:xthrow.obj
 0002:000007b8       ??_C@_0BC@EOODALEL@Unknown?5exception?$AA@ 000000018002c7b8     libcpmt:xthrow.obj
 0002:000007d8       ??_7bad_alloc@std@@6B@     000000018002c7d8     libcpmt:xthrow.obj
 0002:000007e8       ??_C@_0P@GHFPNOJB@bad?5allocation?$AA@ 000000018002c7e8     libcpmt:xthrow.obj
 0002:00000800       ??_7logic_error@std@@6B@   000000018002c800     libcpmt:xthrow.obj
 0002:00000818       ??_7length_error@std@@6B@  000000018002c818     libcpmt:xthrow.obj
 0002:00000830       ??_7out_of_range@std@@6B@  000000018002c830     libcpmt:xthrow.obj
 0002:00000848       ??_7bad_function_call@std@@6B@ 000000018002c848     libcpmt:xthrow.obj
 0002:00000858       ??_C@_0BC@DPJNKNAF@bad?5function?5call?$AA@ 000000018002c858     libcpmt:xthrow.obj
 0002:00000878       ??_7type_info@@6B@         000000018002c878     LIBCMT:std_type_info_static.obj
 0002:00000880       _pRawDllMain               000000018002c880     LIBCMT:dll_dllmain.obj
 0002:00000880       _pDefaultRawDllMain        000000018002c880     LIBCMT:dll_dllmain.obj
 0002:000008a0       ??_7bad_array_new_length@std@@6B@ 000000018002c8a0     LIBCMT:throw_bad_alloc.obj
 0002:000008b0       ??_C@_0BF@KINCDENJ@bad?5array?5new?5length?$AA@ 000000018002c8b0     LIBCMT:throw_bad_alloc.obj
 0002:000008c8       _pDestructExceptionObject  000000018002c8c8     libvcruntime:frame.obj
 0002:000008d8       ??_7bad_exception@std@@6B@ 000000018002c8d8     libvcruntime:frame.obj
 0002:000008e8       ??_C@_0O@DPKOEFFH@bad?5exception?$AA@ 000000018002c8e8     libvcruntime:frame.obj
 0002:000009f8       ??_C@_1BC@DNHGCMLG@?$AAa?$AAd?$AAv?$AAa?$AAp?$AAi?$AA3?$AA2?$AA?$AA@ 000000018002c9f8     libvcruntime:winapi_downlevel.obj
 0002:00000a10       ??_C@_1DM@KHCHBNEB@?$AAa?$AAp?$AAi?$AA?9?$AAm?$AAs?$AA?9?$AAw?$AAi?$AAn?$AA?9?$AAc?$AAo?$AAr?$AAe?$AA?9?$AAf?$AAi?$AAb?$AAe?$AAr?$AAs?$AA?9?$AAl?$AA1?$AA?9?$AA1?$AA?9?$AA1?$AA?$AA@ 000000018002ca10     libvcruntime:winapi_downlevel.obj
 0002:00000a50       ??_C@_1DK@LPPGFMPP@?$AAa?$AAp?$AAi?$AA?9?$AAm?$AAs?$AA?9?$AAw?$AAi?$AAn?$AA?9?$AAc?$AAo?$AAr?$AAe?$AA?9?$AAs?$AAy?$AAn?$AAc?$AAh?$AA?9?$AAl?$AA1?$AA?9?$AA2?$AA?9?$AA0?$AA?$AA@ 000000018002ca50     libvcruntime:winapi_downlevel.obj
 0002:00000a90       ??_C@_1BC@GDMECMAK@?$AAk?$AAe?$AAr?$AAn?$AAe?$AAl?$AA3?$AA2?$AA?$AA@ 000000018002ca90     libvcruntime:winapi_downlevel.obj
 0002:00000ab0       ??_C@_08KNHFBNJ@FlsAlloc?$AA@ 000000018002cab0     libvcruntime:winapi_downlevel.obj
 0002:00000ac8       ??_C@_07PEJMOBNF@FlsFree?$AA@ 000000018002cac8     libvcruntime:winapi_downlevel.obj
 0002:00000ad8       ??_C@_0M@GDNOONDI@FlsGetValue?$AA@ 000000018002cad8     libvcruntime:winapi_downlevel.obj
 0002:00000af0       ??_C@_0M@JCPCPOEF@FlsSetValue?$AA@ 000000018002caf0     libvcruntime:winapi_downlevel.obj
 0002:00000b08       ??_C@_0BM@HCFOFFN@InitializeCriticalSectionEx?$AA@ 000000018002cb08     libvcruntime:winapi_downlevel.obj
 0002:00000e50       ??_C@_08EHJDFFNH@__based?$CI?$AA@ 000000018002ce50     libvcruntime:undname.obj
 0002:00000e60       ??_C@_07KOLFKCDI@__cdecl?$AA@ 000000018002ce60     libvcruntime:undname.obj
 0002:00000e68       ??_C@_08GHMPAG@__pascal?$AA@ 000000018002ce68     libvcruntime:undname.obj
 0002:00000e78       ??_C@_09IFJBGAPI@__stdcall?$AA@ 000000018002ce78     libvcruntime:undname.obj
 0002:00000e88       ??_C@_0L@NPHFGOKO@__thiscall?$AA@ 000000018002ce88     libvcruntime:undname.obj
 0002:00000e98       ??_C@_0L@JMKHOMEK@__fastcall?$AA@ 000000018002ce98     libvcruntime:undname.obj
 0002:00000ea8       ??_C@_0N@BCKKPABJ@__vectorcall?$AA@ 000000018002cea8     libvcruntime:undname.obj
 0002:00000eb8       ??_C@_09HIJEGCPM@__clrcall?$AA@ 000000018002ceb8     libvcruntime:undname.obj
 0002:00000ec4       ??_C@_06GHPCKEAG@__eabi?$AA@ 000000018002cec4     libvcruntime:undname.obj
 0002:00000ed0       ??_C@_07JOMMBBKO@__ptr64?$AA@ 000000018002ced0     libvcruntime:undname.obj
 0002:00000ed8       ??_C@_0L@PILCLIHE@__restrict?$AA@ 000000018002ced8     libvcruntime:undname.obj
 0002:00000ee8       ??_C@_0M@GFIIJFMG@__unaligned?$AA@ 000000018002cee8     libvcruntime:undname.obj
 0002:00000ef8       ??_C@_09DHDLOLLB@restrict?$CI?$AA@ 000000018002cef8     libvcruntime:undname.obj
 0002:00000f04       ??_C@_04NIHEBCM@?5new?$AA@ 000000018002cf04     libvcruntime:undname.obj
 0002:00000f10       ??_C@_07FPCDHGMM@?5delete?$AA@ 000000018002cf10     libvcruntime:undname.obj
 0002:00000f18       ??_C@_02GPIOPFAK@?$DO?$DO?$AA@ 000000018002cf18     libvcruntime:undname.obj
 0002:00000f1c       ??_C@_02FODMEDOG@?$DM?$DM?$AA@ 000000018002cf1c     libvcruntime:undname.obj
 0002:00000f20       ??_C@_01DCLJPIOD@?$CB?$AA@ 000000018002cf20     libvcruntime:undname.obj
 0002:00000f24       ??_C@_02EGOFBIJA@?$DN?$DN?$AA@ 000000018002cf24     libvcruntime:undname.obj
 0002:00000f28       ??_C@_02FDNJECIE@?$CB?$DN?$AA@ 000000018002cf28     libvcruntime:undname.obj
 0002:00000f2c       ??_C@_02GPECMEKF@?$FL?$FN?$AA@ 000000018002cf2c     libvcruntime:undname.obj
 0002:00000f30       ??_C@_08LHJFAFGD@operator?$AA@ 000000018002cf30     libvcruntime:undname.obj
 0002:00000f3c       ??_C@_02HBOOOICD@?9?$DO?$AA@ 000000018002cf3c     libvcruntime:undname.obj
 0002:00000f40       ??_C@_01NBENCBCI@?$CK?$AA@ 000000018002cf40     libvcruntime:undname.obj
 0002:00000f44       ??_C@_02ECNGHCIF@?$CL?$CL?$AA@ 000000018002cf44     libvcruntime:undname.obj
 0002:00000f48       ??_C@_02BAABKJLB@?9?9?$AA@ 000000018002cf48     libvcruntime:undname.obj
 0002:00000f4c       ??_C@_01JOAMLHOP@?9?$AA@   000000018002cf4c     libvcruntime:undname.obj
 0002:00000f50       ??_C@_01MIFGBAGJ@?$CL?$AA@ 000000018002cf50     libvcruntime:undname.obj
 0002:00000f54       ??_C@_01HNPIGOCE@?$CG?$AA@ 000000018002cf54     libvcruntime:undname.obj
 0002:00000f58       ??_C@_03MNHNFDLC@?9?$DO?$CK?$AA@ 000000018002cf58     libvcruntime:undname.obj
 0002:00000f5c       ??_C@_01KMDKNFGN@?1?$AA@   000000018002cf5c     libvcruntime:undname.obj
 0002:00000f60       ??_C@_01FGNFDNOH@?$CF?$AA@ 000000018002cf60     libvcruntime:undname.obj
 0002:00000f64       ??_C@_01MNNFJEPP@?$DM?$AA@ 000000018002cf64     libvcruntime:undname.obj
 0002:00000f68       ??_C@_02EHCHHCKH@?$DM?$DN?$AA@ 000000018002cf68     libvcruntime:undname.obj
 0002:00000f6c       ??_C@_01PPODPGHN@?$DO?$AA@ 000000018002cf6c     libvcruntime:undname.obj
 0002:00000f70       ??_C@_02EEKDKGMJ@?$DO?$DN?$AA@ 000000018002cf70     libvcruntime:undname.obj
 0002:00000f74       ??_C@_02HCKGKOFO@?$CI?$CJ?$AA@ 000000018002cf74     libvcruntime:undname.obj
 0002:00000f78       ??_C@_01PJKLJHI@?$HO?$AA@  000000018002cf78     libvcruntime:undname.obj
 0002:00000f7c       ??_C@_01JKBOJNNK@?$FO?$AA@ 000000018002cf7c     libvcruntime:undname.obj
 0002:00000f80       ??_C@_01DNKMNLPK@?$HM?$AA@ 000000018002cf80     libvcruntime:undname.obj
 0002:00000f84       ??_C@_02PPKAJPJL@?$CG?$CG?$AA@ 000000018002cf84     libvcruntime:undname.obj
 0002:00000f88       ??_C@_02NONPIBCD@?$HM?$HM?$AA@ 000000018002cf88     libvcruntime:undname.obj
 0002:00000f8c       ??_C@_02FPIMKNGF@?$CK?$DN?$AA@ 000000018002cf8c     libvcruntime:undname.obj
 0002:00000f90       ??_C@_02FOEOMHFC@?$CL?$DN?$AA@ 000000018002cf90     libvcruntime:undname.obj
 0002:00000f94       ??_C@_02FKMDLLOA@?9?$DN?$AA@ 000000018002cf94     libvcruntime:undname.obj
 0002:00000f98       ??_C@_02FJEHGPIO@?1?$DN?$AA@ 000000018002cf98     libvcruntime:undname.obj
 0002:00000f9c       ??_C@_02FENAOKFI@?$CF?$DN?$AA@ 000000018002cf9c     libvcruntime:undname.obj
 0002:00000fa0       ??_C@_03IKFCCPFF@?$DO?$DO?$DN?$AA@ 000000018002cfa0     libvcruntime:undname.obj
 0002:00000fa4       ??_C@_03CDNPDDLA@?$DM?$DM?$DN?$AA@ 000000018002cfa4     libvcruntime:undname.obj
 0002:00000fa8       ??_C@_02FGJGFEAB@?$CG?$DN?$AA@ 000000018002cfa8     libvcruntime:undname.obj
 0002:00000fac       ??_C@_02DHLNPPGH@?$HM?$DN?$AA@ 000000018002cfac     libvcruntime:undname.obj
 0002:00000fb0       ??_C@_02MHEGNOJ@?$FO?$DN?$AA@ 000000018002cfb0     libvcruntime:undname.obj
 0002:00000fb8       ??_C@_09IFPLHPGF@?$GAvftable?8?$AA@ 000000018002cfb8     libvcruntime:undname.obj
 0002:00000fc8       ??_C@_09BLBHBJP@?$GAvbtable?8?$AA@ 000000018002cfc8     libvcruntime:undname.obj
 0002:00000fd8       ??_C@_07FEEIOKP@?$GAvcall?8?$AA@ 000000018002cfd8     libvcruntime:undname.obj
 0002:00000fe0       ??_C@_08LLFFHHDJ@?$GAtypeof?8?$AA@ 000000018002cfe0     libvcruntime:undname.obj
 0002:00000ff0       ??_C@_0BF@KDPPACIK@?$GAlocal?5static?5guard?8?$AA@ 000000018002cff0     libvcruntime:undname.obj
 0002:00001008       ??_C@_08OBABFOLI@?$GAstring?8?$AA@ 000000018002d008     libvcruntime:undname.obj
 0002:00001018       ??_C@_0BD@JDLKDPAB@?$GAvbase?5destructor?8?$AA@ 000000018002d018     libvcruntime:undname.obj
 0002:00001030       ??_C@_0BN@DEGPLNFK@?$GAvector?5deleting?5destructor?8?$AA@ 000000018002d030     libvcruntime:undname.obj
 0002:00001050       ??_C@_0BO@OBMKPJIG@?$GAdefault?5constructor?5closure?8?$AA@ 000000018002d050     libvcruntime:undname.obj
 0002:00001070       ??_C@_0BN@IMDCHIKM@?$GAscalar?5deleting?5destructor?8?$AA@ 000000018002d070     libvcruntime:undname.obj
 0002:00001090       ??_C@_0BO@PFGOCPJJ@?$GAvector?5constructor?5iterator?8?$AA@ 000000018002d090     libvcruntime:undname.obj
 0002:000010b0       ??_C@_0BN@LFPFMEDL@?$GAvector?5destructor?5iterator?8?$AA@ 000000018002d0b0     libvcruntime:undname.obj
 0002:000010d0       ??_C@_0CE@IKBNEHA@?$GAvector?5vbase?5constructor?5iterat@ 000000018002d0d0     libvcruntime:undname.obj
 0002:000010f8       ??_C@_0BL@NILFHHPC@?$GAvirtual?5displacement?5map?8?$AA@ 000000018002d0f8     libvcruntime:undname.obj
 0002:00001118       ??_C@_0CB@JONCMFFK@?$GAeh?5vector?5constructor?5iterator?8@ 000000018002d118     libvcruntime:undname.obj
 0002:00001140       ??_C@_0CA@GCEOPDGL@?$GAeh?5vector?5destructor?5iterator?8?$AA@ 000000018002d140     libvcruntime:undname.obj
 0002:00001160       ??_C@_0CH@OOJPLCPH@?$GAeh?5vector?5vbase?5constructor?5ite@ 000000018002d160     libvcruntime:undname.obj
 0002:00001188       ??_C@_0BL@LLKPOHJI@?$GAcopy?5constructor?5closure?8?$AA@ 000000018002d188     libvcruntime:undname.obj
 0002:000011a8       ??_C@_0BA@KBCDOMBN@?$GAudt?5returning?8?$AA@ 000000018002d1a8     libvcruntime:undname.obj
 0002:000011b8       ??_C@_03KLGMFNMG@?$GAEH?$AA@ 000000018002d1b8     libvcruntime:undname.obj
 0002:000011bc       ??_C@_05KHLCHHI@?$GARTTI?$AA@ 000000018002d1bc     libvcruntime:undname.obj
 0002:000011c8       ??_C@_0BA@KKLDJDLB@?$GAlocal?5vftable?8?$AA@ 000000018002d1c8     libvcruntime:undname.obj
 0002:000011d8       ??_C@_0CE@IIHCMGGL@?$GAlocal?5vftable?5constructor?5closu@ 000000018002d1d8     libvcruntime:undname.obj
 0002:000011fc       ??_C@_06FHBGPFGH@?5new?$FL?$FN?$AA@ 000000018002d1fc     libvcruntime:undname.obj
 0002:00001208       ??_C@_09LBNFPBCA@?5delete?$FL?$FN?$AA@ 000000018002d208     libvcruntime:undname.obj
 0002:00001218       ??_C@_0P@HJKNJFNN@?$GAomni?5callsig?8?$AA@ 000000018002d218     libvcruntime:undname.obj
 0002:00001228       ??_C@_0BL@CNOONJFP@?$GAplacement?5delete?5closure?8?$AA@ 000000018002d228     libvcruntime:undname.obj
 0002:00001248       ??_C@_0BN@CKNJLHMB@?$GAplacement?5delete?$FL?$FN?5closure?8?$AA@ 000000018002d248     libvcruntime:undname.obj
 0002:00001268       ??_C@_0CG@CFDHKGGD@?$GAmanaged?5vector?5constructor?5iter@ 000000018002d268     libvcruntime:undname.obj
 0002:00001290       ??_C@_0CF@IMGKMJNO@?$GAmanaged?5vector?5destructor?5itera@ 000000018002d290     libvcruntime:undname.obj
 0002:000012b8       ??_C@_0CG@HLDDJMAG@?$GAeh?5vector?5copy?5constructor?5iter@ 000000018002d2b8     libvcruntime:undname.obj
 0002:000012e0       ??_C@_0CM@FCBBDIGB@?$GAeh?5vector?5vbase?5copy?5constructo@ 000000018002d2e0     libvcruntime:undname.obj
 0002:00001310       ??_C@_0BL@CLIPGLGB@?$GAdynamic?5initializer?5for?5?8?$AA@ 000000018002d310     libvcruntime:undname.obj
 0002:00001330       ??_C@_0CB@PDBIFEP@?$GAdynamic?5atexit?5destructor?5for?5?8@ 000000018002d330     libvcruntime:undname.obj
 0002:00001358       ??_C@_0CD@CGAJBKEJ@?$GAvector?5copy?5constructor?5iterato@ 000000018002d358     libvcruntime:undname.obj
 0002:00001380       ??_C@_0CJ@GJELGAMM@?$GAvector?5vbase?5copy?5constructor?5i@ 000000018002d380     libvcruntime:undname.obj
 0002:000013b0       ??_C@_0CL@FGIJHLCE@?$GAmanaged?5vector?5copy?5constructor@ 000000018002d3b0     libvcruntime:undname.obj
 0002:000013e0       ??_C@_0BM@PMGGMLDN@?$GAlocal?5static?5thread?5guard?8?$AA@ 000000018002d3e0     libvcruntime:undname.obj
 0002:00001400       ??_C@_0N@BDNMDMOL@operator?5?$CC?$CC?5?$AA@ 000000018002d400     libvcruntime:undname.obj
 0002:00001410       ??_C@_0BC@DAFEJGAK@?5Type?5Descriptor?8?$AA@ 000000018002d410     libvcruntime:undname.obj
 0002:00001428       ??_C@_0BM@LDKODKLH@?5Base?5Class?5Descriptor?5at?5?$CI?$AA@ 000000018002d428     libvcruntime:undname.obj
 0002:00001448       ??_C@_0BD@LGICGFMM@?5Base?5Class?5Array?8?$AA@ 000000018002d448     libvcruntime:undname.obj
 0002:00001460       ??_C@_0BN@MECKDCOJ@?5Class?5Hierarchy?5Descriptor?8?$AA@ 000000018002d460     libvcruntime:undname.obj
 0002:00001480       ??_C@_0BK@CFCOFLF@?5Complete?5Object?5Locator?8?$AA@ 000000018002d480     libvcruntime:undname.obj
 0002:000014a0       ??_C@_1EK@MBDPDCGA@?$AAM?$AAi?$AAc?$AAr?$AAo?$AAs?$AAo?$AAf?$AAt?$AA?5?$AAV?$AAi?$AAs?$AAu?$AAa?$AAl?$AA?5?$AAC?$AA?$CL?$AA?$CL?$AA?5?$AAR?$AAu?$AAn?$AAt?$AAi?$AAm?$AAe?$AA?5?$AAL?$AAi?$AAb@ 000000018002d4a0     libucrt:assert.obj
 0002:000014f0       ??_C@_1FE@LHBLIKM@?$AAA?$AAs?$AAs?$AAe?$AAr?$AAt?$AAi?$AAo?$AAn?$AA?5?$AAf?$AAa?$AAi?$AAl?$AAe?$AAd?$AA?3?$AA?5?$AA?$CF?$AAT?$AAs?$AA?0?$AA?5?$AAf?$AAi?$AAl?$AAe?$AA?5?$AA?$CF?$AAT?$AAs?$AA?0@ 000000018002d4f0     libucrt:assert.obj
 0002:00001548       ??_C@_1CE@OJBNHDMO@?$AAA?$AAs?$AAs?$AAe?$AAr?$AAt?$AAi?$AAo?$AAn?$AA?5?$AAf?$AAa?$AAi?$AAl?$AAe?$AAd?$AA?$CB?$AA?$AA@ 000000018002d548     libucrt:assert.obj
 0002:00001570       ??_C@_1BE@PHKBBGE@?$AAP?$AAr?$AAo?$AAg?$AAr?$AAa?$AAm?$AA?3?$AA?5?$AA?$AA@ 000000018002d570     libucrt:assert.obj
 0002:00001588       ??_C@_1O@HEMHKNDC@?$AAF?$AAi?$AAl?$AAe?$AA?3?$AA?5?$AA?$AA@ 000000018002d588     libucrt:assert.obj
 0002:00001598       ??_C@_1O@KCAFKHJE@?$AAL?$AAi?$AAn?$AAe?$AA?3?$AA?5?$AA?$AA@ 000000018002d598     libucrt:assert.obj
 0002:000015a8       ??_C@_1BK@PEDCIPMA@?$AAE?$AAx?$AAp?$AAr?$AAe?$AAs?$AAs?$AAi?$AAo?$AAn?$AA?3?$AA?5?$AA?$AA@ 000000018002d5a8     libucrt:assert.obj
 0002:000015d0       ??_C@_1OA@EGMLFBHJ@?$AAF?$AAo?$AAr?$AA?5?$AAi?$AAn?$AAf?$AAo?$AAr?$AAm?$AAa?$AAt?$AAi?$AAo?$AAn?$AA?5?$AAo?$AAn?$AA?5?$AAh?$AAo?$AAw?$AA?5?$AAy?$AAo?$AAu?$AAr?$AA?5?$AAp?$AAr?$AAo?$AAg@ 000000018002d5d0     libucrt:assert.obj
 0002:000016b0       ??_C@_1HK@POCJMFGK@?$AA?$CI?$AAP?$AAr?$AAe?$AAs?$AAs?$AA?5?$AAR?$AAe?$AAt?$AAr?$AAy?$AA?5?$AAt?$AAo?$AA?5?$AAd?$AAe?$AAb?$AAu?$AAg?$AA?5?$AAt?$AAh?$AAe?$AA?5?$AAa?$AAp?$AAp?$AAl?$AAi?$AAc@ 000000018002d6b0     libucrt:assert.obj
 0002:00001730       ??_C@_17LGKOMLJ@?$AA?4?$AA?4?$AA?4?$AA?$AA@ 000000018002d730     libucrt:assert.obj
 0002:00001738       ??_C@_13LBAGMAIH@?$AA?6?$AA?$AA@ 000000018002d738     libucrt:assert.obj
 0002:0000173c       ??_C@_15IABLJNFO@?$AA?6?$AA?6?$AA?$AA@ 000000018002d73c     libucrt:assert.obj
 0002:00001748       ??_C@_1CO@EAEJAADC@?$AA?$DM?$AAp?$AAr?$AAo?$AAg?$AAr?$AAa?$AAm?$AA?5?$AAn?$AAa?$AAm?$AAe?$AA?5?$AAu?$AAn?$AAk?$AAn?$AAo?$AAw?$AAn?$AA?$DO?$AA?$AA@ 000000018002d748     libucrt:assert.obj
 0002:00001780       __acrt_exception_action_table 000000018002d780     libucrt:exception_filter.obj
 0002:00001840       __acrt_signal_action_table_count 000000018002d840     libucrt:exception_filter.obj
 0002:00001848       __acrt_signal_action_first_fpe_index 000000018002d848     libucrt:exception_filter.obj
 0002:00001850       __acrt_signal_action_fpe_count 000000018002d850     libucrt:exception_filter.obj
 0002:00001858       ??_C@_1BI@BGOHAHKC@?$AAm?$AAs?$AAc?$AAo?$AAr?$AAe?$AAe?$AA?4?$AAd?$AAl?$AAl?$AA?$AA@ 000000018002d858     libucrt:exit.obj
 0002:00001870       ??_C@_0P@MIGLKIOC@CorExitProcess?$AA@ 000000018002d870     libucrt:exit.obj
 0002:00001970       standard_lookup_table      000000018002d970     libucrt:output.obj
 0002:000019cc       ??_C@_06OJHGLDPL@?$CInull?$CJ?$AA@ 000000018002d9cc     libucrt:output.obj
 0002:000019d8       ??_C@_1O@CEDCILHN@?$AA?$CI?$AAn?$AAu?$AAl?$AAl?$AA?$CJ?$AA?$AA@ 000000018002d9d8     libucrt:output.obj
 0002:00001ba0       __lc_time_c                000000018002dba0     libucrt:nlsdata.obj
 0002:00001e60       ??_C@_03KOEHGMDN@Sun?$AA@  000000018002de60     libucrt:nlsdata.obj
 0002:00001e64       ??_C@_03PDAGKDH@Mon?$AA@   000000018002de64     libucrt:nlsdata.obj
 0002:00001e68       ??_C@_03NAGEINEP@Tue?$AA@  000000018002de68     libucrt:nlsdata.obj
 0002:00001e6c       ??_C@_03MHOMLAJA@Wed?$AA@  000000018002de6c     libucrt:nlsdata.obj
 0002:00001e70       ??_C@_03IOFIKPDN@Thu?$AA@  000000018002de70     libucrt:nlsdata.obj
 0002:00001e74       ??_C@_03IDIOELNC@Fri?$AA@  000000018002de74     libucrt:nlsdata.obj
 0002:00001e78       ??_C@_03FEFJNEK@Sat?$AA@   000000018002de78     libucrt:nlsdata.obj
 0002:00001e7c       ??_C@_06OOPIFAJ@Sunday?$AA@ 000000018002de7c     libucrt:nlsdata.obj
 0002:00001e84       ??_C@_06JLEDEDGH@Monday?$AA@ 000000018002de84     libucrt:nlsdata.obj
 0002:00001e90       ??_C@_07BAAGCFCM@Tuesday?$AA@ 000000018002de90     libucrt:nlsdata.obj
 0002:00001e98       ??_C@_09DLIGFAKA@Wednesday?$AA@ 000000018002de98     libucrt:nlsdata.obj
 0002:00001ea8       ??_C@_08HACCIKIA@Thursday?$AA@ 000000018002dea8     libucrt:nlsdata.obj
 0002:00001eb4       ??_C@_06JECMNKMI@Friday?$AA@ 000000018002deb4     libucrt:nlsdata.obj
 0002:00001ec0       ??_C@_08INBOOONO@Saturday?$AA@ 000000018002dec0     libucrt:nlsdata.obj
 0002:00001ecc       ??_C@_03JIHJHPIE@Jan?$AA@  000000018002decc     libucrt:nlsdata.obj
 0002:00001ed0       ??_C@_03HJBDCHOM@Feb?$AA@  000000018002ded0     libucrt:nlsdata.obj
 0002:00001ed4       ??_C@_03ODNJBKGA@Mar?$AA@  000000018002ded4     libucrt:nlsdata.obj
 0002:00001ed8       ??_C@_03LEOLGMJP@Apr?$AA@  000000018002ded8     libucrt:nlsdata.obj
 0002:00001edc       ??_C@_03CNMDKL@May?$AA@    000000018002dedc     libucrt:nlsdata.obj
 0002:00001ee0       ??_C@_03IDFGHECI@Jun?$AA@  000000018002dee0     libucrt:nlsdata.obj
 0002:00001ee4       ??_C@_03LBGABGKK@Jul?$AA@  000000018002dee4     libucrt:nlsdata.obj
 0002:00001ee8       ??_C@_03IFJFEIGA@Aug?$AA@  000000018002dee8     libucrt:nlsdata.obj
 0002:00001eec       ??_C@_03GGCAPAJC@Sep?$AA@  000000018002deec     libucrt:nlsdata.obj
 0002:00001ef0       ??_C@_03BMAOKBAD@Oct?$AA@  000000018002def0     libucrt:nlsdata.obj
 0002:00001ef4       ??_C@_03JPJOFNIA@Nov?$AA@  000000018002def4     libucrt:nlsdata.obj
 0002:00001ef8       ??_C@_03MKABNOCG@Dec?$AA@  000000018002def8     libucrt:nlsdata.obj
 0002:00001f00       ??_C@_07CGJPFGJA@January?$AA@ 000000018002df00     libucrt:nlsdata.obj
 0002:00001f08       ??_C@_08GNJGEPFN@February?$AA@ 000000018002df08     libucrt:nlsdata.obj
 0002:00001f14       ??_C@_05HPCKOFNC@March?$AA@ 000000018002df14     libucrt:nlsdata.obj
 0002:00001f1c       ??_C@_05DMJDNLEJ@April?$AA@ 000000018002df1c     libucrt:nlsdata.obj
 0002:00001f24       ??_C@_04CNLMGBGM@June?$AA@ 000000018002df24     libucrt:nlsdata.obj
 0002:00001f2c       ??_C@_04MIEPOIFP@July?$AA@ 000000018002df2c     libucrt:nlsdata.obj
 0002:00001f34       ??_C@_06LBBHFDDG@August?$AA@ 000000018002df34     libucrt:nlsdata.obj
 0002:00001f40       ??_C@_09BHHEALKD@September?$AA@ 000000018002df40     libucrt:nlsdata.obj
 0002:00001f50       ??_C@_07JJNFCEND@October?$AA@ 000000018002df50     libucrt:nlsdata.obj
 0002:00001f58       ??_C@_08HCHEGEOA@November?$AA@ 000000018002df58     libucrt:nlsdata.obj
 0002:00001f68       ??_C@_08EDHMEBNP@December?$AA@ 000000018002df68     libucrt:nlsdata.obj
 0002:00001f74       ??_C@_02DEDBPAFC@AM?$AA@   000000018002df74     libucrt:nlsdata.obj
 0002:00001f78       ??_C@_02CJNFDJBF@PM?$AA@   000000018002df78     libucrt:nlsdata.obj
 0002:00001f80       ??_C@_08BPBNCDIB@MM?1dd?1yy?$AA@ 000000018002df80     libucrt:nlsdata.obj
 0002:00001f90       ??_C@_0BE@CKGJFCPC@dddd?0?5MMMM?5dd?0?5yyyy?$AA@ 000000018002df90     libucrt:nlsdata.obj
 0002:00001fa8       ??_C@_08JCCMCCIL@HH?3mm?3ss?$AA@ 000000018002dfa8     libucrt:nlsdata.obj
 0002:00001fb8       ??_C@_17MBGCMIPB@?$AAS?$AAu?$AAn?$AA?$AA@ 000000018002dfb8     libucrt:nlsdata.obj
 0002:00001fc0       ??_C@_17KBOMKBF@?$AAM?$AAo?$AAn?$AA?$AA@ 000000018002dfc0     libucrt:nlsdata.obj
 0002:00001fc8       ??_C@_17BMKGEGOJ@?$AAT?$AAu?$AAe?$AA?$AA@ 000000018002dfc8     libucrt:nlsdata.obj
 0002:00001fd0       ??_C@_17CJEDCEPE@?$AAW?$AAe?$AAd?$AA?$AA@ 000000018002dfd0     libucrt:nlsdata.obj
 0002:00001fd8       ??_C@_17PDPHAADD@?$AAT?$AAh?$AAu?$AA?$AA@ 000000018002dfd8     libucrt:nlsdata.obj
 0002:00001fe0       ??_C@_17HFOLPPLP@?$AAF?$AAr?$AAi?$AA?$AA@ 000000018002dfe0     libucrt:nlsdata.obj
 0002:00001fe8       ??_C@_17GGIBDPIH@?$AAS?$AAa?$AAt?$AA?$AA@ 000000018002dfe8     libucrt:nlsdata.obj
 0002:00001ff0       ??_C@_1O@IHNHDHPB@?$AAS?$AAu?$AAn?$AAd?$AAa?$AAy?$AA?$AA@ 000000018002dff0     libucrt:nlsdata.obj
 0002:00002000       ??_C@_1O@MMNBFLIA@?$AAM?$AAo?$AAn?$AAd?$AAa?$AAy?$AA?$AA@ 000000018002e000     libucrt:nlsdata.obj
 0002:00002010       ??_C@_1BA@ENFBFFEK@?$AAT?$AAu?$AAe?$AAs?$AAd?$AAa?$AAy?$AA?$AA@ 000000018002e010     libucrt:nlsdata.obj
 0002:00002020       ??_C@_1BE@EBOGMDOH@?$AAW?$AAe?$AAd?$AAn?$AAe?$AAs?$AAd?$AAa?$AAy?$AA?$AA@ 000000018002e020     libucrt:nlsdata.obj
 0002:00002038       ??_C@_1BC@HHMNLIHE@?$AAT?$AAh?$AAu?$AAr?$AAs?$AAd?$AAa?$AAy?$AA?$AA@ 000000018002e038     libucrt:nlsdata.obj
 0002:00002050       ??_C@_1O@PDICJHAG@?$AAF?$AAr?$AAi?$AAd?$AAa?$AAy?$AA?$AA@ 000000018002e050     libucrt:nlsdata.obj
 0002:00002060       ??_C@_1BC@ENMNNPAJ@?$AAS?$AAa?$AAt?$AAu?$AAr?$AAd?$AAa?$AAy?$AA?$AA@ 000000018002e060     libucrt:nlsdata.obj
 0002:00002078       ??_C@_17DKNBKCHM@?$AAJ?$AAa?$AAn?$AA?$AA@ 000000018002e078     libucrt:nlsdata.obj
 0002:00002080       ??_C@_17LMDJEKJN@?$AAF?$AAe?$AAb?$AA?$AA@ 000000018002e080     libucrt:nlsdata.obj
 0002:00002088       ??_C@_17CKNLEDEC@?$AAM?$AAa?$AAr?$AA?$AA@ 000000018002e088     libucrt:nlsdata.obj
 0002:00002090       ??_C@_17LFPOIHDD@?$AAA?$AAp?$AAr?$AA?$AA@ 000000018002e090     libucrt:nlsdata.obj
 0002:00002098       ??_C@_17PNNKMEED@?$AAM?$AAa?$AAy?$AA?$AA@ 000000018002e098     libucrt:nlsdata.obj
 0002:000020a0       ??_C@_17KCJGOCPB@?$AAJ?$AAu?$AAn?$AA?$AA@ 000000018002e0a0     libucrt:nlsdata.obj
 0002:000020a8       ??_C@_17IJPCKHK@?$AAJ?$AAu?$AAl?$AA?$AA@ 000000018002e0a8     libucrt:nlsdata.obj
 0002:000020b0       ??_C@_17ICPELBCN@?$AAA?$AAu?$AAg?$AA?$AA@ 000000018002e0b0     libucrt:nlsdata.obj
 0002:000020b8       ??_C@_17HCHCOKMG@?$AAS?$AAe?$AAp?$AA?$AA@ 000000018002e0b8     libucrt:nlsdata.obj
 0002:000020c0       ??_C@_17FNLKOI@?$AAO?$AAc?$AAt?$AA?$AA@ 000000018002e0c0     libucrt:nlsdata.obj
 0002:000020c8       ??_C@_17BBDMLCIG@?$AAN?$AAo?$AAv?$AA?$AA@ 000000018002e0c8     libucrt:nlsdata.obj
 0002:000020d0       ??_C@_17EGKACKIF@?$AAD?$AAe?$AAc?$AA?$AA@ 000000018002e0d0     libucrt:nlsdata.obj
 0002:000020d8       ??_C@_1BA@EFMEIEBA@?$AAJ?$AAa?$AAn?$AAu?$AAa?$AAr?$AAy?$AA?$AA@ 000000018002e0d8     libucrt:nlsdata.obj
 0002:000020e8       ??_C@_1BC@JGDDFFAM@?$AAF?$AAe?$AAb?$AAr?$AAu?$AAa?$AAr?$AAy?$AA?$AA@ 000000018002e0e8     libucrt:nlsdata.obj
 0002:00002100       ??_C@_1M@IKEENEDF@?$AAM?$AAa?$AAr?$AAc?$AAh?$AA?$AA@ 000000018002e100     libucrt:nlsdata.obj
 0002:00002110       ??_C@_1M@GJNLMHFD@?$AAA?$AAp?$AAr?$AAi?$AAl?$AA?$AA@ 000000018002e110     libucrt:nlsdata.obj
 0002:00002120       ??_C@_19EPFLPGAP@?$AAJ?$AAu?$AAn?$AAe?$AA?$AA@ 000000018002e120     libucrt:nlsdata.obj
 0002:00002130       ??_C@_19BIFMLPCD@?$AAJ?$AAu?$AAl?$AAy?$AA?$AA@ 000000018002e130     libucrt:nlsdata.obj
 0002:00002140       ??_C@_1O@PAHLKOAC@?$AAA?$AAu?$AAg?$AAu?$AAs?$AAt?$AA?$AA@ 000000018002e140     libucrt:nlsdata.obj
 0002:00002150       ??_C@_1BE@DKAAMBJL@?$AAS?$AAe?$AAp?$AAt?$AAe?$AAm?$AAb?$AAe?$AAr?$AA?$AA@ 000000018002e150     libucrt:nlsdata.obj
 0002:00002168       ??_C@_1BA@EPANDLNG@?$AAO?$AAc?$AAt?$AAo?$AAb?$AAe?$AAr?$AA?$AA@ 000000018002e168     libucrt:nlsdata.obj
 0002:00002178       ??_C@_1BC@BGLIFPF@?$AAN?$AAo?$AAv?$AAe?$AAm?$AAb?$AAe?$AAr?$AA?$AA@ 000000018002e178     libucrt:nlsdata.obj
 0002:00002190       ??_C@_1BC@FEMKIFH@?$AAD?$AAe?$AAc?$AAe?$AAm?$AAb?$AAe?$AAr?$AA?$AA@ 000000018002e190     libucrt:nlsdata.obj
 0002:000021a4       ??_C@_15ODEHAHHF@?$AAA?$AAM?$AA?$AA@ 000000018002e1a4     libucrt:nlsdata.obj
 0002:000021ac       ??_C@_15CLMNNGEL@?$AAP?$AAM?$AA?$AA@ 000000018002e1ac     libucrt:nlsdata.obj
 0002:000021b8       ??_C@_1BC@IEBCMHCM@?$AAM?$AAM?$AA?1?$AAd?$AAd?$AA?1?$AAy?$AAy?$AA?$AA@ 000000018002e1b8     libucrt:nlsdata.obj
 0002:000021d0       ??_C@_1CI@KNAKOEBC@?$AAd?$AAd?$AAd?$AAd?$AA?0?$AA?5?$AAM?$AAM?$AAM?$AAM?$AA?5?$AAd?$AAd?$AA?0?$AA?5?$AAy?$AAy?$AAy?$AAy?$AA?$AA@ 000000018002e1d0     libucrt:nlsdata.obj
 0002:000021f8       ??_C@_1BC@GDGBMEMK@?$AAH?$AAH?$AA?3?$AAm?$AAm?$AA?3?$AAs?$AAs?$AA?$AA@ 000000018002e1f8     libucrt:nlsdata.obj
 0002:00002210       ??_C@_1M@BMHNFIME@?$AAe?$AAn?$AA?9?$AAU?$AAS?$AA?$AA@ 000000018002e210     libucrt:nlsdata.obj
 0002:000022c0       ??_C@_1EG@CNNIPFIM@?$AAa?$AAp?$AAi?$AA?9?$AAm?$AAs?$AA?9?$AAw?$AAi?$AAn?$AA?9?$AAa?$AAp?$AAp?$AAm?$AAo?$AAd?$AAe?$AAl?$AA?9?$AAr?$AAu?$AAn?$AAt?$AAi?$AAm?$AAe?$AA?9?$AAl?$AA1?$AA?9?$AA1@ 000000018002e2c0     libucrt:winapi_thunks.obj
 0002:00002310       ??_C@_1EA@JGEFHKEI@?$AAa?$AAp?$AAi?$AA?9?$AAm?$AAs?$AA?9?$AAw?$AAi?$AAn?$AA?9?$AAc?$AAo?$AAr?$AAe?$AA?9?$AAd?$AAa?$AAt?$AAe?$AAt?$AAi?$AAm?$AAe?$AA?9?$AAl?$AA1?$AA?9?$AA1?$AA?9?$AA1?$AA?$AA@ 000000018002e310     libucrt:winapi_thunks.obj
 0002:00002350       ??_C@_1DI@GCIAAENM@?$AAa?$AAp?$AAi?$AA?9?$AAm?$AAs?$AA?9?$AAw?$AAi?$AAn?$AA?9?$AAc?$AAo?$AAr?$AAe?$AA?9?$AAf?$AAi?$AAl?$AAe?$AA?9?$AAl?$AA2?$AA?9?$AA1?$AA?9?$AA1?$AA?$AA@ 000000018002e350     libucrt:winapi_thunks.obj
 0002:00002390       ??_C@_1EI@MPIAOHOC@?$AAa?$AAp?$AAi?$AA?9?$AAm?$AAs?$AA?9?$AAw?$AAi?$AAn?$AA?9?$AAc?$AAo?$AAr?$AAe?$AA?9?$AAl?$AAo?$AAc?$AAa?$AAl?$AAi?$AAz?$AAa?$AAt?$AAi?$AAo?$AAn?$AA?9?$AAl?$AA1?$AA?9@ 000000018002e390     libucrt:winapi_thunks.obj
 0002:000023e0       ??_C@_1FK@FPHCKFIE@?$AAa?$AAp?$AAi?$AA?9?$AAm?$AAs?$AA?9?$AAw?$AAi?$AAn?$AA?9?$AAc?$AAo?$AAr?$AAe?$AA?9?$AAl?$AAo?$AAc?$AAa?$AAl?$AAi?$AAz?$AAa?$AAt?$AAi?$AAo?$AAn?$AA?9?$AAo?$AAb?$AAs@ 000000018002e3e0     libucrt:winapi_thunks.obj
 0002:00002440       ??_C@_1EM@DILCGIIO@?$AAa?$AAp?$AAi?$AA?9?$AAm?$AAs?$AA?9?$AAw?$AAi?$AAn?$AA?9?$AAc?$AAo?$AAr?$AAe?$AA?9?$AAp?$AAr?$AAo?$AAc?$AAe?$AAs?$AAs?$AAt?$AAh?$AAr?$AAe?$AAa?$AAd?$AAs?$AA?9?$AAl@ 000000018002e440     libucrt:winapi_thunks.obj
 0002:00002490       ??_C@_1DM@LNCGDDPN@?$AAa?$AAp?$AAi?$AA?9?$AAm?$AAs?$AA?9?$AAw?$AAi?$AAn?$AA?9?$AAc?$AAo?$AAr?$AAe?$AA?9?$AAs?$AAt?$AAr?$AAi?$AAn?$AAg?$AA?9?$AAl?$AA1?$AA?9?$AA1?$AA?9?$AA0?$AA?$AA@ 000000018002e490     libucrt:winapi_thunks.obj
 0002:000024d0       ??_C@_1DO@FPAPJEMD@?$AAa?$AAp?$AAi?$AA?9?$AAm?$AAs?$AA?9?$AAw?$AAi?$AAn?$AA?9?$AAc?$AAo?$AAr?$AAe?$AA?9?$AAs?$AAy?$AAs?$AAi?$AAn?$AAf?$AAo?$AA?9?$AAl?$AA1?$AA?9?$AA2?$AA?9?$AA1?$AA?$AA@ 000000018002e4d0     libucrt:winapi_thunks.obj
 0002:00002510       ??_C@_1DK@NDHNAHIO@?$AAa?$AAp?$AAi?$AA?9?$AAm?$AAs?$AA?9?$AAw?$AAi?$AAn?$AA?9?$AAc?$AAo?$AAr?$AAe?$AA?9?$AAw?$AAi?$AAn?$AAr?$AAt?$AA?9?$AAl?$AA1?$AA?9?$AA1?$AA?9?$AA0?$AA?$AA@ 000000018002e510     libucrt:winapi_thunks.obj
 0002:00002550       ??_C@_1DM@KGHDGBCM@?$AAa?$AAp?$AAi?$AA?9?$AAm?$AAs?$AA?9?$AAw?$AAi?$AAn?$AA?9?$AAc?$AAo?$AAr?$AAe?$AA?9?$AAx?$AAs?$AAt?$AAa?$AAt?$AAe?$AA?9?$AAl?$AA2?$AA?9?$AA1?$AA?9?$AA0?$AA?$AA@ 000000018002e550     libucrt:winapi_thunks.obj
 0002:00002590       ??_C@_1EO@IJIOEFOH@?$AAa?$AAp?$AAi?$AA?9?$AAm?$AAs?$AA?9?$AAw?$AAi?$AAn?$AA?9?$AAr?$AAt?$AAc?$AAo?$AAr?$AAe?$AA?9?$AAn?$AAt?$AAu?$AAs?$AAe?$AAr?$AA?9?$AAw?$AAi?$AAn?$AAd?$AAo?$AAw?$AA?9@ 000000018002e590     libucrt:winapi_thunks.obj
 0002:000025e0       ??_C@_1FG@HHGEKANL@?$AAa?$AAp?$AAi?$AA?9?$AAm?$AAs?$AA?9?$AAw?$AAi?$AAn?$AA?9?$AAs?$AAe?$AAc?$AAu?$AAr?$AAi?$AAt?$AAy?$AA?9?$AAs?$AAy?$AAs?$AAt?$AAe?$AAm?$AAf?$AAu?$AAn?$AAc?$AAt?$AAi@ 000000018002e5e0     libucrt:winapi_thunks.obj
 0002:00002640       ??_C@_1FG@NCKKOLKO@?$AAe?$AAx?$AAt?$AA?9?$AAm?$AAs?$AA?9?$AAw?$AAi?$AAn?$AA?9?$AAk?$AAe?$AAr?$AAn?$AAe?$AAl?$AA3?$AA2?$AA?9?$AAp?$AAa?$AAc?$AAk?$AAa?$AAg?$AAe?$AA?9?$AAc?$AAu?$AAr?$AAr@ 000000018002e640     libucrt:winapi_thunks.obj
 0002:000026a0       ??_C@_1EG@DBIOJECG@?$AAe?$AAx?$AAt?$AA?9?$AAm?$AAs?$AA?9?$AAw?$AAi?$AAn?$AA?9?$AAn?$AAt?$AAu?$AAs?$AAe?$AAr?$AA?9?$AAd?$AAi?$AAa?$AAl?$AAo?$AAg?$AAb?$AAo?$AAx?$AA?9?$AAl?$AA1?$AA?9?$AA1@ 000000018002e6a0     libucrt:winapi_thunks.obj
 0002:000026f0       ??_C@_1EO@FIHMJCLF@?$AAe?$AAx?$AAt?$AA?9?$AAm?$AAs?$AA?9?$AAw?$AAi?$AAn?$AA?9?$AAn?$AAt?$AAu?$AAs?$AAe?$AAr?$AA?9?$AAw?$AAi?$AAn?$AAd?$AAo?$AAw?$AAs?$AAt?$AAa?$AAt?$AAi?$AAo?$AAn?$AA?9@ 000000018002e6f0     libucrt:winapi_thunks.obj
 0002:00002740       ??_C@_1O@BCCLBEOE@?$AAu?$AAs?$AAe?$AAr?$AA3?$AA2?$AA?$AA@ 000000018002e740     libucrt:winapi_thunks.obj
 0002:00002778       ??_C@_0BA@HNOPNCHB@GetActiveWindow?$AA@ 000000018002e778     libucrt:winapi_thunks.obj
 0002:00002790       ??_C@_0BE@JOGNEJCI@GetCurrentPackageId?$AA@ 000000018002e790     libucrt:winapi_thunks.obj
 0002:000027b0       ??_C@_0BD@HHGDFDBJ@GetLastActivePopup?$AA@ 000000018002e7b0     libucrt:winapi_thunks.obj
 0002:000027d0       ??_C@_0BI@DFKBFLJE@GetProcessWindowStation?$AA@ 000000018002e7d0     libucrt:winapi_thunks.obj
 0002:000027f0       ??_C@_0BK@DEKFELLI@GetUserObjectInformationW?$AA@ 000000018002e7f0     libucrt:winapi_thunks.obj
 0002:00002820       ??_C@_0O@KKBNKAPF@LCMapStringEx?$AA@ 000000018002e820     libucrt:winapi_thunks.obj
 0002:00002838       ??_C@_0BB@HBDEELFH@LocaleNameToLCID?$AA@ 000000018002e838     libucrt:winapi_thunks.obj
 0002:00002858       ??_C@_0M@CHKKJDAI@MessageBoxA?$AA@ 000000018002e858     libucrt:winapi_thunks.obj
 0002:00002870       ??_C@_0M@DLDCCGNP@MessageBoxW?$AA@ 000000018002e870     libucrt:winapi_thunks.obj
 0002:000028a0       ??_C@_1M@HPNHIDJI@?$AAj?$AAa?$AA?9?$AAJ?$AAP?$AA?$AA@ 000000018002e8a0     libucrt:mbctype.obj
 0002:000028b0       ??_C@_1M@BIBDDEMK@?$AAz?$AAh?$AA?9?$AAC?$AAN?$AA?$AA@ 000000018002e8b0     libucrt:mbctype.obj
 0002:000028c0       ??_C@_1M@JLOOOEGK@?$AAk?$AAo?$AA?9?$AAK?$AAR?$AA?$AA@ 000000018002e8c0     libucrt:mbctype.obj
 0002:000028d0       ??_C@_1M@CLNBBOPM@?$AAz?$AAh?$AA?9?$AAT?$AAW?$AA?$AA@ 000000018002e8d0     libucrt:mbctype.obj
 0002:000028dc       ??_C@_03OEIAHPBN@INF?$AA@  000000018002e8dc     libucrt:cvt.obj
 0002:000028e0       ??_C@_03OJHLLCGB@inf?$AA@  000000018002e8e0     libucrt:cvt.obj
 0002:000028e4       ??_C@_03LKNCIKJB@NAN?$AA@  000000018002e8e4     libucrt:cvt.obj
 0002:000028e8       ??_C@_03LHCJEHON@nan?$AA@  000000018002e8e8     libucrt:cvt.obj
 0002:000028f0       ??_C@_09OFJJIMPC@NAN?$CISNAN?$CJ?$AA@ 000000018002e8f0     libucrt:cvt.obj
 0002:00002900       ??_C@_09IPFBKMDL@nan?$CIsnan?$CJ?$AA@ 000000018002e900     libucrt:cvt.obj
 0002:00002910       ??_C@_08IKHNHAJ@NAN?$CIIND?$CJ?$AA@ 000000018002e910     libucrt:cvt.obj
 0002:00002920       ??_C@_08OFCDMILK@nan?$CIind?$CJ?$AA@ 000000018002e920     libucrt:cvt.obj
 0002:0000292c       ??_C@_05KLBDPFGC@e?$CL000?$AA@ 000000018002e92c     libucrt:cvt.obj
 0002:00002940       __newctype                 000000018002e940     libucrt:ctype.obj
 0002:00002c40       __newclmap                 000000018002ec40     libucrt:ctype.obj
 0002:00002dc0       __newcumap                 000000018002edc0     libucrt:ctype.obj
 0002:00002f40       _wctype                    000000018002ef40     libucrt:ctype.obj
 0002:00003144       ??_C@_15PJPFLCCM@?$AAu?$AAk?$AA?$AA@ 000000018002f144     libucrt:get_qualified_locale.obj
 0002:00003f90       ??_C@_15EMKDOKLE@?$AAa?$AAr?$AA?$AA@ 000000018002ff90     libucrt:lcidtoname_downlevel.obj
 0002:00003f98       ??_C@_15KNPADPLH@?$AAb?$AAg?$AA?$AA@ 000000018002ff98     libucrt:lcidtoname_downlevel.obj
 0002:00003fa0       ??_C@_15EDMHLDMO@?$AAc?$AAa?$AA?$AA@ 000000018002ffa0     libucrt:lcidtoname_downlevel.obj
 0002:00003fa8       ??_C@_1O@BPEAJADD@?$AAz?$AAh?$AA?9?$AAC?$AAH?$AAS?$AA?$AA@ 000000018002ffa8     libucrt:lcidtoname_downlevel.obj
 0002:00003fb8       ??_C@_15LJNHCMNK@?$AAc?$AAs?$AA?$AA@ 000000018002ffb8     libucrt:lcidtoname_downlevel.obj
 0002:00003fc0       ??_C@_15FOMCIDHG@?$AAd?$AAa?$AA?$AA@ 000000018002ffc0     libucrt:lcidtoname_downlevel.obj
 0002:00003fc8       ??_C@_15NBKABECB@?$AAd?$AAe?$AA?$AA@ 000000018002ffc8     libucrt:lcidtoname_downlevel.obj
 0002:00003fd0       ??_C@_15GHPEIIAO@?$AAe?$AAl?$AA?$AA@ 000000018002ffd0     libucrt:lcidtoname_downlevel.obj
 0002:00003fd8       ??_C@_15MNPNEAIF@?$AAe?$AAn?$AA?$AA@ 000000018002ffd8     libucrt:lcidtoname_downlevel.obj
 0002:00003fe0       ??_C@_15GPIOMPMH@?$AAe?$AAs?$AA?$AA@ 000000018002ffe0     libucrt:lcidtoname_downlevel.obj
 0002:00003fe8       ??_C@_15NGLOAKJC@?$AAf?$AAi?$AA?$AA@ 000000018002ffe8     libucrt:lcidtoname_downlevel.obj
 0002:00003ff0       ??_C@_15FBKGNKAM@?$AAf?$AAr?$AA?$AA@ 000000018002fff0     libucrt:lcidtoname_downlevel.obj
 0002:00003ff8       ??_C@_15KGGCNEFK@?$AAh?$AAe?$AA?$AA@ 000000018002fff8     libucrt:lcidtoname_downlevel.obj
 0002:00004000       ??_C@_15PGHLIDMF@?$AAh?$AAu?$AA?$AA@ 0000000180030000     libucrt:lcidtoname_downlevel.obj
 0002:00004008       ??_C@_15BIEMAPLM@?$AAi?$AAs?$AA?$AA@ 0000000180030008     libucrt:lcidtoname_downlevel.obj
 0002:00004010       ??_C@_15IFJLDHAF@?$AAi?$AAt?$AA?$AA@ 0000000180030010     libucrt:lcidtoname_downlevel.obj
 0002:00004018       ??_C@_15GEMIOCAG@?$AAj?$AAa?$AA?$AA@ 0000000180030018     libucrt:lcidtoname_downlevel.obj
 0002:00004020       ??_C@_15EPELEGJA@?$AAk?$AAo?$AA?$AA@ 0000000180030020     libucrt:lcidtoname_downlevel.obj
 0002:00004028       ??_C@_15NDDHIMN@?$AAn?$AAl?$AA?$AA@ 0000000180030028     libucrt:lcidtoname_downlevel.obj
 0002:00004030       ??_C@_15BPIGNHCD@?$AAn?$AAo?$AA?$AA@ 0000000180030030     libucrt:lcidtoname_downlevel.obj
 0002:00004038       ??_C@_15DEOPBLCG@?$AAp?$AAl?$AA?$AA@ 0000000180030038     libucrt:lcidtoname_downlevel.obj
 0002:00004040       ??_C@_15KBECGEFG@?$AAp?$AAt?$AA?$AA@ 0000000180030040     libucrt:lcidtoname_downlevel.obj
 0002:00004048       ??_C@_15GLJCBFMD@?$AAr?$AAo?$AA?$AA@ 0000000180030048     libucrt:lcidtoname_downlevel.obj
 0002:00004050       ??_C@_15FEDGKCDI@?$AAr?$AAu?$AA?$AA@ 0000000180030050     libucrt:lcidtoname_downlevel.obj
 0002:00004058       ??_C@_15GLKMLLHM@?$AAh?$AAr?$AA?$AA@ 0000000180030058     libucrt:lcidtoname_downlevel.obj
 0002:00004060       ??_C@_15CPKMFBDB@?$AAs?$AAk?$AA?$AA@ 0000000180030060     libucrt:lcidtoname_downlevel.obj
 0002:00004068       ??_C@_15BAAIOGMK@?$AAs?$AAq?$AA?$AA@ 0000000180030068     libucrt:lcidtoname_downlevel.obj
 0002:00004070       ??_C@_15INNPNOHD@?$AAs?$AAv?$AA?$AA@ 0000000180030070     libucrt:lcidtoname_downlevel.obj
 0002:00004078       ??_C@_15CABMMOGH@?$AAt?$AAh?$AA?$AA@ 0000000180030078     libucrt:lcidtoname_downlevel.obj
 0002:00004080       ??_C@_15BPLIHJJM@?$AAt?$AAr?$AA?$AA@ 0000000180030080     libucrt:lcidtoname_downlevel.obj
 0002:00004088       ??_C@_15NEOEKKDJ@?$AAu?$AAr?$AA?$AA@ 0000000180030088     libucrt:lcidtoname_downlevel.obj
 0002:00004090       ??_C@_15NFICGAJK@?$AAi?$AAd?$AA?$AA@ 0000000180030090     libucrt:lcidtoname_downlevel.obj
 0002:00004098       ??_C@_15HPJPHDM@?$AAb?$AAe?$AA?$AA@ 0000000180030098     libucrt:lcidtoname_downlevel.obj
 0002:000040a0       ??_C@_15LCHLGJII@?$AAs?$AAl?$AA?$AA@ 00000001800300a0     libucrt:lcidtoname_downlevel.obj
 0002:000040a8       ??_C@_15PCFJPHHO@?$AAe?$AAt?$AA?$AA@ 00000001800300a8     libucrt:lcidtoname_downlevel.obj
 0002:000040b0       ??_C@_15HPFPGODN@?$AAl?$AAv?$AA?$AA@ 00000001800300b0     libucrt:lcidtoname_downlevel.obj
 0002:000040b8       ??_C@_15NFFGKGLG@?$AAl?$AAt?$AA?$AA@ 00000001800300b8     libucrt:lcidtoname_downlevel.obj
 0002:000040c0       ??_C@_15BDAKCCHN@?$AAf?$AAa?$AA?$AA@ 00000001800300c0     libucrt:lcidtoname_downlevel.obj
 0002:000040c8       ??_C@_15NFGIAIAJ@?$AAv?$AAi?$AA?$AA@ 00000001800300c8     libucrt:lcidtoname_downlevel.obj
 0002:000040d0       ??_C@_15LMKNDMHN@?$AAh?$AAy?$AA?$AA@ 00000001800300d0     libucrt:lcidtoname_downlevel.obj
 0002:000040d8       ??_C@_15IJBHMCFL@?$AAa?$AAz?$AA?$AA@ 00000001800300d8     libucrt:lcidtoname_downlevel.obj
 0002:000040e0       ??_C@_15EKOFJABL@?$AAe?$AAu?$AA?$AA@ 00000001800300e0     libucrt:lcidtoname_downlevel.obj
 0002:000040e8       ??_C@_15BGHADCNK@?$AAm?$AAk?$AA?$AA@ 00000001800300e8     libucrt:lcidtoname_downlevel.obj
 0002:000040f0       ??_C@_15JDNICKHM@?$AAa?$AAf?$AA?$AA@ 00000001800300f0     libucrt:lcidtoname_downlevel.obj
 0002:000040f8       ??_C@_15KPJEDBKD@?$AAk?$AAa?$AA?$AA@ 00000001800300f8     libucrt:lcidtoname_downlevel.obj
 0002:00004100       ??_C@_15PDNFFFEO@?$AAf?$AAo?$AA?$AA@ 0000000180030100     libucrt:lcidtoname_downlevel.obj
 0002:00004108       ??_C@_15OMLEGLOC@?$AAh?$AAi?$AA?$AA@ 0000000180030108     libucrt:lcidtoname_downlevel.obj
 0002:00004110       ??_C@_15IDNNENKK@?$AAm?$AAs?$AA?$AA@ 0000000180030110     libucrt:lcidtoname_downlevel.obj
 0002:00004118       ??_C@_15MACJNBMH@?$AAk?$AAk?$AA?$AA@ 0000000180030118     libucrt:lcidtoname_downlevel.obj
 0002:00004120       ??_C@_15DKDJEOND@?$AAk?$AAy?$AA?$AA@ 0000000180030120     libucrt:lcidtoname_downlevel.obj
 0002:00004128       ??_C@_15DFGDLJBG@?$AAs?$AAw?$AA?$AA@ 0000000180030128     libucrt:lcidtoname_downlevel.obj
 0002:00004130       ??_C@_15BBFAICNG@?$AAu?$AAz?$AA?$AA@ 0000000180030130     libucrt:lcidtoname_downlevel.obj
 0002:00004138       ??_C@_15DKNDCGEA@?$AAt?$AAt?$AA?$AA@ 0000000180030138     libucrt:lcidtoname_downlevel.obj
 0002:00004140       ??_C@_15MGIFMDPL@?$AAp?$AAa?$AA?$AA@ 0000000180030140     libucrt:lcidtoname_downlevel.obj
 0002:00004148       ??_C@_15HCNDBBA@?$AAg?$AAu?$AA?$AA@ 0000000180030148     libucrt:lcidtoname_downlevel.obj
 0002:00004150       ??_C@_15FNBEIBON@?$AAt?$AAa?$AA?$AA@ 0000000180030150     libucrt:lcidtoname_downlevel.obj
 0002:00004158       ??_C@_15NCHGBGLK@?$AAt?$AAe?$AA?$AA@ 0000000180030158     libucrt:lcidtoname_downlevel.obj
 0002:00004160       ??_C@_15PHPHCBPF@?$AAk?$AAn?$AA?$AA@ 0000000180030160     libucrt:lcidtoname_downlevel.obj
 0002:00004168       ??_C@_15DLGBCKMP@?$AAm?$AAr?$AA?$AA@ 0000000180030168     libucrt:lcidtoname_downlevel.obj
 0002:00004170       ??_C@_15EABBLBFF@?$AAs?$AAa?$AA?$AA@ 0000000180030170     libucrt:lcidtoname_downlevel.obj
 0002:00004178       ??_C@_15CBKOMCOI@?$AAm?$AAn?$AA?$AA@ 0000000180030178     libucrt:lcidtoname_downlevel.obj
 0002:00004180       ??_C@_15CKDMCJAF@?$AAg?$AAl?$AA?$AA@ 0000000180030180     libucrt:lcidtoname_downlevel.obj
 0002:00004188       ??_C@_17CNJFBPG@?$AAk?$AAo?$AAk?$AA?$AA@ 0000000180030188     libucrt:lcidtoname_downlevel.obj
 0002:00004190       ??_C@_17FFBJICPL@?$AAs?$AAy?$AAr?$AA?$AA@ 0000000180030190     libucrt:lcidtoname_downlevel.obj
 0002:00004198       ??_C@_17KPNDCPAF@?$AAd?$AAi?$AAv?$AA?$AA@ 0000000180030198     libucrt:lcidtoname_downlevel.obj
 0002:000041a0       ??_C@_11LOCGONAA@?$AA?$AA@ 00000001800301a0     libucrt:lcidtoname_downlevel.obj
 0002:000041a8       ??_C@_1M@OKAHONE@?$AAa?$AAr?$AA?9?$AAS?$AAA?$AA?$AA@ 00000001800301a8     libucrt:lcidtoname_downlevel.obj
 0002:000041b8       ??_C@_1M@FFFIGIGK@?$AAb?$AAg?$AA?9?$AAB?$AAG?$AA?$AA@ 00000001800301b8     libucrt:lcidtoname_downlevel.obj
 0002:000041c8       ??_C@_1M@BJNKEDC@?$AAc?$AAa?$AA?9?$AAE?$AAS?$AA?$AA@ 00000001800301c8     libucrt:lcidtoname_downlevel.obj
 0002:000041d8       ??_C@_1M@IJJHFJHA@?$AAc?$AAs?$AA?9?$AAC?$AAZ?$AA?$AA@ 00000001800301d8     libucrt:lcidtoname_downlevel.obj
 0002:000041e8       ??_C@_1M@CLPEOBGI@?$AAd?$AAa?$AA?9?$AAD?$AAK?$AA?$AA@ 00000001800301e8     libucrt:lcidtoname_downlevel.obj
 0002:000041f8       ??_C@_1M@MCMADGCB@?$AAd?$AAe?$AA?9?$AAD?$AAE?$AA?$AA@ 00000001800301f8     libucrt:lcidtoname_downlevel.obj
 0002:00004208       ??_C@_1M@OOCKEMAM@?$AAe?$AAl?$AA?9?$AAG?$AAR?$AA?$AA@ 0000000180030208     libucrt:lcidtoname_downlevel.obj
 0002:00004218       ??_C@_1M@DDNJFGID@?$AAf?$AAi?$AA?9?$AAF?$AAI?$AA?$AA@ 0000000180030218     libucrt:lcidtoname_downlevel.obj
 0002:00004228       ??_C@_1M@GLIPPMAC@?$AAf?$AAr?$AA?9?$AAF?$AAR?$AA?$AA@ 0000000180030228     libucrt:lcidtoname_downlevel.obj
 0002:00004238       ??_C@_1M@GFMCHPE@?$AAh?$AAe?$AA?9?$AAI?$AAL?$AA?$AA@ 0000000180030238     libucrt:lcidtoname_downlevel.obj
 0002:00004248       ??_C@_1M@MHLPGNKM@?$AAh?$AAu?$AA?9?$AAH?$AAU?$AA?$AA@ 0000000180030248     libucrt:lcidtoname_downlevel.obj
 0002:00004258       ??_C@_1M@LPDDNNPN@?$AAi?$AAs?$AA?9?$AAI?$AAS?$AA?$AA@ 0000000180030258     libucrt:lcidtoname_downlevel.obj
 0002:00004268       ??_C@_1M@MADIPODN@?$AAi?$AAt?$AA?9?$AAI?$AAT?$AA?$AA@ 0000000180030268     libucrt:lcidtoname_downlevel.obj
 0002:00004278       ??_C@_1M@IHBJJGG@?$AAn?$AAl?$AA?9?$AAN?$AAL?$AA?$AA@ 0000000180030278     libucrt:lcidtoname_downlevel.obj
 0002:00004288       ??_C@_1M@EANAGDL@?$AAn?$AAb?$AA?9?$AAN?$AAO?$AA?$AA@ 0000000180030288     libucrt:lcidtoname_downlevel.obj
 0002:00004298       ??_C@_1M@NEIEMEGP@?$AAp?$AAl?$AA?9?$AAP?$AAL?$AA?$AA@ 0000000180030298     libucrt:lcidtoname_downlevel.obj
 0002:000042a8       ??_C@_1M@BOCFIGEP@?$AAp?$AAt?$AA?9?$AAB?$AAR?$AA?$AA@ 00000001800302a8     libucrt:lcidtoname_downlevel.obj
 0002:000042b8       ??_C@_1M@IMPFOPBG@?$AAr?$AAo?$AA?9?$AAR?$AAO?$AA?$AA@ 00000001800302b8     libucrt:lcidtoname_downlevel.obj
 0002:000042c8       ??_C@_1M@IDNNEJMM@?$AAr?$AAu?$AA?9?$AAR?$AAU?$AA?$AA@ 00000001800302c8     libucrt:lcidtoname_downlevel.obj
 0002:000042d8       ??_C@_1M@LILEEOGM@?$AAh?$AAr?$AA?9?$AAH?$AAR?$AA?$AA@ 00000001800302d8     libucrt:lcidtoname_downlevel.obj
 0002:000042e8       ??_C@_1M@FKIFEHPB@?$AAs?$AAk?$AA?9?$AAS?$AAK?$AA?$AA@ 00000001800302e8     libucrt:lcidtoname_downlevel.obj
 0002:000042f8       ??_C@_1M@LJMAMNPJ@?$AAs?$AAq?$AA?9?$AAA?$AAL?$AA?$AA@ 00000001800302f8     libucrt:lcidtoname_downlevel.obj
 0002:00004308       ??_C@_1M@GIAKDKJK@?$AAs?$AAv?$AA?9?$AAS?$AAE?$AA?$AA@ 0000000180030308     libucrt:lcidtoname_downlevel.obj
 0002:00004318       ??_C@_1M@MKJKIKCL@?$AAt?$AAh?$AA?9?$AAT?$AAH?$AA?$AA@ 0000000180030318     libucrt:lcidtoname_downlevel.obj
 0002:00004328       ??_C@_1M@MFLCCMPB@?$AAt?$AAr?$AA?9?$AAT?$AAR?$AA?$AA@ 0000000180030328     libucrt:lcidtoname_downlevel.obj
 0002:00004338       ??_C@_1M@OIJHDKJN@?$AAu?$AAr?$AA?9?$AAP?$AAK?$AA?$AA@ 0000000180030338     libucrt:lcidtoname_downlevel.obj
 0002:00004348       ??_C@_1M@LHIPCIEK@?$AAi?$AAd?$AA?9?$AAI?$AAD?$AA?$AA@ 0000000180030348     libucrt:lcidtoname_downlevel.obj
 0002:00004358       ??_C@_1M@MFMOBGI@?$AAu?$AAk?$AA?9?$AAU?$AAA?$AA?$AA@ 0000000180030358     libucrt:lcidtoname_downlevel.obj
 0002:00004368       ??_C@_1M@OBGLJIPL@?$AAb?$AAe?$AA?9?$AAB?$AAY?$AA?$AA@ 0000000180030368     libucrt:lcidtoname_downlevel.obj
 0002:00004378       ??_C@_1M@BCFAJEAD@?$AAs?$AAl?$AA?9?$AAS?$AAI?$AA?$AA@ 0000000180030378     libucrt:lcidtoname_downlevel.obj
 0002:00004388       ??_C@_1M@FKFFEDDN@?$AAe?$AAt?$AA?9?$AAE?$AAE?$AA?$AA@ 0000000180030388     libucrt:lcidtoname_downlevel.obj
 0002:00004398       ??_C@_1M@KGKKAACI@?$AAl?$AAv?$AA?9?$AAL?$AAV?$AA?$AA@ 0000000180030398     libucrt:lcidtoname_downlevel.obj
 0002:000043a8       ??_C@_1M@IFGBIJO@?$AAl?$AAt?$AA?9?$AAL?$AAT?$AA?$AA@ 00000001800303a8     libucrt:lcidtoname_downlevel.obj
 0002:000043b8       ??_C@_1M@FGEAHEDM@?$AAf?$AAa?$AA?9?$AAI?$AAR?$AA?$AA@ 00000001800303b8     libucrt:lcidtoname_downlevel.obj
 0002:000043c8       ??_C@_1M@KBMAIBFN@?$AAv?$AAi?$AA?9?$AAV?$AAN?$AA?$AA@ 00000001800303c8     libucrt:lcidtoname_downlevel.obj
 0002:000043d8       ??_C@_1M@GPCBKDJK@?$AAh?$AAy?$AA?9?$AAA?$AAM?$AA?$AA@ 00000001800303d8     libucrt:lcidtoname_downlevel.obj
 0002:000043e8       ??_C@_1BG@BECMDDJB@?$AAa?$AAz?$AA?9?$AAA?$AAZ?$AA?9?$AAL?$AAa?$AAt?$AAn?$AA?$AA@ 00000001800303e8     libucrt:lcidtoname_downlevel.obj
 0002:00004400       ??_C@_1M@MAOFCAEA@?$AAe?$AAu?$AA?9?$AAE?$AAS?$AA?$AA@ 0000000180030400     libucrt:lcidtoname_downlevel.obj
 0002:00004410       ??_C@_1M@IGHABKPI@?$AAm?$AAk?$AA?9?$AAM?$AAK?$AA?$AA@ 0000000180030410     libucrt:lcidtoname_downlevel.obj
 0002:00004420       ??_C@_1M@IAIGNEJG@?$AAt?$AAn?$AA?9?$AAZ?$AAA?$AA?$AA@ 0000000180030420     libucrt:lcidtoname_downlevel.obj
 0002:00004430       ??_C@_1M@IIJCOJFA@?$AAx?$AAh?$AA?9?$AAZ?$AAA?$AA?$AA@ 0000000180030430     libucrt:lcidtoname_downlevel.obj
 0002:00004440       ??_C@_1M@LGPJHNJH@?$AAz?$AAu?$AA?9?$AAZ?$AAA?$AA?$AA@ 0000000180030440     libucrt:lcidtoname_downlevel.obj
 0002:00004450       ??_C@_1M@HOKAOIO@?$AAa?$AAf?$AA?9?$AAZ?$AAA?$AA?$AA@ 0000000180030450     libucrt:lcidtoname_downlevel.obj
 0002:00004460       ??_C@_1M@DPCLHLIE@?$AAk?$AAa?$AA?9?$AAG?$AAE?$AA?$AA@ 0000000180030460     libucrt:lcidtoname_downlevel.obj
 0002:00004470       ??_C@_1M@BLKMHJBI@?$AAf?$AAo?$AA?9?$AAF?$AAO?$AA?$AA@ 0000000180030470     libucrt:lcidtoname_downlevel.obj
 0002:00004480       ??_C@_1M@LGGJAPPB@?$AAh?$AAi?$AA?9?$AAI?$AAN?$AA?$AA@ 0000000180030480     libucrt:lcidtoname_downlevel.obj
 0002:00004490       ??_C@_1M@FIKPIHFE@?$AAm?$AAt?$AA?9?$AAM?$AAT?$AA?$AA@ 0000000180030490     libucrt:lcidtoname_downlevel.obj
 0002:000044a0       ??_C@_1M@HEGGPBFA@?$AAs?$AAe?$AA?9?$AAN?$AAO?$AA?$AA@ 00000001800304a0     libucrt:lcidtoname_downlevel.obj
 0002:000044b0       ??_C@_1M@EIBJEEPA@?$AAm?$AAs?$AA?9?$AAM?$AAY?$AA?$AA@ 00000001800304b0     libucrt:lcidtoname_downlevel.obj
 0002:000044c0       ??_C@_1M@FHLBGMPP@?$AAk?$AAk?$AA?9?$AAK?$AAZ?$AA?$AA@ 00000001800304c0     libucrt:lcidtoname_downlevel.obj
 0002:000044d0       ??_C@_1M@NGJJLCGI@?$AAk?$AAy?$AA?9?$AAK?$AAG?$AA?$AA@ 00000001800304d0     libucrt:lcidtoname_downlevel.obj
 0002:000044e0       ??_C@_1M@GIENNBFC@?$AAs?$AAw?$AA?9?$AAK?$AAE?$AA?$AA@ 00000001800304e0     libucrt:lcidtoname_downlevel.obj
 0002:000044f0       ??_C@_1BG@NDGMJIMJ@?$AAu?$AAz?$AA?9?$AAU?$AAZ?$AA?9?$AAL?$AAa?$AAt?$AAn?$AA?$AA@ 00000001800304f0     libucrt:lcidtoname_downlevel.obj
 0002:00004508       ??_C@_1M@IDCCIHBC@?$AAt?$AAt?$AA?9?$AAR?$AAU?$AA?$AA@ 0000000180030508     libucrt:lcidtoname_downlevel.obj
 0002:00004518       ??_C@_1M@LOICPMOJ@?$AAb?$AAn?$AA?9?$AAI?$AAN?$AA?$AA@ 0000000180030518     libucrt:lcidtoname_downlevel.obj
 0002:00004528       ??_C@_1M@KPKKNEAH@?$AAp?$AAa?$AA?9?$AAI?$AAN?$AA?$AA@ 0000000180030528     libucrt:lcidtoname_downlevel.obj
 0002:00004538       ??_C@_1M@PJGPPBOG@?$AAg?$AAu?$AA?9?$AAI?$AAN?$AA?$AA@ 0000000180030538     libucrt:lcidtoname_downlevel.obj
 0002:00004548       ??_C@_1M@KMKMOPHI@?$AAt?$AAa?$AA?9?$AAI?$AAN?$AA?$AA@ 0000000180030548     libucrt:lcidtoname_downlevel.obj
 0002:00004558       ??_C@_1M@KFEHEPAC@?$AAt?$AAe?$AA?9?$AAI?$AAN?$AA?$AA@ 0000000180030558     libucrt:lcidtoname_downlevel.obj
 0002:00004568       ??_C@_1M@CDCLMGHI@?$AAk?$AAn?$AA?9?$AAI?$AAN?$AA?$AA@ 0000000180030568     libucrt:lcidtoname_downlevel.obj
 0002:00004578       ??_C@_1M@MIODLDKF@?$AAm?$AAl?$AA?9?$AAI?$AAN?$AA?$AA@ 0000000180030578     libucrt:lcidtoname_downlevel.obj
 0002:00004588       ??_C@_1M@PBIEACPO@?$AAm?$AAr?$AA?9?$AAI?$AAN?$AA?$AA@ 0000000180030588     libucrt:lcidtoname_downlevel.obj
 0002:00004598       ??_C@_1M@NIDEAGPH@?$AAs?$AAa?$AA?9?$AAI?$AAN?$AA?$AA@ 0000000180030598     libucrt:lcidtoname_downlevel.obj
 0002:000045a8       ??_C@_1M@FHIHCBIO@?$AAm?$AAn?$AA?9?$AAM?$AAN?$AA?$AA@ 00000001800305a8     libucrt:lcidtoname_downlevel.obj
 0002:000045b8       ??_C@_1M@JAIJPENP@?$AAc?$AAy?$AA?9?$AAG?$AAB?$AA?$AA@ 00000001800305b8     libucrt:lcidtoname_downlevel.obj
 0002:000045c8       ??_C@_1M@PHGFBEPN@?$AAg?$AAl?$AA?9?$AAE?$AAS?$AA?$AA@ 00000001800305c8     libucrt:lcidtoname_downlevel.obj
 0002:000045d8       ??_C@_1O@KPIPDNCP@?$AAk?$AAo?$AAk?$AA?9?$AAI?$AAN?$AA?$AA@ 00000001800305d8     libucrt:lcidtoname_downlevel.obj
 0002:000045e8       ??_C@_1O@KNHJLDJA@?$AAs?$AAy?$AAr?$AA?9?$AAS?$AAY?$AA?$AA@ 00000001800305e8     libucrt:lcidtoname_downlevel.obj
 0002:000045f8       ??_C@_1O@MKEKBLAH@?$AAd?$AAi?$AAv?$AA?9?$AAM?$AAV?$AA?$AA@ 00000001800305f8     libucrt:lcidtoname_downlevel.obj
 0002:00004608       ??_C@_1O@OHDCKDDF@?$AAq?$AAu?$AAz?$AA?9?$AAB?$AAO?$AA?$AA@ 0000000180030608     libucrt:lcidtoname_downlevel.obj
 0002:00004618       ??_C@_1M@LEPJNLFD@?$AAn?$AAs?$AA?9?$AAZ?$AAA?$AA?$AA@ 0000000180030618     libucrt:lcidtoname_downlevel.obj
 0002:00004628       ??_C@_1M@OMLEIIJB@?$AAm?$AAi?$AA?9?$AAN?$AAZ?$AA?$AA@ 0000000180030628     libucrt:lcidtoname_downlevel.obj
 0002:00004638       ??_C@_1M@PMPEAILG@?$AAa?$AAr?$AA?9?$AAI?$AAQ?$AA?$AA@ 0000000180030638     libucrt:lcidtoname_downlevel.obj
 0002:00004648       ??_C@_1M@CNKPNOEE@?$AAd?$AAe?$AA?9?$AAC?$AAH?$AA?$AA@ 0000000180030648     libucrt:lcidtoname_downlevel.obj
 0002:00004658       ??_C@_1M@LKMGMLKO@?$AAe?$AAn?$AA?9?$AAG?$AAB?$AA?$AA@ 0000000180030658     libucrt:lcidtoname_downlevel.obj
 0002:00004668       ??_C@_1M@PGKJFFGL@?$AAe?$AAs?$AA?9?$AAM?$AAX?$AA?$AA@ 0000000180030668     libucrt:lcidtoname_downlevel.obj
 0002:00004678       ??_C@_1M@DNNANBDC@?$AAf?$AAr?$AA?9?$AAB?$AAE?$AA?$AA@ 0000000180030678     libucrt:lcidtoname_downlevel.obj
 0002:00004688       ??_C@_1M@HLGMDFHM@?$AAi?$AAt?$AA?9?$AAC?$AAH?$AA?$AA@ 0000000180030688     libucrt:lcidtoname_downlevel.obj
 0002:00004698       ??_C@_1M@CLLBGJH@?$AAn?$AAl?$AA?9?$AAB?$AAE?$AA?$AA@ 0000000180030698     libucrt:lcidtoname_downlevel.obj
 0002:000046a8       ??_C@_1M@BODBOGLF@?$AAn?$AAn?$AA?9?$AAN?$AAO?$AA?$AA@ 00000001800306a8     libucrt:lcidtoname_downlevel.obj
 0002:000046b8       ??_C@_1M@HFFAHKAD@?$AAp?$AAt?$AA?9?$AAP?$AAT?$AA?$AA@ 00000001800306b8     libucrt:lcidtoname_downlevel.obj
 0002:000046c8       ??_C@_1BG@LNOAKHIE@?$AAs?$AAr?$AA?9?$AAS?$AAP?$AA?9?$AAL?$AAa?$AAt?$AAn?$AA?$AA@ 00000001800306c8     libucrt:lcidtoname_downlevel.obj
 0002:000046e0       ??_C@_1M@HBMHBGAK@?$AAs?$AAv?$AA?9?$AAF?$AAI?$AA?$AA@ 00000001800306e0     libucrt:lcidtoname_downlevel.obj
 0002:000046f0       ??_C@_1BG@DGCJGJBE@?$AAa?$AAz?$AA?9?$AAA?$AAZ?$AA?9?$AAC?$AAy?$AAr?$AAl?$AA?$AA@ 00000001800306f0     libucrt:lcidtoname_downlevel.obj
 0002:00004708       ??_C@_1M@KEJDAAHB@?$AAs?$AAe?$AA?9?$AAS?$AAE?$AA?$AA@ 0000000180030708     libucrt:lcidtoname_downlevel.obj
 0002:00004718       ??_C@_1M@HEIBJJAD@?$AAm?$AAs?$AA?9?$AAB?$AAN?$AA?$AA@ 0000000180030718     libucrt:lcidtoname_downlevel.obj
 0002:00004728       ??_C@_1BG@PBGJMCEM@?$AAu?$AAz?$AA?9?$AAU?$AAZ?$AA?9?$AAC?$AAy?$AAr?$AAl?$AA?$AA@ 0000000180030728     libucrt:lcidtoname_downlevel.obj
 0002:00004740       ??_C@_1O@LAOBCMDF@?$AAq?$AAu?$AAz?$AA?9?$AAE?$AAC?$AA?$AA@ 0000000180030740     libucrt:lcidtoname_downlevel.obj
 0002:00004750       ??_C@_1M@POEEMAIO@?$AAa?$AAr?$AA?9?$AAE?$AAG?$AA?$AA@ 0000000180030750     libucrt:lcidtoname_downlevel.obj
 0002:00004760       ??_C@_1M@EFAKDEDL@?$AAz?$AAh?$AA?9?$AAH?$AAK?$AA?$AA@ 0000000180030760     libucrt:lcidtoname_downlevel.obj
 0002:00004770       ??_C@_1M@HKKIJHGI@?$AAd?$AAe?$AA?9?$AAA?$AAT?$AA?$AA@ 0000000180030770     libucrt:lcidtoname_downlevel.obj
 0002:00004780       ??_C@_1M@KBFBEHJF@?$AAe?$AAn?$AA?9?$AAA?$AAU?$AA?$AA@ 0000000180030780     libucrt:lcidtoname_downlevel.obj
 0002:00004790       ??_C@_1M@MNPLFAAH@?$AAe?$AAs?$AA?9?$AAE?$AAS?$AA?$AA@ 0000000180030790     libucrt:lcidtoname_downlevel.obj
 0002:000047a0       ??_C@_1M@HJOOJFMA@?$AAf?$AAr?$AA?9?$AAC?$AAA?$AA?$AA@ 00000001800307a0     libucrt:lcidtoname_downlevel.obj
 0002:000047b0       ??_C@_1BG@JPOFPNAB@?$AAs?$AAr?$AA?9?$AAS?$AAP?$AA?9?$AAC?$AAy?$AAr?$AAl?$AA?$AA@ 00000001800307b0     libucrt:lcidtoname_downlevel.obj
 0002:000047c8       ??_C@_1M@LNFOCMOB@?$AAs?$AAe?$AA?9?$AAF?$AAI?$AA?$AA@ 00000001800307c8     libucrt:lcidtoname_downlevel.obj
 0002:000047d8       ??_C@_1O@MGJBOAMB@?$AAq?$AAu?$AAz?$AA?9?$AAP?$AAE?$AA?$AA@ 00000001800307d8     libucrt:lcidtoname_downlevel.obj
 0002:000047e8       ??_C@_1M@GJINLBOK@?$AAa?$AAr?$AA?9?$AAL?$AAY?$AA?$AA@ 00000001800307e8     libucrt:lcidtoname_downlevel.obj
 0002:000047f8       ??_C@_1M@GGMNHJNL@?$AAz?$AAh?$AA?9?$AAS?$AAG?$AA?$AA@ 00000001800307f8     libucrt:lcidtoname_downlevel.obj
 0002:00004808       ??_C@_1M@HOIKODND@?$AAd?$AAe?$AA?9?$AAL?$AAU?$AA?$AA@ 0000000180030808     libucrt:lcidtoname_downlevel.obj
 0002:00004818       ??_C@_1M@DDOCCGFG@?$AAe?$AAn?$AA?9?$AAC?$AAA?$AA?$AA@ 0000000180030818     libucrt:lcidtoname_downlevel.obj
 0002:00004828       ??_C@_1M@BNOEMJLF@?$AAe?$AAs?$AA?9?$AAG?$AAT?$AA?$AA@ 0000000180030828     libucrt:lcidtoname_downlevel.obj
 0002:00004838       ??_C@_1M@EOGNKEK@?$AAf?$AAr?$AA?9?$AAC?$AAH?$AA?$AA@ 0000000180030838     libucrt:lcidtoname_downlevel.obj
 0002:00004848       ??_C@_1M@FLIDJFHL@?$AAh?$AAr?$AA?9?$AAB?$AAA?$AA?$AA@ 0000000180030848     libucrt:lcidtoname_downlevel.obj
 0002:00004858       ??_C@_1O@FMCELNAJ@?$AAs?$AAm?$AAj?$AA?9?$AAN?$AAO?$AA?$AA@ 0000000180030858     libucrt:lcidtoname_downlevel.obj
 0002:00004868       ??_C@_1M@JHGLJMGJ@?$AAa?$AAr?$AA?9?$AAD?$AAZ?$AA?$AA@ 0000000180030868     libucrt:lcidtoname_downlevel.obj
 0002:00004878       ??_C@_1M@JKKFDCNP@?$AAz?$AAh?$AA?9?$AAM?$AAO?$AA?$AA@ 0000000180030878     libucrt:lcidtoname_downlevel.obj
 0002:00004888       ??_C@_1M@GEEFALPE@?$AAd?$AAe?$AA?9?$AAL?$AAI?$AA?$AA@ 0000000180030888     libucrt:lcidtoname_downlevel.obj
 0002:00004898       ??_C@_1M@IGEOFBG@?$AAe?$AAn?$AA?9?$AAN?$AAZ?$AA?$AA@ 0000000180030898     libucrt:lcidtoname_downlevel.obj
 0002:000048a8       ??_C@_1M@KDBONEHP@?$AAe?$AAs?$AA?9?$AAC?$AAR?$AA?$AA@ 00000001800308a8     libucrt:lcidtoname_downlevel.obj
 0002:000048b8       ??_C@_1M@FHMDOHNN@?$AAf?$AAr?$AA?9?$AAL?$AAU?$AA?$AA@ 00000001800308b8     libucrt:lcidtoname_downlevel.obj
 0002:000048c8       ??_C@_1BG@NFKKMAFG@?$AAb?$AAs?$AA?9?$AAB?$AAA?$AA?9?$AAL?$AAa?$AAt?$AAn?$AA?$AA@ 00000001800308c8     libucrt:lcidtoname_downlevel.obj
 0002:000048e0       ??_C@_1O@IMNBEMCI@?$AAs?$AAm?$AAj?$AA?9?$AAS?$AAE?$AA?$AA@ 00000001800308e0     libucrt:lcidtoname_downlevel.obj
 0002:000048f0       ??_C@_1M@DHHMBNDP@?$AAa?$AAr?$AA?9?$AAM?$AAA?$AA?$AA@ 00000001800308f0     libucrt:lcidtoname_downlevel.obj
 0002:00004900       ??_C@_1M@BNBLJCGH@?$AAe?$AAn?$AA?9?$AAI?$AAE?$AA?$AA@ 0000000180030900     libucrt:lcidtoname_downlevel.obj
 0002:00004910       ??_C@_1M@GEPAFMDL@?$AAe?$AAs?$AA?9?$AAP?$AAA?$AA?$AA@ 0000000180030910     libucrt:lcidtoname_downlevel.obj
 0002:00004920       ??_C@_1M@OJONDMDL@?$AAf?$AAr?$AA?9?$AAM?$AAC?$AA?$AA@ 0000000180030920     libucrt:lcidtoname_downlevel.obj
 0002:00004930       ??_C@_1BG@OBCNFJB@?$AAs?$AAr?$AA?9?$AAB?$AAA?$AA?9?$AAL?$AAa?$AAt?$AAn?$AA?$AA@ 0000000180030930     libucrt:lcidtoname_downlevel.obj
 0002:00004948       ??_C@_1O@KEMEEGPO@?$AAs?$AAm?$AAa?$AA?9?$AAN?$AAO?$AA?$AA@ 0000000180030948     libucrt:lcidtoname_downlevel.obj
 0002:00004958       ??_C@_1M@ELMGFODK@?$AAa?$AAr?$AA?9?$AAT?$AAN?$AA?$AA@ 0000000180030958     libucrt:lcidtoname_downlevel.obj
 0002:00004968       ??_C@_1M@BHDLHFAF@?$AAe?$AAn?$AA?9?$AAZ?$AAA?$AA?$AA@ 0000000180030968     libucrt:lcidtoname_downlevel.obj
 0002:00004978       ??_C@_1M@BMGIGLIF@?$AAe?$AAs?$AA?9?$AAD?$AAO?$AA?$AA@ 0000000180030978     libucrt:lcidtoname_downlevel.obj
 0002:00004988       ??_C@_1BG@CMBHIPBE@?$AAs?$AAr?$AA?9?$AAB?$AAA?$AA?9?$AAC?$AAy?$AAr?$AAl?$AA?$AA@ 0000000180030988     libucrt:lcidtoname_downlevel.obj
 0002:000049a0       ??_C@_1O@HEDBLHNP@?$AAs?$AAm?$AAa?$AA?9?$AAS?$AAE?$AA?$AA@ 00000001800309a0     libucrt:lcidtoname_downlevel.obj
 0002:000049b0       ??_C@_1M@DAGCADIM@?$AAa?$AAr?$AA?9?$AAO?$AAM?$AA?$AA@ 00000001800309b0     libucrt:lcidtoname_downlevel.obj
 0002:000049c0       ??_C@_1M@FODLMICG@?$AAe?$AAn?$AA?9?$AAJ?$AAM?$AA?$AA@ 00000001800309c0     libucrt:lcidtoname_downlevel.obj
 0002:000049d0       ??_C@_1M@DNMLCIHB@?$AAe?$AAs?$AA?9?$AAV?$AAE?$AA?$AA@ 00000001800309d0     libucrt:lcidtoname_downlevel.obj
 0002:000049e0       ??_C@_1O@EOKHMKJK@?$AAs?$AAm?$AAs?$AA?9?$AAF?$AAI?$AA?$AA@ 00000001800309e0     libucrt:lcidtoname_downlevel.obj
 0002:000049f0       ??_C@_1M@CAFJMKOF@?$AAa?$AAr?$AA?9?$AAY?$AAE?$AA?$AA@ 00000001800309f0     libucrt:lcidtoname_downlevel.obj
 0002:00004a00       ??_C@_1M@CBFHIJLI@?$AAe?$AAn?$AA?9?$AAC?$AAB?$AA?$AA@ 0000000180030a00     libucrt:lcidtoname_downlevel.obj
 0002:00004a10       ??_C@_1M@BGNFLDN@?$AAe?$AAs?$AA?9?$AAC?$AAO?$AA?$AA@ 0000000180030a10     libucrt:lcidtoname_downlevel.obj
 0002:00004a20       ??_C@_1O@JMPHMAMC@?$AAs?$AAm?$AAn?$AA?9?$AAF?$AAI?$AA?$AA@ 0000000180030a20     libucrt:lcidtoname_downlevel.obj
 0002:00004a30       ??_C@_1M@JLANABKE@?$AAa?$AAr?$AA?9?$AAS?$AAY?$AA?$AA@ 0000000180030a30     libucrt:lcidtoname_downlevel.obj
 0002:00004a40       ??_C@_1M@HPKGCFGN@?$AAe?$AAn?$AA?9?$AAB?$AAZ?$AA?$AA@ 0000000180030a40     libucrt:lcidtoname_downlevel.obj
 0002:00004a50       ??_C@_1M@OLJCMLGM@?$AAe?$AAs?$AA?9?$AAP?$AAE?$AA?$AA@ 0000000180030a50     libucrt:lcidtoname_downlevel.obj
 0002:00004a60       ??_C@_1M@MKKGFKLE@?$AAa?$AAr?$AA?9?$AAJ?$AAO?$AA?$AA@ 0000000180030a60     libucrt:lcidtoname_downlevel.obj
 0002:00004a70       ??_C@_1M@EKPGLDNI@?$AAe?$AAn?$AA?9?$AAT?$AAT?$AA?$AA@ 0000000180030a70     libucrt:lcidtoname_downlevel.obj
 0002:00004a80       ??_C@_1M@OONGHFHE@?$AAe?$AAs?$AA?9?$AAA?$AAR?$AA?$AA@ 0000000180030a80     libucrt:lcidtoname_downlevel.obj
 0002:00004a90       ??_C@_1M@OOJFGBHE@?$AAa?$AAr?$AA?9?$AAL?$AAB?$AA?$AA@ 0000000180030a90     libucrt:lcidtoname_downlevel.obj
 0002:00004aa0       ??_C@_1M@GCEJHNEG@?$AAe?$AAn?$AA?9?$AAZ?$AAW?$AA?$AA@ 0000000180030aa0     libucrt:lcidtoname_downlevel.obj
 0002:00004ab0       ??_C@_1M@JNOCAHJI@?$AAe?$AAs?$AA?9?$AAE?$AAC?$AA?$AA@ 0000000180030ab0     libucrt:lcidtoname_downlevel.obj
 0002:00004ac0       ??_C@_1M@JEFHPGGB@?$AAa?$AAr?$AA?9?$AAK?$AAW?$AA?$AA@ 0000000180030ac0     libucrt:lcidtoname_downlevel.obj
 0002:00004ad0       ??_C@_1M@MLKIBJOJ@?$AAe?$AAn?$AA?9?$AAP?$AAH?$AA?$AA@ 0000000180030ad0     libucrt:lcidtoname_downlevel.obj
 0002:00004ae0       ??_C@_1M@BDNIPEND@?$AAe?$AAs?$AA?9?$AAC?$AAL?$AA?$AA@ 0000000180030ae0     libucrt:lcidtoname_downlevel.obj
 0002:00004af0       ??_C@_1M@MPNMEKBD@?$AAa?$AAr?$AA?9?$AAA?$AAE?$AA?$AA@ 0000000180030af0     libucrt:lcidtoname_downlevel.obj
 0002:00004b00       ??_C@_1M@KBJALCPI@?$AAe?$AAs?$AA?9?$AAU?$AAY?$AA?$AA@ 0000000180030b00     libucrt:lcidtoname_downlevel.obj
 0002:00004b10       ??_C@_1M@LLCCOAGA@?$AAa?$AAr?$AA?9?$AAB?$AAH?$AA?$AA@ 0000000180030b10     libucrt:lcidtoname_downlevel.obj
 0002:00004b20       ??_C@_1M@PBFNCDEL@?$AAe?$AAs?$AA?9?$AAP?$AAY?$AA?$AA@ 0000000180030b20     libucrt:lcidtoname_downlevel.obj
 0002:00004b30       ??_C@_1M@EDGINPNP@?$AAa?$AAr?$AA?9?$AAQ?$AAA?$AA?$AA@ 0000000180030b30     libucrt:lcidtoname_downlevel.obj
 0002:00004b40       ??_C@_1M@MKDBIIJI@?$AAe?$AAs?$AA?9?$AAB?$AAO?$AA?$AA@ 0000000180030b40     libucrt:lcidtoname_downlevel.obj
 0002:00004b50       ??_C@_1M@CPKKEBLD@?$AAe?$AAs?$AA?9?$AAS?$AAV?$AA?$AA@ 0000000180030b50     libucrt:lcidtoname_downlevel.obj
 0002:00004b60       ??_C@_1M@NDBGMMJL@?$AAe?$AAs?$AA?9?$AAH?$AAN?$AA?$AA@ 0000000180030b60     libucrt:lcidtoname_downlevel.obj
 0002:00004b70       ??_C@_1M@JIJIBHDP@?$AAe?$AAs?$AA?9?$AAN?$AAI?$AA?$AA@ 0000000180030b70     libucrt:lcidtoname_downlevel.obj
 0002:00004b80       ??_C@_1M@CGFMKEEK@?$AAe?$AAs?$AA?9?$AAP?$AAR?$AA?$AA@ 0000000180030b80     libucrt:lcidtoname_downlevel.obj
 0002:00004b90       ??_C@_1O@ICJHKIIK@?$AAz?$AAh?$AA?9?$AAC?$AAH?$AAT?$AA?$AA@ 0000000180030b90     libucrt:lcidtoname_downlevel.obj
 0002:00004ba0       ??_C@_15CLNEJCE@?$AAs?$AAr?$AA?$AA@ 0000000180030ba0     libucrt:lcidtoname_downlevel.obj
 0002:000059f0       ??_C@_1M@KAHEKEIG@?$AAa?$AAf?$AA?9?$AAz?$AAa?$AA?$AA@ 00000001800319f0     libucrt:lcidtoname_downlevel.obj
 0002:00005a00       ??_C@_1M@GIECOABL@?$AAa?$AAr?$AA?9?$AAa?$AAe?$AA?$AA@ 0000000180031a00     libucrt:lcidtoname_downlevel.obj
 0002:00005a10       ??_C@_1M@BMLMEKGI@?$AAa?$AAr?$AA?9?$AAb?$AAh?$AA?$AA@ 0000000180031a10     libucrt:lcidtoname_downlevel.obj
 0002:00005a20       ??_C@_1M@DAPFDGGB@?$AAa?$AAr?$AA?9?$AAd?$AAz?$AA?$AA@ 0000000180031a20     libucrt:lcidtoname_downlevel.obj
 0002:00005a30       ??_C@_1M@FJNKGKIG@?$AAa?$AAr?$AA?9?$AAe?$AAg?$AA?$AA@ 0000000180031a30     libucrt:lcidtoname_downlevel.obj
 0002:00005a40       ??_C@_1M@FLGKKCLO@?$AAa?$AAr?$AA?9?$AAi?$AAq?$AA?$AA@ 0000000180031a40     libucrt:lcidtoname_downlevel.obj
 0002:00005a50       ??_C@_1M@GNDIPALM@?$AAa?$AAr?$AA?9?$AAj?$AAo?$AA?$AA@ 0000000180031a50     libucrt:lcidtoname_downlevel.obj
 0002:00005a60       ??_C@_1M@DDMJFMGJ@?$AAa?$AAr?$AA?9?$AAk?$AAw?$AA?$AA@ 0000000180031a60     libucrt:lcidtoname_downlevel.obj
 0002:00005a70       ??_C@_1M@EJALMLHM@?$AAa?$AAr?$AA?9?$AAl?$AAb?$AA?$AA@ 0000000180031a70     libucrt:lcidtoname_downlevel.obj
 0002:00005a80       ??_C@_1M@MOBDBLOC@?$AAa?$AAr?$AA?9?$AAl?$AAy?$AA?$AA@ 0000000180031a80     libucrt:lcidtoname_downlevel.obj
 0002:00005a90       ??_C@_1M@JAOCLHDH@?$AAa?$AAr?$AA?9?$AAm?$AAa?$AA?$AA@ 0000000180031a90     libucrt:lcidtoname_downlevel.obj
 0002:00005aa0       ??_C@_1M@JHPMKJIE@?$AAa?$AAr?$AA?9?$AAo?$AAm?$AA?$AA@ 0000000180031aa0     libucrt:lcidtoname_downlevel.obj
 0002:00005ab0       ??_C@_1M@OEPGHFNH@?$AAa?$AAr?$AA?9?$AAq?$AAa?$AA?$AA@ 0000000180031ab0     libucrt:lcidtoname_downlevel.obj
 0002:00005ac0       ??_C@_1M@KJDONENM@?$AAa?$AAr?$AA?9?$AAs?$AAa?$AA?$AA@ 0000000180031ac0     libucrt:lcidtoname_downlevel.obj
 0002:00005ad0       ??_C@_1M@DMJDKLKM@?$AAa?$AAr?$AA?9?$AAs?$AAy?$AA?$AA@ 0000000180031ad0     libucrt:lcidtoname_downlevel.obj
 0002:00005ae0       ??_C@_1M@OMFIPEDC@?$AAa?$AAr?$AA?9?$AAt?$AAn?$AA?$AA@ 0000000180031ae0     libucrt:lcidtoname_downlevel.obj
 0002:00005af0       ??_C@_1M@IHMHGAON@?$AAa?$AAr?$AA?9?$AAy?$AAe?$AA?$AA@ 0000000180031af0     libucrt:lcidtoname_downlevel.obj
 0002:00005b00       ??_C@_1BG@KDCPGJGB@?$AAa?$AAz?$AA?9?$AAa?$AAz?$AA?9?$AAc?$AAy?$AAr?$AAl?$AA?$AA@ 0000000180031b00     libucrt:lcidtoname_downlevel.obj
 0002:00005b18       ??_C@_1BG@IBCKDDOE@?$AAa?$AAz?$AA?9?$AAa?$AAz?$AA?9?$AAl?$AAa?$AAt?$AAn?$AA?$AA@ 0000000180031b18     libucrt:lcidtoname_downlevel.obj
 0002:00005b30       ??_C@_1M@EGPFDCPD@?$AAb?$AAe?$AA?9?$AAb?$AAy?$AA?$AA@ 0000000180031b30     libucrt:lcidtoname_downlevel.obj
 0002:00005b40       ??_C@_1M@PCMGMCGC@?$AAb?$AAg?$AA?9?$AAb?$AAg?$AA?$AA@ 0000000180031b40     libucrt:lcidtoname_downlevel.obj
 0002:00005b50       ??_C@_1M@BJBMFGOB@?$AAb?$AAn?$AA?9?$AAi?$AAn?$AA?$AA@ 0000000180031b50     libucrt:lcidtoname_downlevel.obj
 0002:00005b60       ??_C@_1BG@EAKMMACD@?$AAb?$AAs?$AA?9?$AAb?$AAa?$AA?9?$AAl?$AAa?$AAt?$AAn?$AA?$AA@ 0000000180031b60     libucrt:lcidtoname_downlevel.obj
 0002:00005b78       ??_C@_1M@KGADAODK@?$AAc?$AAa?$AA?9?$AAe?$AAs?$AA?$AA@ 0000000180031b78     libucrt:lcidtoname_downlevel.obj
 0002:00005b88       ??_C@_1M@COAJPDHI@?$AAc?$AAs?$AA?9?$AAc?$AAz?$AA?$AA@ 0000000180031b88     libucrt:lcidtoname_downlevel.obj
 0002:00005b98       ??_C@_1M@DHBHFONH@?$AAc?$AAy?$AA?9?$AAg?$AAb?$AA?$AA@ 0000000180031b98     libucrt:lcidtoname_downlevel.obj
 0002:00005ba8       ??_C@_1M@IMGKELGA@?$AAd?$AAa?$AA?9?$AAd?$AAk?$AA?$AA@ 0000000180031ba8     libucrt:lcidtoname_downlevel.obj
 0002:00005bb8       ??_C@_1M@NNDGDNGA@?$AAd?$AAe?$AA?9?$AAa?$AAt?$AA?$AA@ 0000000180031bb8     libucrt:lcidtoname_downlevel.obj
 0002:00005bc8       ??_C@_1M@IKDBHEEM@?$AAd?$AAe?$AA?9?$AAc?$AAh?$AA?$AA@ 0000000180031bc8     libucrt:lcidtoname_downlevel.obj
 0002:00005bd8       ??_C@_1M@GFFOJMCJ@?$AAd?$AAe?$AA?9?$AAd?$AAe?$AA?$AA@ 0000000180031bd8     libucrt:lcidtoname_downlevel.obj
 0002:00005be8       ??_C@_1M@MDNLKBPM@?$AAd?$AAe?$AA?9?$AAl?$AAi?$AA?$AA@ 0000000180031be8     libucrt:lcidtoname_downlevel.obj
 0002:00005bf8       ??_C@_1M@NJBEEJNL@?$AAd?$AAe?$AA?9?$AAl?$AAu?$AA?$AA@ 0000000180031bf8     libucrt:lcidtoname_downlevel.obj
 0002:00005c08       ??_C@_1O@GNNELBAP@?$AAd?$AAi?$AAv?$AA?9?$AAm?$AAv?$AA?$AA@ 0000000180031c08     libucrt:lcidtoname_downlevel.obj
 0002:00005c18       ??_C@_1M@EJLEOGAE@?$AAe?$AAl?$AA?9?$AAg?$AAr?$AA?$AA@ 0000000180031c18     libucrt:lcidtoname_downlevel.obj
 0002:00005c28       ??_C@_1M@GMPONJN@?$AAe?$AAn?$AA?9?$AAa?$AAu?$AA?$AA@ 0000000180031c28     libucrt:lcidtoname_downlevel.obj
 0002:00005c38       ??_C@_1M@NIDIIPGF@?$AAe?$AAn?$AA?9?$AAb?$AAz?$AA?$AA@ 0000000180031c38     libucrt:lcidtoname_downlevel.obj
 0002:00005c48       ??_C@_1M@JEHMIMFO@?$AAe?$AAn?$AA?9?$AAc?$AAa?$AA?$AA@ 0000000180031c48     libucrt:lcidtoname_downlevel.obj
 0002:00005c58       ??_C@_1M@IGMJCDLA@?$AAe?$AAn?$AA?9?$AAc?$AAb?$AA?$AA@ 0000000180031c58     libucrt:lcidtoname_downlevel.obj
 0002:00005c68       ??_C@_1M@BNFIGBKG@?$AAe?$AAn?$AA?9?$AAg?$AAb?$AA?$AA@ 0000000180031c68     libucrt:lcidtoname_downlevel.obj
 0002:00005c78       ??_C@_1M@LKIFDIGP@?$AAe?$AAn?$AA?9?$AAi?$AAe?$AA?$AA@ 0000000180031c78     libucrt:lcidtoname_downlevel.obj
 0002:00005c88       ??_C@_1M@PJKFGCCO@?$AAe?$AAn?$AA?9?$AAj?$AAm?$AA?$AA@ 0000000180031c88     libucrt:lcidtoname_downlevel.obj
 0002:00005c98       ??_C@_1M@KPPKEPBO@?$AAe?$AAn?$AA?9?$AAn?$AAz?$AA?$AA@ 0000000180031c98     libucrt:lcidtoname_downlevel.obj
 0002:00005ca8       ??_C@_1M@GMDGLDOB@?$AAe?$AAn?$AA?9?$AAp?$AAh?$AA?$AA@ 0000000180031ca8     libucrt:lcidtoname_downlevel.obj
 0002:00005cb8       ??_C@_1M@ONGIBJNA@?$AAe?$AAn?$AA?9?$AAt?$AAt?$AA?$AA@ 0000000180031cb8     libucrt:lcidtoname_downlevel.obj
 0002:00005cc8       ??_C@_1M@LLODPCMM@?$AAe?$AAn?$AA?9?$AAu?$AAs?$AA?$AA@ 0000000180031cc8     libucrt:lcidtoname_downlevel.obj
 0002:00005cd8       ??_C@_1M@LAKFNPAN@?$AAe?$AAn?$AA?9?$AAz?$AAa?$AA?$AA@ 0000000180031cd8     libucrt:lcidtoname_downlevel.obj
 0002:00005ce8       ??_C@_1M@MFNHNHEO@?$AAe?$AAn?$AA?9?$AAz?$AAw?$AA?$AA@ 0000000180031ce8     libucrt:lcidtoname_downlevel.obj
 0002:00005cf8       ??_C@_1M@EJEINPHM@?$AAe?$AAs?$AA?9?$AAa?$AAr?$AA?$AA@ 0000000180031cf8     libucrt:lcidtoname_downlevel.obj
 0002:00005d08       ??_C@_1M@GNKPCCJA@?$AAe?$AAs?$AA?9?$AAb?$AAo?$AA?$AA@ 0000000180031d08     libucrt:lcidtoname_downlevel.obj
 0002:00005d18       ??_C@_1M@LEEGFONL@?$AAe?$AAs?$AA?9?$AAc?$AAl?$AA?$AA@ 0000000180031d18     libucrt:lcidtoname_downlevel.obj
 0002:00005d28       ??_C@_1M@KGPDPBDF@?$AAe?$AAs?$AA?9?$AAc?$AAo?$AA?$AA@ 0000000180031d28     libucrt:lcidtoname_downlevel.obj
 0002:00005d38       ??_C@_1M@EIAHOHH@?$AAe?$AAs?$AA?9?$AAc?$AAr?$AA?$AA@ 0000000180031d38     libucrt:lcidtoname_downlevel.obj
 0002:00005d48       ??_C@_1M@LLPGMBIN@?$AAe?$AAs?$AA?9?$AAd?$AAo?$AA?$AA@ 0000000180031d48     libucrt:lcidtoname_downlevel.obj
 0002:00005d58       ??_C@_1M@DKHMKNJA@?$AAe?$AAs?$AA?9?$AAe?$AAc?$AA?$AA@ 0000000180031d58     libucrt:lcidtoname_downlevel.obj
 0002:00005d68       ??_C@_1M@GKGFPKAP@?$AAe?$AAs?$AA?9?$AAe?$AAs?$AA?$AA@ 0000000180031d68     libucrt:lcidtoname_downlevel.obj
 0002:00005d78       ??_C@_1M@LKHKGDLN@?$AAe?$AAs?$AA?9?$AAg?$AAt?$AA?$AA@ 0000000180031d78     libucrt:lcidtoname_downlevel.obj
 0002:00005d88       ??_C@_1M@HEIIGGJD@?$AAe?$AAs?$AA?9?$AAh?$AAn?$AA?$AA@ 0000000180031d88     libucrt:lcidtoname_downlevel.obj
 0002:00005d98       ??_C@_1M@FBDHPPGD@?$AAe?$AAs?$AA?9?$AAm?$AAx?$AA?$AA@ 0000000180031d98     libucrt:lcidtoname_downlevel.obj
 0002:00005da8       ??_C@_1M@DPAGLNDH@?$AAe?$AAs?$AA?9?$AAn?$AAi?$AA?$AA@ 0000000180031da8     libucrt:lcidtoname_downlevel.obj
 0002:00005db8       ??_C@_1M@MDGOPGDD@?$AAe?$AAs?$AA?9?$AAp?$AAa?$AA?$AA@ 0000000180031db8     libucrt:lcidtoname_downlevel.obj
 0002:00005dc8       ??_C@_1M@EMAMGBGE@?$AAe?$AAs?$AA?9?$AAp?$AAe?$AA?$AA@ 0000000180031dc8     libucrt:lcidtoname_downlevel.obj
 0002:00005dd8       ??_C@_1M@IBMCAOEC@?$AAe?$AAs?$AA?9?$AAp?$AAr?$AA?$AA@ 0000000180031dd8     libucrt:lcidtoname_downlevel.obj
 0002:00005de8       ??_C@_1M@FGMDIJED@?$AAe?$AAs?$AA?9?$AAp?$AAy?$AA?$AA@ 0000000180031de8     libucrt:lcidtoname_downlevel.obj
 0002:00005df8       ??_C@_1M@IIDEOLLL@?$AAe?$AAs?$AA?9?$AAs?$AAv?$AA?$AA@ 0000000180031df8     libucrt:lcidtoname_downlevel.obj
 0002:00005e08       ??_C@_1M@GAOBIPA@?$AAe?$AAs?$AA?9?$AAu?$AAy?$AA?$AA@ 0000000180031e08     libucrt:lcidtoname_downlevel.obj
 0002:00005e18       ??_C@_1M@JKFFICHJ@?$AAe?$AAs?$AA?9?$AAv?$AAe?$AA?$AA@ 0000000180031e18     libucrt:lcidtoname_downlevel.obj
 0002:00005e28       ??_C@_1M@PNMLOJDF@?$AAe?$AAt?$AA?9?$AAe?$AAe?$AA?$AA@ 0000000180031e28     libucrt:lcidtoname_downlevel.obj
 0002:00005e38       ??_C@_1M@GHHLIKEI@?$AAe?$AAu?$AA?9?$AAe?$AAs?$AA?$AA@ 0000000180031e38     libucrt:lcidtoname_downlevel.obj
 0002:00005e48       ??_C@_1M@PBNONODE@?$AAf?$AAa?$AA?9?$AAi?$AAr?$AA?$AA@ 0000000180031e48     libucrt:lcidtoname_downlevel.obj
 0002:00005e58       ??_C@_1M@JEEHPMIL@?$AAf?$AAi?$AA?9?$AAf?$AAi?$AA?$AA@ 0000000180031e58     libucrt:lcidtoname_downlevel.obj
 0002:00005e68       ??_C@_1M@LMDCNDBA@?$AAf?$AAo?$AA?9?$AAf?$AAo?$AA?$AA@ 0000000180031e68     libucrt:lcidtoname_downlevel.obj
 0002:00005e78       ??_C@_1M@JKEOHLDK@?$AAf?$AAr?$AA?9?$AAb?$AAe?$AA?$AA@ 0000000180031e78     libucrt:lcidtoname_downlevel.obj
 0002:00005e88       ??_C@_1M@NOHADPMI@?$AAf?$AAr?$AA?9?$AAc?$AAa?$AA?$AA@ 0000000180031e88     libucrt:lcidtoname_downlevel.obj
 0002:00005e98       ??_C@_1M@KDHIHAEC@?$AAf?$AAr?$AA?9?$AAc?$AAh?$AA?$AA@ 0000000180031e98     libucrt:lcidtoname_downlevel.obj
 0002:00005ea8       ??_C@_1M@MMBBFGAK@?$AAf?$AAr?$AA?9?$AAf?$AAr?$AA?$AA@ 0000000180031ea8     libucrt:lcidtoname_downlevel.obj
 0002:00005eb8       ??_C@_1M@PAFNENNF@?$AAf?$AAr?$AA?9?$AAl?$AAu?$AA?$AA@ 0000000180031eb8     libucrt:lcidtoname_downlevel.obj
 0002:00005ec8       ??_C@_1M@EOHDJGDD@?$AAf?$AAr?$AA?9?$AAm?$AAc?$AA?$AA@ 0000000180031ec8     libucrt:lcidtoname_downlevel.obj
 0002:00005ed8       ??_C@_1M@FAPLLOPF@?$AAg?$AAl?$AA?9?$AAe?$AAs?$AA?$AA@ 0000000180031ed8     libucrt:lcidtoname_downlevel.obj
 0002:00005ee8       ??_C@_1M@FOPBFLOO@?$AAg?$AAu?$AA?9?$AAi?$AAn?$AA?$AA@ 0000000180031ee8     libucrt:lcidtoname_downlevel.obj
 0002:00005ef8       ??_C@_1M@KBMCINPM@?$AAh?$AAe?$AA?9?$AAi?$AAl?$AA?$AA@ 0000000180031ef8     libucrt:lcidtoname_downlevel.obj
 0002:00005f08       ??_C@_1M@BBPHKFPJ@?$AAh?$AAi?$AA?9?$AAi?$AAn?$AA?$AA@ 0000000180031f08     libucrt:lcidtoname_downlevel.obj
 0002:00005f18       ??_C@_1M@PMBNDPHD@?$AAh?$AAr?$AA?9?$AAb?$AAa?$AA?$AA@ 0000000180031f18     libucrt:lcidtoname_downlevel.obj
 0002:00005f28       ??_C@_1M@BPCKOEGE@?$AAh?$AAr?$AA?9?$AAh?$AAr?$AA?$AA@ 0000000180031f28     libucrt:lcidtoname_downlevel.obj
 0002:00005f38       ??_C@_1M@GACBMHKE@?$AAh?$AAu?$AA?9?$AAh?$AAu?$AA?$AA@ 0000000180031f38     libucrt:lcidtoname_downlevel.obj
 0002:00005f48       ??_C@_1M@MILPAJJC@?$AAh?$AAy?$AA?9?$AAa?$AAm?$AA?$AA@ 0000000180031f48     libucrt:lcidtoname_downlevel.obj
 0002:00005f58       ??_C@_1M@BABBICEC@?$AAi?$AAd?$AA?9?$AAi?$AAd?$AA?$AA@ 0000000180031f58     libucrt:lcidtoname_downlevel.obj
 0002:00005f68       ??_C@_1M@BIKNHHPF@?$AAi?$AAs?$AA?9?$AAi?$AAs?$AA?$AA@ 0000000180031f68     libucrt:lcidtoname_downlevel.obj
 0002:00005f78       ??_C@_1M@NMPCJPHE@?$AAi?$AAt?$AA?9?$AAc?$AAh?$AA?$AA@ 0000000180031f78     libucrt:lcidtoname_downlevel.obj
 0002:00005f88       ??_C@_1M@GHKGFEDF@?$AAi?$AAt?$AA?9?$AAi?$AAt?$AA?$AA@ 0000000180031f88     libucrt:lcidtoname_downlevel.obj
 0002:00005f98       ??_C@_1M@NIEJCJJA@?$AAj?$AAa?$AA?9?$AAj?$AAp?$AA?$AA@ 0000000180031f98     libucrt:lcidtoname_downlevel.obj
 0002:00005fa8       ??_C@_1M@JILFNBIM@?$AAk?$AAa?$AA?9?$AAg?$AAe?$AA?$AA@ 0000000180031fa8     libucrt:lcidtoname_downlevel.obj
 0002:00005fb8       ??_C@_1M@PACPMGPH@?$AAk?$AAk?$AA?9?$AAk?$AAz?$AA?$AA@ 0000000180031fb8     libucrt:lcidtoname_downlevel.obj
 0002:00005fc8       ??_C@_1M@IELFGMHA@?$AAk?$AAn?$AA?9?$AAi?$AAn?$AA?$AA@ 0000000180031fc8     libucrt:lcidtoname_downlevel.obj
 0002:00005fd8       ??_C@_1O@IBBJHCH@?$AAk?$AAo?$AAk?$AA?9?$AAi?$AAn?$AA?$AA@ 0000000180031fd8     libucrt:lcidtoname_downlevel.obj
 0002:00005fe8       ??_C@_1M@DMHAEOGC@?$AAk?$AAo?$AA?9?$AAk?$AAr?$AA?$AA@ 0000000180031fe8     libucrt:lcidtoname_downlevel.obj
 0002:00005ff8       ??_C@_1M@HBAHBIGA@?$AAk?$AAy?$AA?9?$AAk?$AAg?$AA?$AA@ 0000000180031ff8     libucrt:lcidtoname_downlevel.obj
 0002:00006008       ??_C@_1M@KPMILCJG@?$AAl?$AAt?$AA?9?$AAl?$AAt?$AA?$AA@ 0000000180032008     libucrt:lcidtoname_downlevel.obj
 0002:00006018       ??_C@_1M@BDEKKCA@?$AAl?$AAv?$AA?9?$AAl?$AAv?$AA?$AA@ 0000000180032018     libucrt:lcidtoname_downlevel.obj
 0002:00006028       ??_C@_1M@ELCKCCJJ@?$AAm?$AAi?$AA?9?$AAn?$AAz?$AA?$AA@ 0000000180032028     libucrt:lcidtoname_downlevel.obj
 0002:00006038       ??_C@_1M@CBOOLAPA@?$AAm?$AAk?$AA?9?$AAm?$AAk?$AA?$AA@ 0000000180032038     libucrt:lcidtoname_downlevel.obj
 0002:00006048       ??_C@_1M@GPHNBJKN@?$AAm?$AAl?$AA?9?$AAi?$AAn?$AA?$AA@ 0000000180032048     libucrt:lcidtoname_downlevel.obj
 0002:00006058       ??_C@_1M@PABJILIG@?$AAm?$AAn?$AA?9?$AAm?$AAn?$AA?$AA@ 0000000180032058     libucrt:lcidtoname_downlevel.obj
 0002:00006068       ??_C@_1M@FGBKKIPG@?$AAm?$AAr?$AA?9?$AAi?$AAn?$AA?$AA@ 0000000180032068     libucrt:lcidtoname_downlevel.obj
 0002:00006078       ??_C@_1M@NDBPDDAL@?$AAm?$AAs?$AA?9?$AAb?$AAn?$AA?$AA@ 0000000180032078     libucrt:lcidtoname_downlevel.obj
 0002:00006088       ??_C@_1M@OPIHOOPI@?$AAm?$AAs?$AA?9?$AAm?$AAy?$AA?$AA@ 0000000180032088     libucrt:lcidtoname_downlevel.obj
 0002:00006098       ??_C@_1M@PPDBCNFM@?$AAm?$AAt?$AA?9?$AAm?$AAt?$AA?$AA@ 0000000180032098     libucrt:lcidtoname_downlevel.obj
 0002:000060a8       ??_C@_1M@KDJDKMDD@?$AAn?$AAb?$AA?9?$AAn?$AAo?$AA?$AA@ 00000001800320a8     libucrt:lcidtoname_downlevel.obj
 0002:000060b8       ??_C@_1M@KFCFLMJP@?$AAn?$AAl?$AA?9?$AAb?$AAe?$AA?$AA@ 00000001800320b8     libucrt:lcidtoname_downlevel.obj
 0002:000060c8       ??_C@_1M@KPOPDDGO@?$AAn?$AAl?$AA?9?$AAn?$AAl?$AA?$AA@ 00000001800320c8     libucrt:lcidtoname_downlevel.obj
 0002:000060d8       ??_C@_1M@LJKPEMLN@?$AAn?$AAn?$AA?9?$AAn?$AAo?$AA?$AA@ 00000001800320d8     libucrt:lcidtoname_downlevel.obj
 0002:000060e8       ??_C@_1M@BDGHHBFL@?$AAn?$AAs?$AA?9?$AAz?$AAa?$AA?$AA@ 00000001800320e8     libucrt:lcidtoname_downlevel.obj
 0002:000060f8       ??_C@_1M@IDEHOAP@?$AAp?$AAa?$AA?9?$AAi?$AAn?$AA?$AA@ 00000001800320f8     libucrt:lcidtoname_downlevel.obj
 0002:00006108       ??_C@_1M@HDBKGOGH@?$AAp?$AAl?$AA?9?$AAp?$AAl?$AA?$AA@ 0000000180032108     libucrt:lcidtoname_downlevel.obj
 0002:00006118       ??_C@_1M@LJLLCMEH@?$AAp?$AAt?$AA?9?$AAb?$AAr?$AA?$AA@ 0000000180032118     libucrt:lcidtoname_downlevel.obj
 0002:00006128       ??_C@_1M@NCMONAAL@?$AAp?$AAt?$AA?9?$AAp?$AAt?$AA?$AA@ 0000000180032128     libucrt:lcidtoname_downlevel.obj
 0002:00006138       ??_C@_1O@EAKMAJDN@?$AAq?$AAu?$AAz?$AA?9?$AAb?$AAo?$AA?$AA@ 0000000180032138     libucrt:lcidtoname_downlevel.obj
 0002:00006148       ??_C@_1O@BHHPIGDN@?$AAq?$AAu?$AAz?$AA?9?$AAe?$AAc?$AA?$AA@ 0000000180032148     libucrt:lcidtoname_downlevel.obj
 0002:00006158       ??_C@_1O@GBAPEKMJ@?$AAq?$AAu?$AAz?$AA?9?$AAp?$AAe?$AA?$AA@ 0000000180032158     libucrt:lcidtoname_downlevel.obj
 0002:00006168       ??_C@_1M@CLGLEFBO@?$AAr?$AAo?$AA?9?$AAr?$AAo?$AA?$AA@ 0000000180032168     libucrt:lcidtoname_downlevel.obj
 0002:00006178       ??_C@_1M@CEEDODME@?$AAr?$AAu?$AA?9?$AAr?$AAu?$AA?$AA@ 0000000180032178     libucrt:lcidtoname_downlevel.obj
 0002:00006188       ??_C@_1M@HPKKKMPP@?$AAs?$AAa?$AA?9?$AAi?$AAn?$AA?$AA@ 0000000180032188     libucrt:lcidtoname_downlevel.obj
 0002:00006198       ??_C@_1M@BKMAIGOJ@?$AAs?$AAe?$AA?9?$AAf?$AAi?$AA?$AA@ 0000000180032198     libucrt:lcidtoname_downlevel.obj
 0002:000061a8       ??_C@_1M@NDPIFLFI@?$AAs?$AAe?$AA?9?$AAn?$AAo?$AA?$AA@ 00000001800321a8     libucrt:lcidtoname_downlevel.obj
 0002:000061b8       ??_C@_1M@DANKKHJ@?$AAs?$AAe?$AA?9?$AAs?$AAe?$AA?$AA@ 00000001800321b8     libucrt:lcidtoname_downlevel.obj
 0002:000061c8       ??_C@_1M@PNBLONPJ@?$AAs?$AAk?$AA?9?$AAs?$AAk?$AA?$AA@ 00000001800321c8     libucrt:lcidtoname_downlevel.obj
 0002:000061d8       ??_C@_1M@LFMODOAL@?$AAs?$AAl?$AA?9?$AAs?$AAi?$AA?$AA@ 00000001800321d8     libucrt:lcidtoname_downlevel.obj
 0002:000061e8       ??_C@_1O@DFKOMPG@?$AAs?$AAm?$AAa?$AA?9?$AAn?$AAo?$AA?$AA@ 00000001800321e8     libucrt:lcidtoname_downlevel.obj
 0002:000061f8       ??_C@_1O@NDKPBNNH@?$AAs?$AAm?$AAa?$AA?9?$AAs?$AAe?$AA?$AA@ 00000001800321f8     libucrt:lcidtoname_downlevel.obj
 0002:00006208       ??_C@_1O@PLLKBHAB@?$AAs?$AAm?$AAj?$AA?9?$AAn?$AAo?$AA?$AA@ 0000000180032208     libucrt:lcidtoname_downlevel.obj
 0002:00006218       ??_C@_1O@CLEPOGCA@?$AAs?$AAm?$AAj?$AA?9?$AAs?$AAe?$AA?$AA@ 0000000180032218     libucrt:lcidtoname_downlevel.obj
 0002:00006228       ??_C@_1O@DLGJGKMK@?$AAs?$AAm?$AAn?$AA?9?$AAf?$AAi?$AA?$AA@ 0000000180032228     libucrt:lcidtoname_downlevel.obj
 0002:00006238       ??_C@_1O@OJDJGAJC@?$AAs?$AAm?$AAs?$AA?9?$AAf?$AAi?$AA?$AA@ 0000000180032238     libucrt:lcidtoname_downlevel.obj
 0002:00006248       ??_C@_1M@BOFOGHPB@?$AAs?$AAq?$AA?9?$AAa?$AAl?$AA?$AA@ 0000000180032248     libucrt:lcidtoname_downlevel.obj
 0002:00006258       ??_C@_1BG@LJBBIPGB@?$AAs?$AAr?$AA?9?$AAb?$AAa?$AA?9?$AAc?$AAy?$AAr?$AAl?$AA?$AA@ 0000000180032258     libucrt:lcidtoname_downlevel.obj
 0002:00006270       ??_C@_1BG@JLBENFOE@?$AAs?$AAr?$AA?9?$AAb?$AAa?$AA?9?$AAl?$AAa?$AAt?$AAn?$AA?$AA@ 0000000180032270     libucrt:lcidtoname_downlevel.obj
 0002:00006288       ??_C@_1BG@KODPNHE@?$AAs?$AAr?$AA?9?$AAs?$AAp?$AA?9?$AAc?$AAy?$AAr?$AAl?$AA?$AA@ 0000000180032288     libucrt:lcidtoname_downlevel.obj
 0002:000062a0       ??_C@_1BG@CIOGKHPB@?$AAs?$AAr?$AA?9?$AAs?$AAp?$AA?9?$AAl?$AAa?$AAt?$AAn?$AA?$AA@ 00000001800322a0     libucrt:lcidtoname_downlevel.obj
 0002:000062b8       ??_C@_1M@NGFJLMAC@?$AAs?$AAv?$AA?9?$AAf?$AAi?$AA?$AA@ 00000001800322b8     libucrt:lcidtoname_downlevel.obj
 0002:000062c8       ??_C@_1M@MPJEJAJC@?$AAs?$AAv?$AA?9?$AAs?$AAe?$AA?$AA@ 00000001800322c8     libucrt:lcidtoname_downlevel.obj
 0002:000062d8       ??_C@_1M@MPNDHLFK@?$AAs?$AAw?$AA?9?$AAk?$AAe?$AA?$AA@ 00000001800322d8     libucrt:lcidtoname_downlevel.obj
 0002:000062e8       ??_C@_1O@KOHBJJI@?$AAs?$AAy?$AAr?$AA?9?$AAs?$AAy?$AA?$AA@ 00000001800322e8     libucrt:lcidtoname_downlevel.obj
 0002:000062f8       ??_C@_1M@LDCEFHA@?$AAt?$AAa?$AA?9?$AAi?$AAn?$AA?$AA@ 00000001800322f8     libucrt:lcidtoname_downlevel.obj
 0002:00006308       ??_C@_1M@CNJOFAK@?$AAt?$AAe?$AA?9?$AAi?$AAn?$AA?$AA@ 0000000180032308     libucrt:lcidtoname_downlevel.obj
 0002:00006318       ??_C@_1M@GNAECACD@?$AAt?$AAh?$AA?9?$AAt?$AAh?$AA?$AA@ 0000000180032318     libucrt:lcidtoname_downlevel.obj
 0002:00006328       ??_C@_1M@CHBIHOJO@?$AAt?$AAn?$AA?9?$AAz?$AAa?$AA?$AA@ 0000000180032328     libucrt:lcidtoname_downlevel.obj
 0002:00006338       ??_C@_1M@GCCMIGPJ@?$AAt?$AAr?$AA?9?$AAt?$AAr?$AA?$AA@ 0000000180032338     libucrt:lcidtoname_downlevel.obj
 0002:00006348       ??_C@_1M@CELMCNBK@?$AAt?$AAt?$AA?9?$AAr?$AAu?$AA?$AA@ 0000000180032348     libucrt:lcidtoname_downlevel.obj
 0002:00006358       ??_C@_1M@KLMCELGA@?$AAu?$AAk?$AA?9?$AAu?$AAa?$AA?$AA@ 0000000180032358     libucrt:lcidtoname_downlevel.obj
 0002:00006368       ??_C@_1M@EPAJJAJF@?$AAu?$AAr?$AA?9?$AAp?$AAk?$AA?$AA@ 0000000180032368     libucrt:lcidtoname_downlevel.obj
 0002:00006378       ??_C@_1BG@GEGPMCDJ@?$AAu?$AAz?$AA?9?$AAu?$AAz?$AA?9?$AAc?$AAy?$AAr?$AAl?$AA?$AA@ 0000000180032378     libucrt:lcidtoname_downlevel.obj
 0002:00006390       ??_C@_1BG@EGGKJILM@?$AAu?$AAz?$AA?9?$AAu?$AAz?$AA?9?$AAl?$AAa?$AAt?$AAn?$AA?$AA@ 0000000180032390     libucrt:lcidtoname_downlevel.obj
 0002:000063a8       ??_C@_1M@GFOCLFF@?$AAv?$AAi?$AA?9?$AAv?$AAn?$AA?$AA@ 00000001800323a8     libucrt:lcidtoname_downlevel.obj
 0002:000063b8       ??_C@_1M@CPAMEDFI@?$AAx?$AAh?$AA?9?$AAz?$AAa?$AA?$AA@ 00000001800323b8     libucrt:lcidtoname_downlevel.obj
 0002:000063c8       ??_C@_1O@EBKIFIGN@?$AAz?$AAh?$AA?9?$AAc?$AAh?$AAs?$AA?$AA@ 00000001800323c8     libucrt:lcidtoname_downlevel.obj
 0002:000063d8       ??_C@_1O@NMHPGANE@?$AAz?$AAh?$AA?9?$AAc?$AAh?$AAt?$AA?$AA@ 00000001800323d8     libucrt:lcidtoname_downlevel.obj
 0002:000063e8       ??_C@_1M@LPINJOMC@?$AAz?$AAh?$AA?9?$AAc?$AAn?$AA?$AA@ 00000001800323e8     libucrt:lcidtoname_downlevel.obj
 0002:000063f8       ??_C@_1M@OCJEJODD@?$AAz?$AAh?$AA?9?$AAh?$AAk?$AA?$AA@ 00000001800323f8     libucrt:lcidtoname_downlevel.obj
 0002:00006408       ??_C@_1M@DNDLJINH@?$AAz?$AAh?$AA?9?$AAm?$AAo?$AA?$AA@ 0000000180032408     libucrt:lcidtoname_downlevel.obj
 0002:00006418       ??_C@_1M@MBFDNDND@?$AAz?$AAh?$AA?9?$AAs?$AAg?$AA?$AA@ 0000000180032418     libucrt:lcidtoname_downlevel.obj
 0002:00006428       ??_C@_1M@IMEPLEPE@?$AAz?$AAh?$AA?9?$AAt?$AAw?$AA?$AA@ 0000000180032428     libucrt:lcidtoname_downlevel.obj
 0002:00006438       ??_C@_1M@BBGHNHJP@?$AAz?$AAu?$AA?9?$AAz?$AAa?$AA?$AA@ 0000000180032438     libucrt:lcidtoname_downlevel.obj
 0002:00006450       ?large_power_data@?1??multiply_by_power_of_ten@__crt_strtox@@YA_NAEAUbig_integer@2@I@Z@4QBIB 0000000180032450     libucrt:cfout.obj
 0002:00006d60       ?large_power_indices@?1??multiply_by_power_of_ten@__crt_strtox@@YA_NAEAUbig_integer@2@I@Z@4QBUunpack_index@?1??12@YA_N0I@Z@B 0000000180032d60     libucrt:cfout.obj
 0002:00006df8       ?small_powers_of_ten@?6??multiply_by_power_of_ten@__crt_strtox@@YA_NAEAUbig_integer@2@I@Z@4QBIB 0000000180032df8     libucrt:cfout.obj
 0002:00006e1c       ??_C@_01GBGANLPD@0?$AA@    0000000180032e1c     libucrt:cfout.obj
 0002:00006e20       ??_C@_05DNEBIAHO@1?$CDINF?$AA@ 0000000180032e20     libucrt:cfout.obj
 0002:00006e28       ??_C@_06IMKFLFPG@1?$CDQNAN?$AA@ 0000000180032e28     libucrt:cfout.obj
 0002:00006e30       ??_C@_06PGGFOGJG@1?$CDSNAN?$AA@ 0000000180032e30     libucrt:cfout.obj
 0002:00006e38       ??_C@_05PHHOCPM@1?$CDIND?$AA@ 0000000180032e38     libucrt:cfout.obj
 0002:000070a0       ??_C@_1BA@BALFACEM@?$AAC?$AAO?$AAN?$AAO?$AAU?$AAT?$AA$?$AA?$AA@ 00000001800330a0     libucrt:initcon.obj
 0002:000070b0       __log10_256_lead           00000001800330b0     libucrt:log10_256_lead_tail_table.obj
 0002:000078c0       __log10_256_tail           00000001800338c0     libucrt:log10_256_lead_tail_table.obj
 0002:000080d0       __log_F_inv_qword          00000001800340d0     libucrt:log_f_inv_qword_table.obj
 0002:000088e0       ??_C@_05HGHHAHAP@log10?$AA@ 00000001800348e0     libucrt:log_special.obj
 0002:000088e8       ??_C@_1BK@DBDEIDLH@?$AAK?$AAE?$AAR?$AAN?$AAE?$AAL?$AA3?$AA2?$AA?4?$AAD?$AAL?$AAL?$AA?$AA@ 00000001800348e8     DelayImp:delayhlp.obj
 0002:00008908       ??_C@_0BI@OMNLIJDB@AcquireSRWLockExclusive?$AA@ 0000000180034908     DelayImp:delayhlp.obj
 0002:00008920       ??_C@_0BI@HMIEPCNJ@ReleaseSRWLockExclusive?$AA@ 0000000180034920     DelayImp:delayhlp.obj
 0002:00008938       __pfnDliFailureHook2       0000000180034938     DelayImp:delayhk1.obj
 0002:00008940       _load_config_used          0000000180034940     LIBCMT:loadcfg.obj
 0002:000089d8       ??_C@_0BC@BDKFLDHL@unknown?5exception?$AA@ 00000001800349d8     common.obj
 0002:000089f0       ??_C@_0BA@JFNIOLAK@string?5too?5long?$AA@ 00000001800349f0     common.obj
 0002:00008a00       ??_C@_1KA@NJFFIACE@?$AAc?$AA?3?$AA?2?$AAu?$AAs?$AAe?$AAr?$AAs?$AA?2?$AAr?$AAa?$AAf?$AAa?$AAe?$AAl?$AA?2?$AAd?$AAe?$AAs?$AAk?$AAt?$AAo?$AAp?$AA?2?$AAb?$AA2?$AAw?$AA?2?$AAs?$AAk?$AAy?$AAh@ 0000000180034a00     common.obj
 0002:00008aa0       ??_C@_1FK@CBGIJHDF@?$AAv?$AAa?$AAl?$AAu?$AAe?$AA?4?$AAs?$AAi?$AAz?$AAe?$AA?$CI?$AA?$CJ?$AA?5?$AA?$DM?$AA?$DN?$AA?5?$AAI?$AAN?$AAT?$AA_?$AAM?$AAA?$AAX?$AA?5?$AA?$CG?$AA?$CG?$AA?5?$AA?$CC?$AAs?$AAt?$AAr?$AAi@ 0000000180034aa0     common.obj
 0002:00008b00       ??_C@_1HE@EDOCAHNO@?$AAC?$AA?3?$AA?2?$AAU?$AAs?$AAe?$AAr?$AAs?$AA?2?$AAR?$AAa?$AAf?$AAa?$AAe?$AAl?$AA?2?$AAD?$AAe?$AAs?$AAk?$AAt?$AAo?$AAp?$AA?2?$AAb?$AA2?$AAw?$AA?2?$AAS?$AAk?$AAy?$AAH@ 0000000180034b00     common.obj
 0002:00008b78       ??_C@_1BO@OPFMAOCA@?$AAl?$AAe?$AAn?$AA?5?$AA?$DM?$AA?$DN?$AA?5?$AAI?$AAN?$AAT?$AA_?$AAM?$AAA?$AAX?$AA?$AA@ 0000000180034b78     common.obj
 0002:00008b98       ??_C@_1BE@CKDJNAPC@?$AAs?$AAt?$AAr?$AA_?$AA?5?$AA?$CB?$AA?$DN?$AA?5?$AA0?$AA?$AA@ 0000000180034b98     common.obj
 0002:00008bb0       ??_C@_07CIFAGBMG@unknown?$AA@ 0000000180034bb0     common.obj
 0002:00008bb8       ??_C@_04DAMGJPCA@file?$AA@ 0000000180034bb8     common.obj
 0002:00008bc0       ??_C@_06HOHPNJLC@buffer?$AA@ 0000000180034bc0     common.obj
 0002:00008bc8       ??_C@_07HAFFKDBK@density?$AA@ 0000000180034bc8     common.obj
 0002:00008bd0       ??_C@_0M@FNJPIKDJ@rawChannels?$AA@ 0000000180034bd0     common.obj
 0002:00008be0       ??_C@_08DNBMCCIG@rawWidth?$AA@ 0000000180034be0     common.obj
 0002:00008bf0       ??_C@_09BDNNJGFJ@rawHeight?$AA@ 0000000180034bf0     common.obj
 0002:00008bfc       ??_C@_04GNPKBLNA@?4jpg?$AA@ 0000000180034bfc     common.obj
 0002:00008c04       ??_C@_05KPIGABMB@?4jpeg?$AA@ 0000000180034c04     common.obj
 0002:00008c0c       ??_C@_04GAABNGKM@?4JPG?$AA@ 0000000180034c0c     common.obj
 0002:00008c14       ??_C@_05GDLMODLJ@?4JPEG?$AA@ 0000000180034c14     common.obj
 0002:00008c1c       ??_C@_04EEOGCCFB@?4png?$AA@ 0000000180034c1c     common.obj
 0002:00008c24       ??_C@_04EJBNOPCN@?4PNG?$AA@ 0000000180034c24     common.obj
 0002:00008c2c       ??_C@_05FAPNGHEM@?4webp?$AA@ 0000000180034c2c     common.obj
 0002:00008c34       ??_C@_05JMMHIFDE@?4WEBP?$AA@ 0000000180034c34     common.obj
 0002:00008c3c       ??_C@_04NHNAJCMC@?4tif?$AA@ 0000000180034c3c     common.obj
 0002:00008c44       ??_C@_05EGBKLPCP@?4tiff?$AA@ 0000000180034c44     common.obj
 0002:00008c4c       ??_C@_04NKCLFPLO@?4TIF?$AA@ 0000000180034c4c     common.obj
 0002:00008c54       ??_C@_05IKCAFNFH@?4TIFF?$AA@ 0000000180034c54     common.obj
 0002:00008c5c       ??_C@_04BODBMELL@?4dzi?$AA@ 0000000180034c5c     common.obj
 0002:00008c64       ??_C@_04BDMKAJMH@?4DZI?$AA@ 0000000180034c64     common.obj
 0002:00008c6c       ??_C@_04CLJHFACG@?4zip?$AA@ 0000000180034c6c     common.obj
 0002:00008c74       ??_C@_04CGGMJNFK@?4ZIP?$AA@ 0000000180034c74     common.obj
 0002:00008c7c       ??_C@_04NDPPKLJN@?4szi?$AA@ 0000000180034c7c     common.obj
 0002:00008c84       ??_C@_04NOAEGGOB@?4SZI?$AA@ 0000000180034c84     common.obj
 0002:00008c8c       ??_C@_02ELAIJDHH@?4v?$AA@  0000000180034c8c     common.obj
 0002:00008c90       ??_C@_02NOIMLHNF@?4V?$AA@  0000000180034c90     common.obj
 0002:00008c94       ??_C@_05BDMENFJJ@?4vips?$AA@ 0000000180034c94     common.obj
 0002:00008c9c       ??_C@_05NPPODHOB@?4VIPS?$AA@ 0000000180034c9c     common.obj
 0002:00008ca4       ??_C@_04OFMADDDJ@jpeg?$AA@ 0000000180034ca4     common.obj
 0002:00008cac       ??_C@_03NNHBJLDF@png?$AA@  0000000180034cac     common.obj
 0002:00008cb0       ??_C@_04BKLLFFLE@webp?$AA@ 0000000180034cb0     common.obj
 0002:00008cb8       ??_C@_04MFMINNH@tiff?$AA@  0000000180034cb8     common.obj
 0002:00008cc0       ??_C@_03MOLNDNH@gif?$AA@   0000000180034cc0     common.obj
 0002:00008cc4       ??_C@_03NNPBMGBD@svg?$AA@  0000000180034cc4     common.obj
 0002:00008cc8       ??_C@_03MJPNCPKC@pdf?$AA@  0000000180034cc8     common.obj
 0002:00008ccc       ??_C@_06OKPOAFJK@magick?$AA@ 0000000180034ccc     common.obj
 0002:00008cd8       ??_C@_09EPLGDDHC@openslide?$AA@ 0000000180034cd8     common.obj
 0002:00008ce4       ??_C@_03DBCGPNMF@ppm?$AA@  0000000180034ce4     common.obj
 0002:00008ce8       ??_C@_04DOGLNIDP@fits?$AA@ 0000000180034ce8     common.obj
 0002:00008cf0       ??_C@_01MHEDDDHA@v?$AA@    0000000180034cf0     common.obj
 0002:00008cf4       ??_C@_03DGOGAGNC@raw?$AA@  0000000180034cf4     common.obj
 0002:00008cf8       ??_C@_0L@EJFNCHAG@JpegBuffer?$AA@ 0000000180034cf8     common.obj
 0002:00008d08       ??_C@_09DILPCCPK@PngBuffer?$AA@ 0000000180034d08     common.obj
 0002:00008d18       ??_C@_0L@PPKHLBJN@WebpBuffer?$AA@ 0000000180034d18     common.obj
 0002:00008d28       ??_C@_0L@JLEBFOLC@TiffBuffer?$AA@ 0000000180034d28     common.obj
 0002:00008d38       ??_C@_09FFAGNFDM@GifBuffer?$AA@ 0000000180034d38     common.obj
 0002:00008d48       ??_C@_09MEJAHJJA@SvgBuffer?$AA@ 0000000180034d48     common.obj
 0002:00008d58       ??_C@_09GBDLKIPK@PdfBuffer?$AA@ 0000000180034d58     common.obj
 0002:00008d68       ??_C@_0N@NGPOAFON@MagickBuffer?$AA@ 0000000180034d68     common.obj
 0002:00008d78       ??_C@_08PKLPBHDO@JpegFile?$AA@ 0000000180034d78     common.obj
 0002:00008d84       ??_C@_03HNEDDEAL@Png?$AA@  0000000180034d84     common.obj
 0002:00008d88       ??_C@_08EIBPIBPK@WebpFile?$AA@ 0000000180034d88     common.obj
 0002:00008d98       ??_C@_09OLDAKC@Openslide?$AA@ 0000000180034d98     common.obj
 0002:00008da8       ??_C@_08HPNGNOF@TiffFile?$AA@ 0000000180034da8     common.obj
 0002:00008db8       ??_C@_07LBNMLGNF@GifFile?$AA@ 0000000180034db8     common.obj
 0002:00008dc0       ??_C@_07BDOHLGIG@SvgFile?$AA@ 0000000180034dc0     common.obj
 0002:00008dc8       ??_C@_07KGHFOPCH@PdfFile?$AA@ 0000000180034dc8     common.obj
 0002:00008dd0       ??_C@_03JBBEFCPL@Ppm?$AA@  0000000180034dd0     common.obj
 0002:00008dd4       ??_C@_04PPKKPHDL@Fits?$AA@ 0000000180034dd4     common.obj
 0002:00008ddc       ??_C@_04JIEDMIGF@Vips?$AA@ 0000000180034ddc     common.obj
 0002:00008de4       ??_C@_06CFEDDMAG@Magick?$AA@ 0000000180034de4     common.obj
 0002:00008df0       ??_C@_0L@FAJADDGP@MagickFile?$AA@ 0000000180034df0     common.obj
 0002:00008dfc       ??_C@_06EBPNOMLE@access?$AA@ 0000000180034dfc     common.obj
 0002:00008e04       ??_C@_03IKDBPIAJ@dpi?$AA@  0000000180034e04     common.obj
 0002:00008e08       ??_C@_0CA@OIAJAHMJ@Input?5buffer?5has?5corrupt?5header?$AA@ 0000000180034e08     common.obj
 0002:00008e28       ??_C@_0CP@GJLHFOKI@Input?5buffer?5contains?5unsupporte@ 0000000180034e28     common.obj
 0002:00008e58       ??_C@_0BO@PAEMAFOF@Input?5file?5has?5corrupt?5header?$AA@ 0000000180034e58     common.obj
 0002:00008e78       ??_C@_0DI@LCOLEBMK@Input?5file?5is?5missing?5or?5of?5an?5u@ 0000000180034e78     common.obj
 0002:00008eb0       ??_C@_0BB@KFEJJKPL@icc?9profile?9data?$AA@ 0000000180034eb0     common.obj
 0002:00008ec8       ??_C@_0M@KPMDGEHG@orientation?$AA@ 0000000180034ec8     common.obj
 0002:00008ed4       ??_C@_04LKIGMHAB@Xres?$AA@ 0000000180034ed4     common.obj
 0002:00008edc       ??_C@_04IHOGOOLB@Yres?$AA@ 0000000180034edc     common.obj
 0002:00008ee4       ??_C@_02LMMGJAGL@in?$AA@   0000000180034ee4     common.obj
 0002:00008ee8       ??_C@_0BA@KHBHLNPN@resolution?9unit?$AA@ 0000000180034ee8     common.obj
 0002:00008ef8       ??_C@_05DPGGGHAJ@bands?$AA@ 0000000180034ef8     common.obj
 0002:00008f00       ??_C@_0N@FNCHJOOH@source_space?$AA@ 0000000180034f00     common.obj
 0002:00008f10       ??_C@_0BD@OLBABOEK@vector?$DMT?$DO?5too?5long?$AA@ 0000000180034f10     common.obj
 0002:00008f28       ??_C@_0BI@CFPLBAOH@invalid?5string?5position?$AA@ 0000000180034f28     common.obj
 0002:00008f40       ??_7exception@stdext@@6B@  0000000180034f40     common.obj
 0002:00008f60       ??_C@_1GA@PFOOBIAG@?$AAl?$AAe?$AAn?$AAg?$AAt?$AAh?$AA?5?$AA?$DM?$AA?$DN?$AA?5?$AAi?$AAm?$AAp?$AA?3?$AA?3?$AAk?$AAM?$AAa?$AAx?$AAL?$AAe?$AAn?$AAg?$AAt?$AAh?$AA?5?$AA?$CG?$AA?$CG?$AA?5?$AA?$CC?$AAt?$AAo@ 0000000180034f60     metadata.obj
 0002:00008fc0       ??_C@_09DMAGDGFG@exif?9data?$AA@ 0000000180034fc0     metadata.obj
 0002:00008fcc       ??_C@_06DLEPGFEF@format?$AA@ 0000000180034fcc     metadata.obj
 0002:00008fd4       ??_C@_05IGKADHGO@width?$AA@ 0000000180034fd4     metadata.obj
 0002:00008fdc       ??_C@_06LNLHEAAG@height?$AA@ 0000000180034fdc     metadata.obj
 0002:00008fe4       ??_C@_05OLNILLAB@space?$AA@ 0000000180034fe4     metadata.obj
 0002:00008ff0       ??_C@_08PAMBCCJ@channels?$AA@ 0000000180034ff0     metadata.obj
 0002:00009000       ??_C@_0L@FHAMLBLJ@hasProfile?$AA@ 0000000180035000     metadata.obj
 0002:00009010       ??_C@_08PGFHIBBJ@hasAlpha?$AA@ 0000000180035010     metadata.obj
 0002:0000901c       ??_C@_04LCCFEECC@exif?$AA@ 000000018003501c     metadata.obj
 0002:00009024       ??_C@_03JMNENFHH@icc?$AA@  0000000180035024     metadata.obj
 0002:00009028       ??_C@_05DFJCHPDH@input?$AA@ 0000000180035028     metadata.obj
 0002:00009030       ??_7AsyncWorker@Nan@@6B@   0000000180035030     metadata.obj
 0002:00009060       ??_7MetadataWorker@@6B@    0000000180035060     metadata.obj
 0002:00009090       ??_C@_06BPBOMFNI@extend?$AA@ 0000000180035090     operations.obj
 0002:00009098       ??_C@_0L@EGCKCJDC@background?$AA@ 0000000180035098     operations.obj
 0002:000090a8       ??_C@_0CJ@GMMNIMCE@Overlay?5image?5must?5have?5an?5alpha@ 00000001800350a8     operations.obj
 0002:000090d8       ??_C@_0DA@JDCCBCFP@Image?5to?5be?5overlaid?5must?5have?5a@ 00000001800350d8     operations.obj
 0002:00009108       ??_C@_0DD@HGKGMJEI@Overlay?5image?5must?5have?5same?5dim@ 0000000180035108     operations.obj
 0002:0000913c       ??_C@_01EFFIKLCJ@n?$AA@    000000018003513c     operations.obj
 0002:00009140       ??_C@_0DF@OKFIIGFK@Overlay?5image?5must?5have?5an?5alpha@ 0000000180035140     operations.obj
 0002:00009178       ??_C@_08EGJNFMPO@exponent?$AA@ 0000000180035178     operations.obj
 0002:00009184       ??_C@_05MHMEBBGO@scale?$AA@ 0000000180035184     operations.obj
 0002:0000918c       ??_C@_06KLHHMIGM@offset?$AA@ 000000018003518c     operations.obj
 0002:00009194       ??_C@_05MNLBPJCA@sigma?$AA@ 0000000180035194     operations.obj
 0002:0000919c       ??_C@_02IGOMHJCM@m1?$AA@   000000018003519c     operations.obj
 0002:000091a0       ??_C@_02KNMBCKOP@m2?$AA@   00000001800351a0     operations.obj
 0002:000091a8       ??_C@_0L@MICNGMNL@tile_width?$AA@ 00000001800351a8     operations.obj
 0002:000091b8       ??_C@_0M@GPCIKFO@tile_height?$AA@ 00000001800351b8     operations.obj
 0002:000091c8       ??_C@_09OGDDKPHL@max_tiles?$AA@ 00000001800351c8     operations.obj
 0002:000091d8       ??_C@_08MLOCAEKM@threaded?$AA@ 00000001800351d8     operations.obj
 0002:000091e8       ??_C@_0P@KOMFEOGE@interpretation?$AA@ 00000001800351e8     operations.obj
 0002:000091f8       ??_C@_0DM@EHHONNDC@Unexpected?5error?5while?5trimming?4@ 00000001800351f8     operations.obj
 0002:00009234       ??_C@_00CNPNBAHC@?$AA@     0000000180035234     pipeline.obj
 0002:00009238       ??_C@_05JGNPNNFP@4?32?30?$AA@ 0000000180035238     pipeline.obj
 0002:00009240       ??_C@_08DIHJGEJL@sRGB?4icc?$AA@ 0000000180035240     pipeline.obj
 0002:00009250       ??_C@_08IOCIMAEE@cmyk?4icm?$AA@ 0000000180035250     pipeline.obj
 0002:00009260       ??_C@_0CA@EEKNMMGH@Input?5image?5exceeds?5pixel?5limit?$AA@ 0000000180035260     pipeline.obj
 0002:00009280       ??_C@_06FKMIDIGA@shrink?$AA@ 0000000180035280     pipeline.obj
 0002:00009288       ??_C@_08JHIHEPEE@embedded?$AA@ 0000000180035288     pipeline.obj
 0002:00009294       ??_C@_06EHPDFMHL@intent?$AA@ 0000000180035294     pipeline.obj
 0002:000092a0       ??_C@_0O@CGLCIOGA@input_profile?$AA@ 00000001800352a0     pipeline.obj
 0002:000092b0       ??_C@_0P@EOHEPKJF@Unknown?5kernel?$AA@ 00000001800352b0     pipeline.obj
 0002:000092c0       ??_C@_06GMKELIII@kernel?$AA@ 00000001800352c0     pipeline.obj
 0002:000092c8       ??_C@_06NFEDFCL@centre?$AA@ 00000001800352c8     pipeline.obj
 0002:000092d0       ??_C@_0M@LFLAJNDD@interpolate?$AA@ 00000001800352d0     pipeline.obj
 0002:000092e0       ??_C@_0DO@PDNPJCDI@Cannot?5extract?5channel?5from?5imag@ 00000001800352e0     pipeline.obj
 0002:00009320       ??_C@_05GGNGIGHC@strip?$AA@ 0000000180035320     pipeline.obj
 0002:00009328       ??_C@_01BNIGIBBF@Q?$AA@    0000000180035328     pipeline.obj
 0002:00009330       ??_C@_09JPBLFCFG@interlace?$AA@ 0000000180035330     pipeline.obj
 0002:0000933c       ??_C@_05NHNIEHIH@4?34?34?$AA@ 000000018003533c     pipeline.obj
 0002:00009348       ??_C@_0N@MNGIACEA@no_subsample?$AA@ 0000000180035348     pipeline.obj
 0002:00009358       ??_C@_0O@FKIFMLAH@trellis_quant?$AA@ 0000000180035358     pipeline.obj
 0002:00009368       ??_C@_0BE@LIFHAJLE@overshoot_deringing?$AA@ 0000000180035368     pipeline.obj
 0002:00009380       ??_C@_0P@BDAPCNGM@optimize_scans?$AA@ 0000000180035380     pipeline.obj
 0002:00009390       ??_C@_0BA@DPHOAEGB@optimize_coding?$AA@ 0000000180035390     pipeline.obj
 0002:000093a0       ??_C@_0M@DGJEMLOB@compression?$AA@ 00000001800353a0     pipeline.obj
 0002:000093ac       ??_C@_06EOIELIPE@filter?$AA@ 00000001800353ac     pipeline.obj
 0002:000093b8       ??_C@_08PIMDPPGO@lossless?$AA@ 00000001800353b8     pipeline.obj
 0002:000093c8       ??_C@_0O@MGENDHHD@near_lossless?$AA@ 00000001800353c8     pipeline.obj
 0002:000093d8       ??_C@_07LKLECGDD@alpha_q?$AA@ 00000001800353d8     pipeline.obj
 0002:000093e0       ??_C@_0DA@OEPBKHDN@Could?5not?5allocate?5enough?5memory@ 00000001800353e0     pipeline.obj
 0002:00009410       ??_C@_0BL@IBFNPJMG@Unsupported?5output?5format?5?$AA@ 0000000180035410     pipeline.obj
 0002:0000942c       ??_C@_02JKLANEGN@dz?$AA@   000000018003542c     pipeline.obj
 0002:00009430       ??_C@_04HCDDPBNL@TRUE?$AA@ 0000000180035430     pipeline.obj
 0002:00009438       ??_C@_05MAJJAKPI@FALSE?$AA@ 0000000180035438     pipeline.obj
 0002:00009440       ??_C@_03NFKEKGGK@all?$AA@  0000000180035440     pipeline.obj
 0002:00009444       ??_C@_04CGFJFPFD@none?$AA@ 0000000180035444     pipeline.obj
 0002:00009450       ??_C@_09JLFLJPC@tile_size?$AA@ 0000000180035450     pipeline.obj
 0002:00009460       ??_C@_07NAFPMKIM@overlap?$AA@ 0000000180035460     pipeline.obj
 0002:00009468       ??_C@_09KHFPHLHC@container?$AA@ 0000000180035468     pipeline.obj
 0002:00009474       ??_C@_06GDMDKJEN@layout?$AA@ 0000000180035474     pipeline.obj
 0002:0000947c       ??_C@_06EMCDFPCG@suffix?$AA@ 000000018003547c     pipeline.obj
 0002:00009488       ??_C@_0N@BBHMIKHL@cropCalcLeft?$AA@ 0000000180035488     pipeline.obj
 0002:00009498       ??_C@_0M@KOELNNIP@cropCalcTop?$AA@ 0000000180035498     pipeline.obj
 0002:000094a4       ??_C@_04IAGNFIBA@size?$AA@ 00000001800354a4     pipeline.obj
 0002:000094ac       ??_C@_01IHBHIGKO@?0?$AA@   00000001800354ac     pipeline.obj
 0002:000094b0       ??_C@_01NEMOKFLO@?$DN?$AA@ 00000001800354b0     pipeline.obj
 0002:000094b4       ??_C@_01LBDDMOBJ@?$FN?$AA@ 00000001800354b4     pipeline.obj
 0002:000094b8       ??_C@_01OHGJGJJP@?$FL?$AA@ 00000001800354b8     pipeline.obj
 0002:000094c0       ??_C@_0P@FEJLNJHN@iccProfilePath?$AA@ 00000001800354c0     pipeline.obj
 0002:000094d0       ??_C@_0P@DEOGMFMC@sequentialRead?$AA@ 00000001800354d0     pipeline.obj
 0002:000094e0       ??_C@_0BB@JFIFEMIM@limitInputPixels?$AA@ 00000001800354e0     pipeline.obj
 0002:000094f8       ??_C@_0N@HFHHDNPE@topOffsetPre?$AA@ 00000001800354f8     pipeline.obj
 0002:00009508       ??_C@_0O@EJHBCKPJ@leftOffsetPre?$AA@ 0000000180035508     pipeline.obj
 0002:00009518       ??_C@_08IAGKMJAO@widthPre?$AA@ 0000000180035518     pipeline.obj
 0002:00009528       ??_C@_09CFADDJFL@heightPre?$AA@ 0000000180035528     pipeline.obj
 0002:00009538       ??_C@_0O@ELCOKNEK@topOffsetPost?$AA@ 0000000180035538     pipeline.obj
 0002:00009548       ??_C@_0P@DFKDNHOA@leftOffsetPost?$AA@ 0000000180035548     pipeline.obj
 0002:00009558       ??_C@_09BGLDKLLM@widthPost?$AA@ 0000000180035558     pipeline.obj
 0002:00009568       ??_C@_0L@NBHGHDH@heightPost?$AA@ 0000000180035568     pipeline.obj
 0002:00009574       ??_C@_06DODEBHEI@canvas?$AA@ 0000000180035574     pipeline.obj
 0002:0000957c       ??_C@_04EKMNJIID@crop?$AA@ 000000018003557c     pipeline.obj
 0002:00009584       ??_C@_05KJAEOLKJ@embed?$AA@ 0000000180035584     pipeline.obj
 0002:0000958c       ??_C@_03LJAEFNNE@max?$AA@  000000018003558c     pipeline.obj
 0002:00009590       ??_C@_03KLIPLJLL@min?$AA@  0000000180035590     pipeline.obj
 0002:00009598       ??_C@_0O@EBNBJBNA@ignore_aspect?$AA@ 0000000180035598     pipeline.obj
 0002:000095a8       ??_C@_07BJNHBMF@overlay?$AA@ 00000001800355a8     pipeline.obj
 0002:000095b0       ??_C@_0P@MJMPJDFA@overlayGravity?$AA@ 00000001800355b0     pipeline.obj
 0002:000095c0       ??_C@_0P@EPOLNDIO@overlayXOffset?$AA@ 00000001800355c0     pipeline.obj
 0002:000095d0       ??_C@_0P@IDEBNDBA@overlayYOffset?$AA@ 00000001800355d0     pipeline.obj
 0002:000095e0       ??_C@_0M@HFLCKELG@overlayTile?$AA@ 00000001800355e0     pipeline.obj
 0002:000095f0       ??_C@_0O@JDANFBLD@overlayCutout?$AA@ 00000001800355f0     pipeline.obj
 0002:00009600       ??_C@_0BD@OBKKOCNN@withoutEnlargement?$AA@ 0000000180035600     pipeline.obj
 0002:00009618       ??_C@_0N@KPPLEPCJ@interpolator?$AA@ 0000000180035618     pipeline.obj
 0002:00009628       ??_C@_0P@PFAMLOFI@centreSampling?$AA@ 0000000180035628     pipeline.obj
 0002:00009638       ??_C@_0O@CNGDBBAO@joinChannelIn?$AA@ 0000000180035638     pipeline.obj
 0002:00009648       ??_C@_06IJDLPEM@length?$AA@ 0000000180035648     pipeline.obj
 0002:00009650       ??_C@_07FOIKENOC@flatten?$AA@ 0000000180035650     pipeline.obj
 0002:00009658       ??_C@_06CNJONIF@negate?$AA@ 0000000180035658     pipeline.obj
 0002:00009660       ??_C@_09GIFHMNMI@blurSigma?$AA@ 0000000180035660     pipeline.obj
 0002:00009670       ??_C@_0N@INAMFHGE@sharpenSigma?$AA@ 0000000180035670     pipeline.obj
 0002:00009680       ??_C@_0M@DOLMPNLL@sharpenFlat?$AA@ 0000000180035680     pipeline.obj
 0002:00009690       ??_C@_0O@DNGCBEHN@sharpenJagged?$AA@ 0000000180035690     pipeline.obj
 0002:000096a0       ??_C@_09DEHKFMCJ@threshold?$AA@ 00000001800356a0     pipeline.obj
 0002:000096b0       ??_C@_0BD@LFFDJFMK@thresholdGrayscale?$AA@ 00000001800356b0     pipeline.obj
 0002:000096c8       ??_C@_0O@CPCBNIGC@trimTolerance?$AA@ 00000001800356c8     pipeline.obj
 0002:000096d8       ??_C@_05KDLBCAI@gamma?$AA@ 00000001800356d8     pipeline.obj
 0002:000096e0       ??_C@_09JJBJBHMG@greyscale?$AA@ 00000001800356e0     pipeline.obj
 0002:000096f0       ??_C@_09MDOMOBCG@normalise?$AA@ 00000001800356f0     pipeline.obj
 0002:000096fc       ??_C@_05FECBCJJD@angle?$AA@ 00000001800356fc     pipeline.obj
 0002:00009708       ??_C@_0BH@LDFMOEDF@rotateBeforePreExtract?$AA@ 0000000180035708     pipeline.obj
 0002:00009720       ??_C@_04DGGGELON@flip?$AA@ 0000000180035720     pipeline.obj
 0002:00009728       ??_C@_04DCOLDHFP@flop?$AA@ 0000000180035728     pipeline.obj
 0002:00009730       ??_C@_09OHMDBHOB@extendTop?$AA@ 0000000180035730     pipeline.obj
 0002:00009740       ??_C@_0N@CJMFAMOE@extendBottom?$AA@ 0000000180035740     pipeline.obj
 0002:00009750       ??_C@_0L@LLDPEOOO@extendLeft?$AA@ 0000000180035750     pipeline.obj
 0002:00009760       ??_C@_0M@FNPGPPFI@extendRight?$AA@ 0000000180035760     pipeline.obj
 0002:00009770       ??_C@_0P@JCBGLICH@extractChannel?$AA@ 0000000180035770     pipeline.obj
 0002:00009780       ??_C@_07GOBOHMJA@boolean?$AA@ 0000000180035780     pipeline.obj
 0002:00009788       ??_C@_09HMALGKBI@booleanOp?$AA@ 0000000180035788     pipeline.obj
 0002:00009798       ??_C@_0L@HGLIDICA@bandBoolOp?$AA@ 0000000180035798     pipeline.obj
 0002:000097a8       ??_C@_0L@ECLGICGD@convKernel?$AA@ 00000001800357a8     pipeline.obj
 0002:000097b8       ??_C@_0M@GKGJPELG@colourspace?$AA@ 00000001800357b8     pipeline.obj
 0002:000097c8       ??_C@_09FCKGNCNB@formatOut?$AA@ 00000001800357c8     pipeline.obj
 0002:000097d8       ??_C@_07GGINOJKC@fileOut?$AA@ 00000001800357d8     pipeline.obj
 0002:000097e0       ??_C@_0N@KCFDEJAE@withMetadata?$AA@ 00000001800357e0     pipeline.obj
 0002:000097f0       ??_C@_0BI@ECBJEELE@withMetadataOrientation?$AA@ 00000001800357f0     pipeline.obj
 0002:00009808       ??_C@_0M@OEDMDMIO@jpegQuality?$AA@ 0000000180035808     pipeline.obj
 0002:00009818       ??_C@_0BA@CLCIEFBH@jpegProgressive?$AA@ 0000000180035818     pipeline.obj
 0002:00009828       ??_C@_0BG@LLJOOGEK@jpegChromaSubsampling?$AA@ 0000000180035828     pipeline.obj
 0002:00009840       ??_C@_0BI@HMEGNPHB@jpegTrellisQuantisation?$AA@ 0000000180035840     pipeline.obj
 0002:00009858       ??_C@_0BH@GJOPAFDP@jpegOvershootDeringing?$AA@ 0000000180035858     pipeline.obj
 0002:00009870       ??_C@_0BC@IMPEKCHA@jpegOptimiseScans?$AA@ 0000000180035870     pipeline.obj
 0002:00009888       ??_C@_0P@JCIKABOD@pngProgressive?$AA@ 0000000180035888     pipeline.obj
 0002:00009898       ??_C@_0BE@PJPJKLFH@pngCompressionLevel?$AA@ 0000000180035898     pipeline.obj
 0002:000098b0       ??_C@_0BF@NMJJOHJB@pngAdaptiveFiltering?$AA@ 00000001800358b0     pipeline.obj
 0002:000098c8       ??_C@_0M@IDFHIMNE@webpQuality?$AA@ 00000001800358c8     pipeline.obj
 0002:000098d8       ??_C@_0BB@FICNLBDG@webpAlphaQuality?$AA@ 00000001800358d8     pipeline.obj
 0002:000098f0       ??_C@_0N@BKMIOEEE@webpLossless?$AA@ 00000001800358f0     pipeline.obj
 0002:00009900       ??_C@_0BB@MGEBKHBO@webpNearLossless?$AA@ 0000000180035900     pipeline.obj
 0002:00009918       ??_C@_0M@CIOCFHGC@tiffQuality?$AA@ 0000000180035918     pipeline.obj
 0002:00009928       ??_C@_08BHEDAFJG@tileSize?$AA@ 0000000180035928     pipeline.obj
 0002:00009938       ??_C@_0M@OGCEIDPP@tileOverlap?$AA@ 0000000180035938     pipeline.obj
 0002:00009948       ??_C@_0O@KMENJOAI@tileContainer?$AA@ 0000000180035948     pipeline.obj
 0002:00009958       ??_C@_03LCAAOJEC@zip?$AA@  0000000180035958     pipeline.obj
 0002:00009960       ??_C@_0L@BLMACMOH@tileLayout?$AA@ 0000000180035960     pipeline.obj
 0002:0000996c       ??_C@_06DBPEGNOF@google?$AA@ 000000018003596c     pipeline.obj
 0002:00009978       ??_C@_07LGDKFCBF@zoomify?$AA@ 0000000180035978     pipeline.obj
 0002:00009980       ??_C@_0L@EDEMOAOP@tileFormat?$AA@ 0000000180035980     pipeline.obj
 0002:00009990       ??_C@_0O@JFLKJFFB@queueListener?$AA@ 0000000180035990     pipeline.obj
 0002:000099a0       ??_C@_0BE@JONHPENG@map?1set?$DMT?$DO?5too?5long?$AA@ 00000001800359a0     pipeline.obj
 0002:000099b8       ??_7?$_Func_impl@UEntropyStrategy@sharp@@V?$allocator@H@std@@NVVImage@vips@@@std@@6B@ 00000001800359b8     pipeline.obj
 0002:000099e8       ??_7?$_Func_base@NVVImage@vips@@@std@@6B@ 00000001800359e8     pipeline.obj
 0002:00009a20       __pfnDliNotifyHook2        0000000180035a20     win_delay_load_hook.obj
 0002:00009a28       ??_7PipelineWorker@@6B@    0000000180035a28     pipeline.obj
 0002:00009a58       ??_7?$_Func_impl@UAttentionStrategy@sharp@@V?$allocator@H@std@@NVVImage@vips@@@std@@6B@ 0000000180035a58     pipeline.obj
 0002:00009a88       ??_C@_05JBBJEIBB@sharp?$AA@ 0000000180035a88     sharp.obj
 0002:00009a90       ??_C@_08DHGINADL@metadata?$AA@ 0000000180035a90     sharp.obj
 0002:00009aa0       ??_C@_08NCIPIGNL@pipeline?$AA@ 0000000180035aa0     sharp.obj
 0002:00009aac       ??_C@_05BDNCCAMC@cache?$AA@ 0000000180035aac     sharp.obj
 0002:00009ab8       ??_C@_0M@FFOAFBMD@concurrency?$AA@ 0000000180035ab8     sharp.obj
 0002:00009ac8       ??_C@_08KKLAKCLE@counters?$AA@ 0000000180035ac8     sharp.obj
 0002:00009ad4       ??_C@_04IABPNMKE@simd?$AA@ 0000000180035ad4     sharp.obj
 0002:00009ae0       ??_C@_0P@PAMOCECJ@libvipsVersion?$AA@ 0000000180035ae0     sharp.obj
 0002:00009af0       ??_C@_0BD@OKKEIJGD@_maxColourDistance?$AA@ 0000000180035af0     sharp.obj
 0002:00009b08       ??_C@_0BA@PFJFAGKD@?4?4?2src?2sharp?4cc?$AA@ 0000000180035b08     sharp.obj
 0002:00009b18       ??_C@_07LKPDDKMO@current?$AA@ 0000000180035b18     utilities.obj
 0002:00009b20       ??_C@_04DGANLAON@high?$AA@ 0000000180035b20     utilities.obj
 0002:00009b28       ??_C@_06HLKELJGF@memory?$AA@ 0000000180035b28     utilities.obj
 0002:00009b30       ??_C@_05DPEMMMGC@files?$AA@ 0000000180035b30     utilities.obj
 0002:00009b38       ??_C@_05CFHBDDLG@items?$AA@ 0000000180035b38     utilities.obj
 0002:00009b40       ??_C@_05PJDJNNOP@queue?$AA@ 0000000180035b40     utilities.obj
 0002:00009b48       ??_C@_07DEBHDLBL@process?$AA@ 0000000180035b48     utilities.obj
 0002:00009b50       ??_C@_08FOJKHHJA@?$CFd?4?$CFd?4?$CFd?$AA@ 0000000180035b50     utilities.obj
 0002:00009b5c       ??_C@_02EGCJHIOB@id?$AA@   0000000180035b5c     utilities.obj
 0002:00009b60       ??_C@_06DKIGHACF@output?$AA@ 0000000180035b60     utilities.obj
 0002:00009b68       ??_C@_06DJAMKFID@stream?$AA@ 0000000180035b68     utilities.obj
 0002:00009b70       ??_C@_04EONOHKEP@load?$AA@ 0000000180035b70     utilities.obj
 0002:00009b78       ??_C@_0O@HGKOHLML@VipsOperation?$AA@ 0000000180035b78     utilities.obj
 0002:00009b88       ??_C@_0M@MFBONNFI@load_buffer?$AA@ 0000000180035b88     utilities.obj
 0002:00009b94       ??_C@_04EMMDIJJL@save?$AA@ 0000000180035b94     utilities.obj
 0002:00009ba0       ??_C@_0M@DLONAKAB@save_buffer?$AA@ 0000000180035ba0     utilities.obj
 0002:00009bb0       ??_C@_0CA@DONHLNKM@Input?5file?51?5has?5corrupt?5header?$AA@ 0000000180035bb0     utilities.obj
 0002:00009bd0       ??_C@_0CP@BLBKEBMA@Input?5file?51?5is?5of?5an?5unsupporte@ 0000000180035bd0     utilities.obj
 0002:00009c00       ??_C@_0CA@EFMJDPEP@Input?5file?52?5has?5corrupt?5header?$AA@ 0000000180035c00     utilities.obj
 0002:00009c20       ??_C@_0CP@HPPKDKDO@Input?5file?52?5is?5of?5an?5unsupporte@ 0000000180035c20     utilities.obj
 0002:00009c50       ??_C@_0BA@HJLAGCNF@mismatchedBands?$AA@ 0000000180035c50     utilities.obj
 0002:00009c60       ??_C@_0BF@NPFPPJPF@mismatchedDimensions?$AA@ 0000000180035c60     utilities.obj
 0002:00009c78       ??_C@_08HCOMDCCD@iojs?4exe?$AA@ 0000000180035c78     win_delay_load_hook.obj
 0002:00009c88       ??_C@_08JDDNMFDB@node?4exe?$AA@ 0000000180035c88     win_delay_load_hook.obj
 0002:0000a0a8       __real@3f70101010101010    00000001800360a8     operations.obj
 0002:0000a0b0       __real@3fb27bb2fec56d5d    00000001800360b0     pipeline.obj
 0002:0000a0b8       __real@3fc0000000000000    00000001800360b8     operations.obj
 0002:0000a0c0       __real@3fcb367a0f9096bc    00000001800360c0     pipeline.obj
 0002:0000a0c8       __real@3fe6e2eb1c432ca5    00000001800360c8     pipeline.obj
 0002:0000a0d0       __real@3ff0000000000000    00000001800360d0     operations.obj
 0002:0000a0d8       __real@3ff3333333333333    00000001800360d8     operations.obj
 0002:0000a0e0       __real@4000000000000000    00000001800360e0     operations.obj
 0002:0000a0e8       __real@4008000000000000    00000001800360e8     operations.obj
 0002:0000a0f0       __real@4010000000000000    00000001800360f0     operations.obj
 0002:0000a0f8       __real@4022000000000000    00000001800360f8     operations.obj
 0002:0000a100       __real@4024000000000000    0000000180036100     operations.obj
 0002:0000a108       __real@4036000000000000    0000000180036108     operations.obj
 0002:0000a110       __real@4038000000000000    0000000180036110     operations.obj
 0002:0000a118       __real@4039666666666666    0000000180036118     common.obj
 0002:0000a120       __real@403f000000000000    0000000180036120     operations.obj
 0002:0000a128       __real@4040000000000000    0000000180036128     operations.obj
 0002:0000a130       __real@404e000000000000    0000000180036130     operations.obj
 0002:0000a138       __real@4059000000000000    0000000180036138     operations.obj
 0002:0000a140       __real@4060000000000000    0000000180036140     operations.obj
 0002:0000a148       __real@406fe00000000000    0000000180036148     operations.obj
 0002:0000a150       __real@4070000000000000    0000000180036150     pipeline.obj
 0002:0000a158       __real@40e0000000000000    0000000180036158     operations.obj
 0002:0000a160       __real@40efffe000000000    0000000180036160     common.obj
 0002:0000a168       __real@43f0000000000000    0000000180036168     utilities.obj
 0002:0000a170       __real@bff0000000000000    0000000180036170     operations.obj
 0002:0000a178       __real@c000000000000000    0000000180036178     operations.obj
 0002:0000a180       __xmm@00000000000000003ff0000000000000 0000000180036180     pipeline.obj
 0002:0000a190       __xmm@3ff00000000000003ff0000000000000 0000000180036190     operations.obj
 0002:0000a1a0       __xmm@80000000000000008000000000000000 00000001800361a0     operations.obj
 0002:0000a1b0       __xmm@bff0000000000000bff0000000000000 00000001800361b0     operations.obj
 0002:0000ac68       ??_R4exception@std@@6B@    0000000180036c68     libcpmt:xthrow.obj
 0002:0000ac90       ??_R3exception@std@@8      0000000180036c90     libcpmt:xthrow.obj
 0002:0000aca8       ??_R2exception@std@@8      0000000180036ca8     libcpmt:xthrow.obj
 0002:0000acb8       ??_R1A@?0A@EA@exception@std@@8 0000000180036cb8     libcpmt:xthrow.obj
 0002:0000ace0       ??_R4bad_alloc@std@@6B@    0000000180036ce0     libcpmt:xthrow.obj
 0002:0000ad08       ??_R3bad_alloc@std@@8      0000000180036d08     libcpmt:xthrow.obj
 0002:0000ad20       ??_R2bad_alloc@std@@8      0000000180036d20     libcpmt:xthrow.obj
 0002:0000ad38       ??_R1A@?0A@EA@bad_alloc@std@@8 0000000180036d38     libcpmt:xthrow.obj
 0002:0000ad60       ??_R4logic_error@std@@6B@  0000000180036d60     libcpmt:xthrow.obj
 0002:0000ad88       ??_R3logic_error@std@@8    0000000180036d88     libcpmt:xthrow.obj
 0002:0000ada0       ??_R2logic_error@std@@8    0000000180036da0     libcpmt:xthrow.obj
 0002:0000adb8       ??_R1A@?0A@EA@logic_error@std@@8 0000000180036db8     libcpmt:xthrow.obj
 0002:0000ade0       ??_R4length_error@std@@6B@ 0000000180036de0     libcpmt:xthrow.obj
 0002:0000ae08       ??_R3length_error@std@@8   0000000180036e08     libcpmt:xthrow.obj
 0002:0000ae20       ??_R2length_error@std@@8   0000000180036e20     libcpmt:xthrow.obj
 0002:0000ae40       ??_R1A@?0A@EA@length_error@std@@8 0000000180036e40     libcpmt:xthrow.obj
 0002:0000ae68       ??_R4out_of_range@std@@6B@ 0000000180036e68     libcpmt:xthrow.obj
 0002:0000ae90       ??_R3out_of_range@std@@8   0000000180036e90     libcpmt:xthrow.obj
 0002:0000aea8       ??_R2out_of_range@std@@8   0000000180036ea8     libcpmt:xthrow.obj
 0002:0000aec8       ??_R1A@?0A@EA@out_of_range@std@@8 0000000180036ec8     libcpmt:xthrow.obj
 0002:0000aef0       ??_R4bad_function_call@std@@6B@ 0000000180036ef0     libcpmt:xthrow.obj
 0002:0000af18       ??_R3bad_function_call@std@@8 0000000180036f18     libcpmt:xthrow.obj
 0002:0000af30       ??_R2bad_function_call@std@@8 0000000180036f30     libcpmt:xthrow.obj
 0002:0000af48       ??_R1A@?0A@EA@bad_function_call@std@@8 0000000180036f48     libcpmt:xthrow.obj
 0002:0000af70       ??_R4type_info@@6B@        0000000180036f70     LIBCMT:std_type_info_static.obj
 0002:0000af98       ??_R3type_info@@8          0000000180036f98     LIBCMT:std_type_info_static.obj
 0002:0000afb0       ??_R2type_info@@8          0000000180036fb0     LIBCMT:std_type_info_static.obj
 0002:0000afc0       ??_R1A@?0A@EA@type_info@@8 0000000180036fc0     LIBCMT:std_type_info_static.obj
 0002:0000afe8       ??_R4bad_array_new_length@std@@6B@ 0000000180036fe8     LIBCMT:throw_bad_alloc.obj
 0002:0000b010       ??_R3bad_array_new_length@std@@8 0000000180037010     LIBCMT:throw_bad_alloc.obj
 0002:0000b028       ??_R2bad_array_new_length@std@@8 0000000180037028     LIBCMT:throw_bad_alloc.obj
 0002:0000b048       ??_R1A@?0A@EA@bad_array_new_length@std@@8 0000000180037048     LIBCMT:throw_bad_alloc.obj
 0002:0000b070       ??_R4bad_exception@std@@6B@ 0000000180037070     libvcruntime:frame.obj
 0002:0000b098       ??_R3bad_exception@std@@8  0000000180037098     libvcruntime:frame.obj
 0002:0000b0b0       ??_R2bad_exception@std@@8  00000001800370b0     libvcruntime:frame.obj
 0002:0000b0c8       ??_R1A@?0A@EA@bad_exception@std@@8 00000001800370c8     libvcruntime:frame.obj
 0002:0000b4f8       __rtc_iaa                  00000001800374f8     LIBCMT:_initsect_.obj
 0002:0000b500       __rtc_izz                  0000000180037500     LIBCMT:_initsect_.obj
 0002:0000b508       __rtc_taa                  0000000180037508     LIBCMT:_initsect_.obj
 0002:0000b510       __rtc_tzz                  0000000180037510     LIBCMT:_initsect_.obj
 0002:000101a8       _TI2?AVbad_alloc@std@@     000000018003c1a8     libcpmt:xthrow.obj
 0002:000101c8       _CTA2?AVbad_alloc@std@@    000000018003c1c8     libcpmt:xthrow.obj
 0002:000101e0       _CT??_R0?AVbad_alloc@std@@@8??0bad_alloc@std@@QEAA@AEBV01@@Z24 000000018003c1e0     libcpmt:xthrow.obj
 0002:00010208       _CT??_R0?AVexception@std@@@8??0exception@std@@QEAA@AEBV01@@Z24 000000018003c208     libcpmt:xthrow.obj
 0002:00010230       _CT??_R0?AVlogic_error@std@@@8??0logic_error@std@@QEAA@AEBV01@@Z24 000000018003c230     libcpmt:xthrow.obj
 0002:00010258       _TI3?AVlength_error@std@@  000000018003c258     libcpmt:xthrow.obj
 0002:00010278       _CTA3?AVlength_error@std@@ 000000018003c278     libcpmt:xthrow.obj
 0002:00010298       _CT??_R0?AVlength_error@std@@@8??0length_error@std@@QEAA@AEBV01@@Z24 000000018003c298     libcpmt:xthrow.obj
 0002:000102c0       _TI3?AVout_of_range@std@@  000000018003c2c0     libcpmt:xthrow.obj
 0002:000102e0       _CTA3?AVout_of_range@std@@ 000000018003c2e0     libcpmt:xthrow.obj
 0002:00010300       _CT??_R0?AVout_of_range@std@@@8??0out_of_range@std@@QEAA@AEBV01@@Z24 000000018003c300     libcpmt:xthrow.obj
 0002:00010328       _TI2?AVbad_function_call@std@@ 000000018003c328     libcpmt:xthrow.obj
 0002:00010348       _CTA2?AVbad_function_call@std@@ 000000018003c348     libcpmt:xthrow.obj
 0002:00010360       _CT??_R0?AVbad_function_call@std@@@8??0bad_function_call@std@@QEAA@AEBV01@@Z24 000000018003c360     libcpmt:xthrow.obj
 0002:00010388       _TI3?AVbad_array_new_length@std@@ 000000018003c388     LIBCMT:throw_bad_alloc.obj
 0002:000103a8       _CTA3?AVbad_array_new_length@std@@ 000000018003c3a8     LIBCMT:throw_bad_alloc.obj
 0002:000103c8       _CT??_R0?AVbad_array_new_length@std@@@8??0bad_array_new_length@std@@QEAA@AEBV01@@Z24 000000018003c3c8     LIBCMT:throw_bad_alloc.obj
 0002:000103f0       _TI2?AVbad_exception@std@@ 000000018003c3f0     libvcruntime:frame.obj
 0002:00010410       _CTA2?AVbad_exception@std@@ 000000018003c410     libvcruntime:frame.obj
 0002:00010428       _CT??_R0?AVbad_exception@std@@@8??0bad_exception@std@@QEAA@AEBV01@@Z24 000000018003c428     libvcruntime:frame.obj
 0002:00010450       _CTA2?AVVError@vips@@      000000018003c450     common.obj
 0002:00010468       _CT??_R0?AVVError@vips@@@848 000000018003c468     common.obj
 0002:00010490       _TI2?AVVError@vips@@       000000018003c490     common.obj
 0002:000104b0       _CT??_R0?AVexception@stdext@@@816 000000018003c4b0     common.obj
 0002:000104d4       __DELAY_IMPORT_DESCRIPTOR_node_exe 000000018003c4d4     node:node.exe
 0002:000104f4       __NULL_DELAY_IMPORT_DESCRIPTOR 000000018003c4f4     node:node.exe
 0002:000106c8       \177node_NULL_THUNK_DATA_DLN 000000018003c6c8     node:node.exe
 0002:000114e8       \177node_NULL_THUNK_DATA_DLB 000000018003d4e8     node:node.exe
 0002:000116f0       __IMPORT_DESCRIPTOR_KERNEL32 000000018003d6f0     kernel32:KERNEL32.dll
 0002:00011704       _head_lib_libvips_lib      000000018003d704     libvips:dmrkh.o
 0002:00011718       _head_lib_libglib_2_0_lib  000000018003d718     libglib-2.0:dgokh.o
 0002:0001172c       __IMPORT_DESCRIPTOR_libvips-cpp 000000018003d72c     libvips-cpp:libvips-cpp.dll
 0002:00011740       __NULL_IMPORT_DESCRIPTOR   000000018003d740     kernel32:KERNEL32.dll
 0002:00013ca0       __lib_libvips_lib_iname    000000018003fca0     libvips:dmrkt.o
 0002:00013cc8       __lib_libglib_2_0_lib_iname 000000018003fcc8     libglib-2.0:dgokt.o
 0003:00000000       __security_cookie          0000000180040000     LIBCMT:gs_cookie.obj
 0003:00000008       __security_cookie_complement 0000000180040008     LIBCMT:gs_cookie.obj
 0003:00000010       __scrt_native_dllmain_reason 0000000180040010     LIBCMT:utility.obj
 0003:00000018       __isa_available            0000000180040018     LIBCMT:_cpu_disp_.obj
 0003:0000001c       __isa_enabled              000000018004001c     LIBCMT:_cpu_disp_.obj
 0003:00000020       __memcpy_nt_iters          0000000180040020     LIBCMT:_cpu_disp_.obj
 0003:00000040       __abort_behavior           0000000180040040     libucrt:abort.obj
 0003:00000050       _iob                       0000000180040050     libucrt:_file.obj
 0003:00000160       __acrt_initial_locale_data 0000000180040160     libucrt:nlsdata.obj
 0003:000002b8       __acrt_initial_locale_pointers 00000001800402b8     libucrt:nlsdata.obj
 0003:000002c8       __acrt_wide_c_locale_string 00000001800402c8     libucrt:nlsdata.obj
 0003:000002d0       __acrt_initial_multibyte_data 00000001800402d0     libucrt:mbctype.obj
 0003:000004f8       __acrt_current_multibyte_data 00000001800404f8     libucrt:mbctype.obj
 0003:00000600       _mbctype                   0000000180040600     libucrt:mbctype.obj
 0003:00000710       _mbcasemap                 0000000180040710     libucrt:mbctype.obj
 0003:00000810       __badioinfo                0000000180040810     libucrt:ioinit.obj
 0003:00000850       _pwctype                   0000000180040850     libucrt:ctype.obj
 0003:00000858       __globallocalestatus       0000000180040858     libucrt:glstatus.obj
 0003:00000860       __acrt_lconv_c             0000000180040860     libucrt:localeconv.obj
 0003:000008f8       __acrt_lconv_static_decimal 00000001800408f8     libucrt:localeconv.obj
 0003:000008fc       __acrt_lconv_static_W_decimal 00000001800408fc     libucrt:localeconv.obj
 0003:00000910       __dcrt_lowio_console_output_handle 0000000180040910     libucrt:initcon.obj
 0003:00000924       _fltused                   0000000180040924     LIBCMT:fltused.obj
 0003:00000970       ??_R0?AVbad_alloc@std@@@8  0000000180040970     libcpmt:xthrow.obj
 0003:00000998       ??_R0?AVexception@std@@@8  0000000180040998     libcpmt:xthrow.obj
 0003:000009c0       ??_R0?AVlogic_error@std@@@8 00000001800409c0     libcpmt:xthrow.obj
 0003:000009e8       ??_R0?AVlength_error@std@@@8 00000001800409e8     libcpmt:xthrow.obj
 0003:00000a10       ??_R0?AVout_of_range@std@@@8 0000000180040a10     libcpmt:xthrow.obj
 0003:00000a38       ??_R0?AVbad_function_call@std@@@8 0000000180040a38     libcpmt:xthrow.obj
 0003:00000a68       ??_R0?AVtype_info@@@8      0000000180040a68     LIBCMT:std_type_info_static.obj
 0003:00000a88       ??_R0?AVbad_array_new_length@std@@@8 0000000180040a88     LIBCMT:throw_bad_alloc.obj
 0003:00000ab8       ??_R0?AVbad_exception@std@@@8 0000000180040ab8     libvcruntime:frame.obj
 0003:00000ae0       ??_R0?AVexception@stdext@@@8 0000000180040ae0     common.obj
 0003:00000b08       ??_R0?AVVError@vips@@@8    0000000180040b08     common.obj
 0003:00000b30       ??_R0?AUAttentionStrategy@sharp@@@8 0000000180040b30     pipeline.obj
 0003:00000b60       ??_R0?AUEntropyStrategy@sharp@@@8 0000000180040b60     pipeline.obj
 0003:00000b90       __imp_?GetCurrentContext@Isolate@v8@@QEAA?AV?$Local@VContext@v8@@@2@XZ 0000000180040b90     node:node.exe
 0003:00000b98       __imp_?GetCurrent@Isolate@v8@@SAPEAV12@XZ 0000000180040b98     node:node.exe
 0003:00000ba0       __imp_??1HandleScope@v8@@QEAA@XZ 0000000180040ba0     node:node.exe
 0003:00000ba8       __imp_??0HandleScope@v8@@QEAA@PEAVIsolate@1@@Z 0000000180040ba8     node:node.exe
 0003:00000bb0       __imp_?ToLocalEmpty@V8@v8@@CAXXZ 0000000180040bb0     node:node.exe
 0003:00000bb8       __imp_?FromJustIsNothing@V8@v8@@CAXXZ 0000000180040bb8     node:node.exe
 0003:00000bc0       __imp_?Uint32Value@Value@v8@@QEBA?AV?$Maybe@I@2@V?$Local@VContext@v8@@@2@@Z 0000000180040bc0     node:node.exe
 0003:00000bc8       __imp_?Escape@EscapableHandleScope@v8@@AEAAPEAPEAVObject@internal@2@PEAPEAV342@@Z 0000000180040bc8     node:node.exe
 0003:00000bd0       __imp_??0EscapableHandleScope@v8@@QEAA@PEAVIsolate@1@@Z 0000000180040bd0     node:node.exe
 0003:00000bd8       __imp_?NewFromUtf8@String@v8@@SA?AV?$MaybeLocal@VString@v8@@@2@PEAVIsolate@2@PEBDW4NewStringType@2@H@Z 0000000180040bd8     node:node.exe
 0003:00000be0       __imp_?WriteUtf8@String@v8@@QEBAHPEADHPEAHH@Z 0000000180040be0     node:node.exe
 0003:00000be8       __imp_?Length@String@v8@@QEBAHXZ 0000000180040be8     node:node.exe
 0003:00000bf0       __imp_?Has@Object@v8@@QEAA?AV?$Maybe@_N@2@V?$Local@VContext@v8@@@2@V?$Local@VValue@v8@@@2@@Z 0000000180040bf0     node:node.exe
 0003:00000bf8       __imp_?Get@Object@v8@@QEAA?AV?$MaybeLocal@VValue@v8@@@2@V?$Local@VContext@v8@@@2@V?$Local@VValue@v8@@@2@@Z 0000000180040bf8     node:node.exe
 0003:00000c00       __imp_?Data@Buffer@node@@YAPEADV?$Local@VObject@v8@@@v8@@@Z 0000000180040c00     node:node.exe
 0003:00000c08       __imp_?Length@Buffer@node@@YA_KV?$Local@VObject@v8@@@v8@@@Z 0000000180040c08     node:node.exe
 0003:00000c10       __imp_?ToString@Value@v8@@QEBA?AV?$Local@VString@v8@@@2@XZ 0000000180040c10     node:node.exe
 0003:00000c18       __imp_??1EscapableHandleScope@v8@@QEAA@XZ 0000000180040c18     node:node.exe
 0003:00000c20       __imp_uv_queue_work        0000000180040c20     node:node.exe
 0003:00000c28       __imp_?Global@Context@v8@@QEAA?AV?$Local@VObject@v8@@@2@XZ 0000000180040c28     node:node.exe
 0003:00000c30       __imp_?NewFromUnsigned@Integer@v8@@SA?AV?$Local@VInteger@v8@@@2@PEAVIsolate@2@I@Z 0000000180040c30     node:node.exe
 0003:00000c38       __imp_?CreateHandle@HandleScope@v8@@KAPEAPEAVObject@internal@2@PEAVIsolate@42@PEAV342@@Z 0000000180040c38     node:node.exe
 0003:00000c40       __imp_?Error@Exception@v8@@SA?AV?$Local@VValue@v8@@@2@V?$Local@VString@v8@@@2@@Z 0000000180040c40     node:node.exe
 0003:00000c48       __imp_?DisposeGlobal@V8@v8@@CAXPEAPEAVObject@internal@2@@Z 0000000180040c48     node:node.exe
 0003:00000c50       __imp_?GlobalizeReference@V8@v8@@CAPEAPEAVObject@internal@2@PEAVIsolate@42@PEAPEAV342@@Z 0000000180040c50     node:node.exe
 0003:00000c58       __imp_?ToUint32@Value@v8@@QEBA?AV?$MaybeLocal@VUint32@v8@@@2@V?$Local@VContext@v8@@@2@@Z 0000000180040c58     node:node.exe
 0003:00000c60       __imp_?New@Object@v8@@SA?AV?$Local@VObject@v8@@@2@PEAVIsolate@2@@Z 0000000180040c60     node:node.exe
 0003:00000c68       __imp_?Get@Object@v8@@QEAA?AV?$Local@VValue@v8@@@2@I@Z 0000000180040c68     node:node.exe
 0003:00000c70       __imp_?Set@Object@v8@@QEAA?AV?$Maybe@_N@2@V?$Local@VContext@v8@@@2@V?$Local@VValue@v8@@@2@1@Z 0000000180040c70     node:node.exe
 0003:00000c78       __imp_?Set@Object@v8@@QEAA_NIV?$Local@VValue@v8@@@2@@Z 0000000180040c78     node:node.exe
 0003:00000c80       __imp_?New@Buffer@node@@YA?AV?$MaybeLocal@VObject@v8@@@v8@@PEAVIsolate@4@PEAD_KP6AX1PEAX@Z3@Z 0000000180040c80     node:node.exe
 0003:00000c88       __imp_?MakeCallback@node@@YA?AV?$Local@VValue@v8@@@v8@@PEAVIsolate@3@V?$Local@VObject@v8@@@3@V?$Local@VFunction@v8@@@3@HPEAV23@@Z 0000000180040c88     node:node.exe
 0003:00000c90       __imp_uv_default_loop      0000000180040c90     node:node.exe
 0003:00000c98       __imp_?Int32Value@Value@v8@@QEBA?AV?$Maybe@H@2@V?$Local@VContext@v8@@@2@@Z 0000000180040c98     node:node.exe
 0003:00000ca0       __imp_?NumberValue@Value@v8@@QEBA?AV?$Maybe@N@2@V?$Local@VContext@v8@@@2@@Z 0000000180040ca0     node:node.exe
 0003:00000ca8       __imp_?BooleanValue@Value@v8@@QEBA?AV?$Maybe@_N@2@V?$Local@VContext@v8@@@2@@Z 0000000180040ca8     node:node.exe
 0003:00000cb0       __imp_?Get@Object@v8@@QEAA?AV?$MaybeLocal@VValue@v8@@@2@V?$Local@VContext@v8@@@2@I@Z 0000000180040cb0     node:node.exe
 0003:00000cb8       __imp_?Value@External@v8@@QEBAPEAXXZ 0000000180040cb8     node:node.exe
 0003:00000cc0       __imp_?New@External@v8@@SA?AV?$Local@VExternal@v8@@@2@PEAVIsolate@2@PEAX@Z 0000000180040cc0     node:node.exe
 0003:00000cc8       __imp_?CreateHandle@HandleScope@v8@@CAPEAPEAVObject@internal@2@PEAVHeapObject@42@PEAV342@@Z 0000000180040cc8     node:node.exe
 0003:00000cd0       __imp_?GetFunction@FunctionTemplate@v8@@QEAA?AV?$MaybeLocal@VFunction@v8@@@2@V?$Local@VContext@v8@@@2@@Z 0000000180040cd0     node:node.exe
 0003:00000cd8       __imp_?New@FunctionTemplate@v8@@SA?AV?$Local@VFunctionTemplate@v8@@@2@PEAVIsolate@2@P6AXAEBV?$FunctionCallbackInfo@VValue@v8@@@2@@ZV?$Local@VValue@v8@@@2@V?$Local@VSignature@v8@@@2@H@Z 0000000180040cd8     node:node.exe
 0003:00000ce0       __imp_?SlowGetInternalField@Object@v8@@AEAA?AV?$Local@VValue@v8@@@2@H@Z 0000000180040ce0     node:node.exe
 0003:00000ce8       __imp_?SetInternalField@Object@v8@@QEAAXHV?$Local@VValue@v8@@@2@@Z 0000000180040ce8     node:node.exe
 0003:00000cf0       __imp_?SetInternalFieldCount@ObjectTemplate@v8@@QEAAXH@Z 0000000180040cf0     node:node.exe
 0003:00000cf8       __imp_?NewInstance@ObjectTemplate@v8@@QEAA?AV?$MaybeLocal@VObject@v8@@@2@V?$Local@VContext@v8@@@2@@Z 0000000180040cf8     node:node.exe
 0003:00000d00       __imp_?New@ObjectTemplate@v8@@SA?AV?$Local@VObjectTemplate@v8@@@2@PEAVIsolate@2@V?$Local@VFunctionTemplate@v8@@@2@@Z 0000000180040d00     node:node.exe
 0003:00000d08       __imp_node_module_register 0000000180040d08     node:node.exe
 0003:00000d10       __imp_?New@Integer@v8@@SA?AV?$Local@VInteger@v8@@@2@PEAVIsolate@2@H@Z 0000000180040d10     node:node.exe
 0003:00000d18       __imp_?ThrowException@Isolate@v8@@QEAA?AV?$Local@VValue@v8@@@2@V32@@Z 0000000180040d18     node:node.exe
 0003:00000d20       __imp_?ToInteger@Value@v8@@QEBA?AV?$MaybeLocal@VInteger@v8@@@2@V?$Local@VContext@v8@@@2@@Z 0000000180040d20     node:node.exe
 0003:00000d28       __imp_?IsInt32@Value@v8@@QEBA_NXZ 0000000180040d28     node:node.exe
 0003:00000d30       __imp_?IsBoolean@Value@v8@@QEBA_NXZ 0000000180040d30     node:node.exe
 0003:00000d38       __imp_?New@Number@v8@@SA?AV?$Local@VNumber@v8@@@2@PEAVIsolate@2@N@Z 0000000180040d38     node:node.exe
 0003:00000d40       \177node_NULL_THUNK_DATA_DLA 0000000180040d40     node:node.exe
 0003:00000d50       __hmod__node_exe           0000000180040d50     node:node.exe
 0003:000012e0       __scrt_current_native_startup_state 00000001800412e0     LIBCMT:utility.obj
 0003:000012e8       __scrt_native_startup_lock 00000001800412e8     LIBCMT:utility.obj
 0003:00001330       ?__type_info_root_node@@3U__type_info_node@@A 0000000180041330     LIBCMT:tncleanup.obj
 0003:00001340       ?_OptionsStorage@?1??__local_stdio_printf_options@@9@4_KA 0000000180041340     LIBCMT:default_local_stdio_options.obj
 0003:00001348       ?_OptionsStorage@?1??__local_stdio_scanf_options@@9@4_KA 0000000180041348     LIBCMT:default_local_stdio_options.obj
 0003:00001350       __scrt_debugger_hook_flag  0000000180041350     LIBCMT:utility_desktop.obj
 0003:00001354       __favor                    0000000180041354     LIBCMT:_cpu_disp_.obj
 0003:00001358       ?g_OutOfMemoryExceptionCallback@@3P6APEAXXZEA 0000000180041358     libvcruntime:frame.obj
 0003:000013d8       __pPurecall                00000001800413d8     libvcruntime:purevirt_data.obj
 0003:00001478       ?pArgList@UnDecorator@@0PEAVReplicator@@EA 0000000180041478     libvcruntime:undname.obj
 0003:00001480       ?pZNameList@UnDecorator@@0PEAVReplicator@@EA 0000000180041480     libvcruntime:undname.obj
 0003:00001488       ?pTemplateArgList@UnDecorator@@0PEAVReplicator@@EA 0000000180041488     libvcruntime:undname.obj
 0003:00001490       ?gName@UnDecorator@@0PEBDEB 0000000180041490     libvcruntime:undname.obj
 0003:00001498       ?name@UnDecorator@@0PEBDEB 0000000180041498     libvcruntime:undname.obj
 0003:000014a0       ?outputString@UnDecorator@@0PEADEA 00000001800414a0     libvcruntime:undname.obj
 0003:000014a8       ?maxStringLength@UnDecorator@@0HA 00000001800414a8     libvcruntime:undname.obj
 0003:000014ac       ?disableFlags@UnDecorator@@0KA 00000001800414ac     libvcruntime:undname.obj
 0003:000014b0       ?fExplicitTemplateParams@UnDecorator@@0_NA 00000001800414b0     libvcruntime:undname.obj
 0003:000014b1       ?fGetTemplateArgumentList@UnDecorator@@0_NA 00000001800414b1     libvcruntime:undname.obj
 0003:000014b8       ?m_pGetParameter@UnDecorator@@0P6APEADJ@ZEA 00000001800414b8     libvcruntime:undname.obj
 0003:00001618       _environ_table             0000000180041618     libucrt:environment_initialization.obj
 0003:00001620       _wenviron_table            0000000180041620     libucrt:environment_initialization.obj
 0003:00001628       __dcrt_initial_wide_environment 0000000180041628     libucrt:environment_initialization.obj
 0003:00001630       __dcrt_initial_narrow_environment 0000000180041630     libucrt:environment_initialization.obj
 0003:00001638       __acrt_atexit_table        0000000180041638     libucrt:onexit.obj
 0003:00001650       __acrt_at_quick_exit_table 0000000180041650     libucrt:onexit.obj
 0003:00001670       _nstream                   0000000180041670     libucrt:_file.obj
 0003:00001678       __piob                     0000000180041678     libucrt:_file.obj
 0003:00001680       _cflush                    0000000180041680     libucrt:_file.obj
 0003:000016a8       __acrt_locale_changed_data 00000001800416a8     libucrt:wsetlocale.obj
 0003:000016b0       __acrt_current_locale_data 00000001800416b0     libucrt:nlsdata.obj
 0003:00001a74       __mbcodepage               0000000180041a74     libucrt:mbctype.obj
 0003:00001a78       __ismbcodepage             0000000180041a78     libucrt:mbctype.obj
 0003:00001a80       __mbulinfo                 0000000180041a80     libucrt:mbctype.obj
 0003:00001a90       __mblocalename             0000000180041a90     libucrt:mbctype.obj
 0003:00001a9c       __argc                     0000000180041a9c     libucrt:argv_data.obj
 0003:00001aa0       __argv                     0000000180041aa0     libucrt:argv_data.obj
 0003:00001aa8       __wargv                    0000000180041aa8     libucrt:argv_data.obj
 0003:00001ab0       _acmdln                    0000000180041ab0     libucrt:argv_data.obj
 0003:00001ab8       _wcmdln                    0000000180041ab8     libucrt:argv_data.obj
 0003:00001ac0       _pgmptr                    0000000180041ac0     libucrt:argv_data.obj
 0003:00001ac8       __acrt_heap                0000000180041ac8     libucrt:heap_handle.obj
 0003:00001ad0       __pioinfo                  0000000180041ad0     libucrt:ioinit.obj
 0003:00001ed0       _nhandle                   0000000180041ed0     libucrt:ioinit.obj
 0003:00001ee0       __acrt_stdout_buffer       0000000180041ee0     libucrt:_sftbuf.obj
 0003:00001ee8       __acrt_stderr_buffer       0000000180041ee8     libucrt:_sftbuf.obj
 0003:00001f00       __acrt_lconv_static_null   0000000180041f00     libucrt:localeconv.obj
 0003:00001f04       __acrt_lconv_static_W_null 0000000180041f04     libucrt:localeconv.obj
 0003:00001f08       __fma3_is_available        0000000180041f08     libucrt:fma3_available.obj
 0003:00001f0c       __use_fma3_lib             0000000180041f0c     libucrt:fma3_available.obj
 0003:00001f10       ?DloadKernel32@@3PEAUHINSTANCE__@@EA 0000000180041f10     DelayImp:delayhlp.obj
 0003:00001f18       ?DloadAcquireSRWLockExclusive@@3P6AXPEA_K@ZEA 0000000180041f18     DelayImp:delayhlp.obj
 0003:00001f20       ?DloadReleaseSRWLockExclusive@@3P6AXPEA_K@ZEA 0000000180041f20     DelayImp:delayhlp.obj
 0003:00001f28       ?DloadSrwLock@@3_KA        0000000180041f28     DelayImp:delayhlp.obj
 0003:00001f30       ?DloadSectionLockCount@@3KA 0000000180041f30     DelayImp:delayhlp.obj
 0003:00001f34       ?DloadSectionOldProtection@@3KA 0000000180041f34     DelayImp:delayhlp.obj
 0003:00001f38       ?DloadSectionCommitPermanent@@3KA 0000000180041f38     DelayImp:delayhlp.obj
 0003:00001f3c       ?counterQueue@sharp@@3HC   0000000180041f3c     common.obj
 0003:00001f40       ?counterProcess@sharp@@3HC 0000000180041f40     common.obj
 0003:00001f44       __scrt_ucrt_dll_is_in_use  0000000180041f44     <common>
 0003:00001f48       __dyn_tls_init_callback    0000000180041f48     <common>

 entry point at        0001:00015b30

 Static symbols

 0000:fffb9000       .debug$S                   0000000180000000     node:node.exe
 0000:fffb9000       .debug$S                   0000000180000000     libvips-cpp:libvips-cpp.dll
 0000:fffb9000       .debug$S                   0000000180000000     libvips-cpp:libvips-cpp.dll
 0000:fffb9000       .debug$S                   0000000180000000     sharp.exp
 0000:fffb9000       .debug$S                   0000000180000000     kernel32:KERNEL32.dll
 0000:fffb9000       .debug$S                   0000000180000000     kernel32:KERNEL32.dll
 0000:fffb9000       .debug$S                   0000000180000000     kernel32:KERNEL32.dll
 0000:fffb9000       .debug$S                   0000000180000000     kernel32:KERNEL32.dll
 0000:fffb9000       .debug$S                   0000000180000000     kernel32:KERNEL32.dll
 0000:fffb9000       .debug$S                   0000000180000000     kernel32:KERNEL32.dll
 0000:fffb9000       .debug$S                   0000000180000000     kernel32:KERNEL32.dll
 0000:fffb9000       .debug$S                   0000000180000000     kernel32:KERNEL32.dll
 0000:fffb9000       .debug$S                   0000000180000000     kernel32:KERNEL32.dll
 0000:fffb9000       .debug$S                   0000000180000000     kernel32:KERNEL32.dll
 0000:fffb9000       .debug$S                   0000000180000000     kernel32:KERNEL32.dll
 0000:fffb9000       .debug$S                   0000000180000000     kernel32:KERNEL32.dll
 0000:fffb9000       .debug$S                   0000000180000000     kernel32:KERNEL32.dll
 0000:fffb9000       .debug$S                   0000000180000000     kernel32:KERNEL32.dll
 0000:fffb9000       .debug$S                   0000000180000000     kernel32:KERNEL32.dll
 0000:fffb9000       .debug$S                   0000000180000000     kernel32:KERNEL32.dll
 0000:fffb9000       .debug$S                   0000000180000000     kernel32:KERNEL32.dll
 0000:fffb9000       .debug$S                   0000000180000000     kernel32:KERNEL32.dll
 0000:fffb9000       .debug$S                   0000000180000000     kernel32:KERNEL32.dll
 0000:fffb9000       .debug$S                   0000000180000000     kernel32:KERNEL32.dll
 0000:fffb9000       .debug$S                   0000000180000000     kernel32:KERNEL32.dll
 0000:fffb9000       .debug$S                   0000000180000000     kernel32:KERNEL32.dll
 0000:fffb9000       .debug$S                   0000000180000000     kernel32:KERNEL32.dll
 0000:fffb9000       .debug$S                   0000000180000000     kernel32:KERNEL32.dll
 0000:fffb9000       .debug$S                   0000000180000000     kernel32:KERNEL32.dll
 0000:fffb9000       .debug$S                   0000000180000000     kernel32:KERNEL32.dll
 0000:fffb9000       .debug$S                   0000000180000000     kernel32:KERNEL32.dll
 0000:fffb9000       .debug$S                   0000000180000000     kernel32:KERNEL32.dll
 0000:fffb9000       .debug$S                   0000000180000000     kernel32:KERNEL32.dll
 0000:fffb9000       .debug$S                   0000000180000000     kernel32:KERNEL32.dll
 0000:fffb9000       .debug$S                   0000000180000000     kernel32:KERNEL32.dll
 0000:fffb9000       .debug$S                   0000000180000000     kernel32:KERNEL32.dll
 0000:fffb9000       .debug$S                   0000000180000000     kernel32:KERNEL32.dll
 0000:fffb9000       .debug$S                   0000000180000000     kernel32:KERNEL32.dll
 0000:fffb9000       .debug$S                   0000000180000000     kernel32:KERNEL32.dll
 0000:fffb9000       .debug$S                   0000000180000000     kernel32:KERNEL32.dll
 0000:fffb9000       .debug$S                   0000000180000000     kernel32:KERNEL32.dll
 0000:fffb9000       .debug$S                   0000000180000000     kernel32:KERNEL32.dll
 0000:fffb9000       .debug$S                   0000000180000000     kernel32:KERNEL32.dll
 0000:fffb9000       .debug$S                   0000000180000000     kernel32:KERNEL32.dll
 0000:fffb9000       .debug$S                   0000000180000000     kernel32:KERNEL32.dll
 0000:fffb9000       .debug$S                   0000000180000000     kernel32:KERNEL32.dll
 0000:fffb9000       .debug$S                   0000000180000000     kernel32:KERNEL32.dll
 0000:fffb9000       .debug$S                   0000000180000000     kernel32:KERNEL32.dll
 0000:fffb9000       .debug$S                   0000000180000000     kernel32:KERNEL32.dll
 0000:fffb9000       .debug$S                   0000000180000000     kernel32:KERNEL32.dll
 0000:fffb9000       .debug$S                   0000000180000000     kernel32:KERNEL32.dll
 0000:fffb9000       .debug$S                   0000000180000000     kernel32:KERNEL32.dll
 0000:fffb9000       .debug$S                   0000000180000000     kernel32:KERNEL32.dll
 0000:fffb9000       .debug$S                   0000000180000000     kernel32:KERNEL32.dll
 0000:fffb9000       .debug$S                   0000000180000000     kernel32:KERNEL32.dll
 0000:fffb9000       .debug$S                   0000000180000000     kernel32:KERNEL32.dll
 0000:fffb9000       .debug$S                   0000000180000000     kernel32:KERNEL32.dll
 0000:fffb9000       .debug$S                   0000000180000000     kernel32:KERNEL32.dll
 0000:fffb9000       .debug$S                   0000000180000000     kernel32:KERNEL32.dll
 0000:fffb9000       .debug$S                   0000000180000000     kernel32:KERNEL32.dll
 0000:fffb9000       .debug$S                   0000000180000000     kernel32:KERNEL32.dll
 0000:fffb9000       .debug$S                   0000000180000000     kernel32:KERNEL32.dll
 0000:fffb9000       .debug$S                   0000000180000000     kernel32:KERNEL32.dll
 0000:fffb9000       .debug$S                   0000000180000000     kernel32:KERNEL32.dll
 0000:fffb9000       .debug$S                   0000000180000000     kernel32:KERNEL32.dll
 0000:fffb9000       .debug$S                   0000000180000000     kernel32:KERNEL32.dll
 0000:fffb9000       .debug$S                   0000000180000000     kernel32:KERNEL32.dll
 0000:fffb9000       .debug$S                   0000000180000000     kernel32:KERNEL32.dll
 0000:fffb9000       .debug$S                   0000000180000000     kernel32:KERNEL32.dll
 0000:fffb9000       .debug$S                   0000000180000000     kernel32:KERNEL32.dll
 0000:fffb9000       .debug$S                   0000000180000000     kernel32:KERNEL32.dll
 0000:fffb9000       .debug$S                   0000000180000000     kernel32:KERNEL32.dll
 0000:fffb9000       .debug$S                   0000000180000000     kernel32:KERNEL32.dll
 0000:fffb9000       .debug$S                   0000000180000000     kernel32:KERNEL32.dll
 0000:fffb9000       .debug$S                   0000000180000000     kernel32:KERNEL32.dll
 0000:fffb9000       .debug$S                   0000000180000000     kernel32:KERNEL32.dll
 0000:fffb9000       .debug$S                   0000000180000000     kernel32:KERNEL32.dll
 0000:fffb9000       .debug$S                   0000000180000000     libvips-cpp:libvips-cpp.dll
 0000:fffb9000       .debug$S                   0000000180000000     kernel32:KERNEL32.dll
 0000:fffb9000       .debug$S                   0000000180000000     kernel32:KERNEL32.dll
 0000:fffb9000       .debug$S                   0000000180000000     libvips-cpp:libvips-cpp.dll
 0000:fffb9000       .debug$S                   0000000180000000     kernel32:KERNEL32.dll
 0000:fffb9000       .debug$S                   0000000180000000     kernel32:KERNEL32.dll
 0000:fffb9000       .debug$S                   0000000180000000     libvips-cpp:libvips-cpp.dll
 0000:fffb9000       .debug$S                   0000000180000000     kernel32:KERNEL32.dll
 0000:fffb9000       .debug$S                   0000000180000000     kernel32:KERNEL32.dll
 0000:fffb9000       .debug$S                   0000000180000000     kernel32:KERNEL32.dll
 0000:fffb9000       .debug$S                   0000000180000000     kernel32:KERNEL32.dll
 0000:fffb9000       .debug$S                   0000000180000000     kernel32:KERNEL32.dll
 0000:fffb9000       .debug$S                   0000000180000000     kernel32:KERNEL32.dll
 0000:fffb9000       .debug$S                   0000000180000000     kernel32:KERNEL32.dll
 0000:fffb9000       .debug$S                   0000000180000000     kernel32:KERNEL32.dll
 0000:fffb9000       .debug$S                   0000000180000000     kernel32:KERNEL32.dll
 0000:fffb9000       .debug$S                   0000000180000000     kernel32:KERNEL32.dll
 0000:fffb9000       .debug$S                   0000000180000000     kernel32:KERNEL32.dll
 0000:fffb9000       .debug$S                   0000000180000000     kernel32:KERNEL32.dll
 0000:fffb9000       .debug$S                   0000000180000000     kernel32:KERNEL32.dll
 0000:fffb9000       .debug$S                   0000000180000000     kernel32:KERNEL32.dll
 0000:fffb9000       .debug$S                   0000000180000000     kernel32:KERNEL32.dll
 0000:fffb9000       .debug$S                   0000000180000000     node:node.exe
 0000:fffb9000       .debug$S                   0000000180000000     node:node.exe
 0000:fffb9000       .debug$S                   0000000180000000     node:node.exe
 0000:fffb9000       .debug$S                   0000000180000000     node:node.exe
 0000:fffb9000       .debug$S                   0000000180000000     node:node.exe
 0000:fffb9000       .debug$S                   0000000180000000     node:node.exe
 0000:fffb9000       .debug$S                   0000000180000000     node:node.exe
 0000:fffb9000       .debug$S                   0000000180000000     node:node.exe
 0000:fffb9000       .debug$S                   0000000180000000     node:node.exe
 0000:fffb9000       .debug$S                   0000000180000000     node:node.exe
 0000:fffb9000       .debug$S                   0000000180000000     node:node.exe
 0000:fffb9000       .debug$S                   0000000180000000     node:node.exe
 0000:fffb9000       .debug$S                   0000000180000000     node:node.exe
 0000:fffb9000       .debug$S                   0000000180000000     node:node.exe
 0000:fffb9000       .debug$S                   0000000180000000     node:node.exe
 0000:fffb9000       .debug$S                   0000000180000000     node:node.exe
 0000:fffb9000       .debug$S                   0000000180000000     node:node.exe
 0000:fffb9000       .debug$S                   0000000180000000     node:node.exe
 0000:fffb9000       .debug$S                   0000000180000000     node:node.exe
 0000:fffb9000       .debug$S                   0000000180000000     node:node.exe
 0000:fffb9000       .debug$S                   0000000180000000     node:node.exe
 0000:fffb9000       .debug$S                   0000000180000000     node:node.exe
 0000:fffb9000       .debug$S                   0000000180000000     node:node.exe
 0000:fffb9000       .debug$S                   0000000180000000     node:node.exe
 0000:fffb9000       .debug$S                   0000000180000000     node:node.exe
 0000:fffb9000       .debug$S                   0000000180000000     node:node.exe
 0000:fffb9000       .debug$S                   0000000180000000     node:node.exe
 0000:fffb9000       .debug$S                   0000000180000000     node:node.exe
 0000:fffb9000       .debug$S                   0000000180000000     node:node.exe
 0000:fffb9000       .debug$S                   0000000180000000     node:node.exe
 0000:fffb9000       .debug$S                   0000000180000000     node:node.exe
 0000:fffb9000       .debug$S                   0000000180000000     node:node.exe
 0000:fffb9000       .debug$S                   0000000180000000     node:node.exe
 0000:fffb9000       .debug$S                   0000000180000000     node:node.exe
 0000:fffb9000       .debug$S                   0000000180000000     node:node.exe
 0000:fffb9000       .debug$S                   0000000180000000     node:node.exe
 0000:fffb9000       .debug$S                   0000000180000000     node:node.exe
 0000:fffb9000       .debug$S                   0000000180000000     node:node.exe
 0000:fffb9000       .debug$S                   0000000180000000     node:node.exe
 0000:fffb9000       .debug$S                   0000000180000000     node:node.exe
 0000:fffb9000       .debug$S                   0000000180000000     node:node.exe
 0000:fffb9000       .debug$S                   0000000180000000     node:node.exe
 0000:fffb9000       .debug$S                   0000000180000000     node:node.exe
 0000:fffb9000       .debug$S                   0000000180000000     node:node.exe
 0000:fffb9000       .debug$S                   0000000180000000     node:node.exe
 0000:fffb9000       .debug$S                   0000000180000000     node:node.exe
 0000:fffb9000       .debug$S                   0000000180000000     node:node.exe
 0000:fffb9000       .debug$S                   0000000180000000     node:node.exe
 0000:fffb9000       .debug$S                   0000000180000000     node:node.exe
 0000:fffb9000       .debug$S                   0000000180000000     node:node.exe
 0000:fffb9000       .debug$S                   0000000180000000     node:node.exe
 0000:fffb9000       .debug$S                   0000000180000000     node:node.exe
 0000:fffb9000       .debug$S                   0000000180000000     libvips-cpp:libvips-cpp.dll
 0000:fffb9000       .debug$S                   0000000180000000     node:node.exe
 0000:fffb9000       .debug$S                   0000000180000000     node:node.exe
 0000:fffb9000       .debug$S                   0000000180000000     node:node.exe
 0000:fffb9000       .debug$S                   0000000180000000     node:node.exe
 0000:fffb9000       .debug$S                   0000000180000000     node:node.exe
 0000:fffb9000       .debug$S                   0000000180000000     node:node.exe
 0000:fffb9000       .debug$S                   0000000180000000     node:node.exe
 0000:fffb9000       .debug$S                   0000000180000000     libvips-cpp:libvips-cpp.dll
 0000:fffb9000       .debug$S                   0000000180000000     libvips-cpp:libvips-cpp.dll
 0000:fffb9000       .debug$S                   0000000180000000     libvips-cpp:libvips-cpp.dll
 0000:fffb9000       .debug$S                   0000000180000000     libvips-cpp:libvips-cpp.dll
 0000:fffb9000       .debug$S                   0000000180000000     libvips-cpp:libvips-cpp.dll
 0000:fffb9000       .debug$S                   0000000180000000     libvips-cpp:libvips-cpp.dll
 0000:fffb9000       .debug$S                   0000000180000000     libvips-cpp:libvips-cpp.dll
 0000:fffb9000       .debug$S                   0000000180000000     libvips-cpp:libvips-cpp.dll
 0000:fffb9000       .debug$S                   0000000180000000     libvips-cpp:libvips-cpp.dll
 0000:fffb9000       .debug$S                   0000000180000000     libvips-cpp:libvips-cpp.dll
 0000:fffb9000       .debug$S                   0000000180000000     libvips-cpp:libvips-cpp.dll
 0000:fffb9000       .debug$S                   0000000180000000     libvips-cpp:libvips-cpp.dll
 0000:fffb9000       .debug$S                   0000000180000000     libvips-cpp:libvips-cpp.dll
 0000:fffb9000       .debug$S                   0000000180000000     libvips-cpp:libvips-cpp.dll
 0000:fffb9000       .debug$S                   0000000180000000     libvips-cpp:libvips-cpp.dll
 0000:fffb9000       .debug$S                   0000000180000000     libvips-cpp:libvips-cpp.dll
 0000:fffb9000       .debug$S                   0000000180000000     libvips-cpp:libvips-cpp.dll
 0000:fffb9000       .debug$S                   0000000180000000     libvips-cpp:libvips-cpp.dll
 0000:fffb9000       .debug$S                   0000000180000000     libvips-cpp:libvips-cpp.dll
 0000:fffb9000       .debug$S                   0000000180000000     libvips-cpp:libvips-cpp.dll
 0000:fffb9000       .debug$S                   0000000180000000     libvips-cpp:libvips-cpp.dll
 0000:fffb9000       .debug$S                   0000000180000000     libvips-cpp:libvips-cpp.dll
 0000:fffb9000       .debug$S                   0000000180000000     libvips-cpp:libvips-cpp.dll
 0000:fffb9000       .debug$S                   0000000180000000     libvips-cpp:libvips-cpp.dll
 0000:fffb9000       .debug$S                   0000000180000000     libvips-cpp:libvips-cpp.dll
 0000:fffb9000       .debug$S                   0000000180000000     libvips-cpp:libvips-cpp.dll
 0000:fffb9000       .debug$S                   0000000180000000     libvips-cpp:libvips-cpp.dll
 0000:fffb9000       .debug$S                   0000000180000000     libvips-cpp:libvips-cpp.dll
 0000:fffb9000       .debug$S                   0000000180000000     libvips-cpp:libvips-cpp.dll
 0000:fffb9000       .debug$S                   0000000180000000     libvips-cpp:libvips-cpp.dll
 0000:fffb9000       .debug$S                   0000000180000000     libvips-cpp:libvips-cpp.dll
 0000:fffb9000       .debug$S                   0000000180000000     libvips-cpp:libvips-cpp.dll
 0000:fffb9000       .debug$S                   0000000180000000     libvips-cpp:libvips-cpp.dll
 0000:fffb9000       .debug$S                   0000000180000000     libvips-cpp:libvips-cpp.dll
 0000:fffb9000       .debug$S                   0000000180000000     libvips-cpp:libvips-cpp.dll
 0000:fffb9000       .debug$S                   0000000180000000     libvips-cpp:libvips-cpp.dll
 0000:fffb9000       .debug$S                   0000000180000000     libvips-cpp:libvips-cpp.dll
 0000:fffb9000       .debug$S                   0000000180000000     libvips-cpp:libvips-cpp.dll
 0000:fffb9000       .debug$S                   0000000180000000     libvips-cpp:libvips-cpp.dll
 0000:fffb9000       .debug$S                   0000000180000000     libvips-cpp:libvips-cpp.dll
 0000:fffb9000       .debug$S                   0000000180000000     libvips-cpp:libvips-cpp.dll
 0000:fffb9000       .debug$S                   0000000180000000     libvips-cpp:libvips-cpp.dll
 0000:fffb9000       .debug$S                   0000000180000000     libvips-cpp:libvips-cpp.dll
 0000:fffb9000       .debug$S                   0000000180000000     libvips-cpp:libvips-cpp.dll
 0000:fffb9000       .debug$S                   0000000180000000     libvips-cpp:libvips-cpp.dll
 0000:fffb9000       .debug$S                   0000000180000000     libvips-cpp:libvips-cpp.dll
 0000:fffb9000       .debug$S                   0000000180000000     libvips-cpp:libvips-cpp.dll
 0000:fffb9000       .debug$S                   0000000180000000     libvips-cpp:libvips-cpp.dll
 0000:fffb9000       .debug$S                   0000000180000000     libvips-cpp:libvips-cpp.dll
 0000:fffb9000       .debug$S                   0000000180000000     libvips-cpp:libvips-cpp.dll
 0000:fffb9000       .debug$S                   0000000180000000     libvips-cpp:libvips-cpp.dll
 0000:fffb9000       .debug$S                   0000000180000000     libvips-cpp:libvips-cpp.dll
 0000:fffb9000       .debug$S                   0000000180000000     libvips-cpp:libvips-cpp.dll
 0000:fffb9000       .debug$S                   0000000180000000     libvips-cpp:libvips-cpp.dll
 0000:fffb9000       .debug$S                   0000000180000000     libvips-cpp:libvips-cpp.dll
 0000:fffb9000       .debug$S                   0000000180000000     libvips-cpp:libvips-cpp.dll
 0000:fffb9000       .debug$S                   0000000180000000     libvips-cpp:libvips-cpp.dll
 0000:fffb9000       .debug$S                   0000000180000000     libvips-cpp:libvips-cpp.dll
 0000:fffb9000       .debug$S                   0000000180000000     libvips-cpp:libvips-cpp.dll
 0000:fffb9000       .debug$S                   0000000180000000     libvips-cpp:libvips-cpp.dll
 0000:fffb9000       .debug$S                   0000000180000000     libvips-cpp:libvips-cpp.dll
 0000:fffb9000       .debug$S                   0000000180000000     libvips-cpp:libvips-cpp.dll
 0000:fffb9000       .debug$S                   0000000180000000     libvips-cpp:libvips-cpp.dll
 0000:fffb9000       .debug$S                   0000000180000000     libvips-cpp:libvips-cpp.dll
 0000:fffb9000       .debug$S                   0000000180000000     libvips-cpp:libvips-cpp.dll
 0000:fffb9000       .debug$S                   0000000180000000     libvips-cpp:libvips-cpp.dll
 0000:fffb9000       .debug$S                   0000000180000000     libvips-cpp:libvips-cpp.dll
 0000:fffb9000       .debug$S                   0000000180000000     libvips-cpp:libvips-cpp.dll
 0000:fffb9000       .debug$S                   0000000180000000     libvips-cpp:libvips-cpp.dll
 0000:fffb9000       .debug$S                   0000000180000000     libvips-cpp:libvips-cpp.dll
 0000:fffb9000       .debug$S                   0000000180000000     libvips-cpp:libvips-cpp.dll
 0000:fffb9000       .debug$S                   0000000180000000     libvips-cpp:libvips-cpp.dll
 0000:fffb9000       .debug$S                   0000000180000000     libvips-cpp:libvips-cpp.dll
 0000:fffb9000       .debug$S                   0000000180000000     libvips-cpp:libvips-cpp.dll
 0000:fffb9000       .debug$S                   0000000180000000     libvips-cpp:libvips-cpp.dll
 0000:fffb9000       .debug$S                   0000000180000000     libvips-cpp:libvips-cpp.dll
 0000:fffb9000       .debug$S                   0000000180000000     libvips-cpp:libvips-cpp.dll
 0000:fffb9000       .debug$S                   0000000180000000     libvips-cpp:libvips-cpp.dll
 0000:fffb9000       .debug$S                   0000000180000000     libvips-cpp:libvips-cpp.dll
 0000:fffb9000       .debug$S                   0000000180000000     libvips-cpp:libvips-cpp.dll
 0000:fffb9000       .debug$S                   0000000180000000     libvips-cpp:libvips-cpp.dll
 0000:fffb9000       .debug$S                   0000000180000000     libvips-cpp:libvips-cpp.dll
 0000:fffb9000       .debug$S                   0000000180000000     libvips-cpp:libvips-cpp.dll
 0000:fffb9000       .debug$S                   0000000180000000     libvips-cpp:libvips-cpp.dll
 0000:fffb9000       .debug$S                   0000000180000000     libvips-cpp:libvips-cpp.dll
 0000:fffb9000       .debug$S                   0000000180000000     libvips-cpp:libvips-cpp.dll
 0000:fffb9000       .debug$S                   0000000180000000     libvips-cpp:libvips-cpp.dll
 0000:fffb9000       .debug$S                   0000000180000000     libvips-cpp:libvips-cpp.dll
 0000:fffb9000       .debug$S                   0000000180000000     libvips-cpp:libvips-cpp.dll
 0000:fffb9000       .debug$S                   0000000180000000     libvips-cpp:libvips-cpp.dll
 0000:fffb9000       .debug$S                   0000000180000000     libvips-cpp:libvips-cpp.dll
 0000:fffb9000       .debug$S                   0000000180000000     libvips-cpp:libvips-cpp.dll
 0000:fffb9000       .debug$S                   0000000180000000     libvips-cpp:libvips-cpp.dll
 0000:fffb9000       .debug$S                   0000000180000000     libvips-cpp:libvips-cpp.dll
 0000:fffb9000       .debug$S                   0000000180000000     libvips-cpp:libvips-cpp.dll
 0000:fffb9000       .debug$S                   0000000180000000     libvips-cpp:libvips-cpp.dll
 0000:fffb9000       .debug$S                   0000000180000000     libvips-cpp:libvips-cpp.dll
 0000:fffb9000       .debug$S                   0000000180000000     libvips-cpp:libvips-cpp.dll
 0000:fffb9000       .debug$S                   0000000180000000     libvips-cpp:libvips-cpp.dll
 0000:fffb9000       .debug$S                   0000000180000000     libvips-cpp:libvips-cpp.dll
 0001:00000000       .text                      0000000180001000     libvips:dmrks01465.o
 0001:00000008       .text                      0000000180001008     libvips:dmrks01230.o
 0001:00000010       .text                      0000000180001010     libvips:dmrks01662.o
 0001:00000018       .text                      0000000180001018     libvips:dmrks01175.o
 0001:00000020       .text                      0000000180001020     libvips:dmrks01506.o
 0001:00000028       .text                      0000000180001028     libvips:dmrks01229.o
 0001:00000030       .text                      0000000180001030     libvips:dmrks00939.o
 0001:00000038       .text                      0000000180001038     libvips:dmrks01186.o
 0001:00000040       .text                      0000000180001040     libvips:dmrks01176.o
 0001:00000048       .text                      0000000180001048     libvips:dmrks01887.o
 0001:00000050       .text                      0000000180001050     libvips:dmrks01338.o
 0001:00000058       .text                      0000000180001058     libvips:dmrks00940.o
 0001:00000060       .text                      0000000180001060     libvips:dmrks01524.o
 0001:00000068       .text                      0000000180001068     libvips:dmrks00870.o
 0001:00000070       .text                      0000000180001070     libvips:dmrks01486.o
 0001:00000078       .text                      0000000180001078     libvips:dmrks00987.o
 0001:00000080       .text                      0000000180001080     libvips:dmrks01957.o
 0001:00000088       .text                      0000000180001088     libvips:dmrks00988.o
 0001:00000090       .text                      0000000180001090     libvips:dmrks01950.o
 0001:00000098       .text                      0000000180001098     libvips:dmrks00985.o
 0001:000000a0       .text                      00000001800010a0     libvips:dmrks00996.o
 0001:000000a8       .text                      00000001800010a8     libvips:dmrks00986.o
 0001:000000b0       .text                      00000001800010b0     libvips:dmrks00998.o
 0001:000000b8       .text                      00000001800010b8     libvips:dmrks01102.o
 0001:000000c0       .text                      00000001800010c0     libvips:dmrks00997.o
 0001:000000c8       .text                      00000001800010c8     libvips:dmrks01909.o
 0001:000000d0       .text                      00000001800010d0     libvips:dmrks01103.o
 0001:000000d8       .text                      00000001800010d8     libvips:dmrks01946.o
 0001:000000e0       .text                      00000001800010e0     libvips:dmrks01905.o
 0001:000000e8       .text                      00000001800010e8     libvips:dmrks01904.o
 0001:000000f0       .text                      00000001800010f0     libvips:dmrks01903.o
 0001:00000100       .text                      0000000180001100     libglib-2.0:dgoks00380.o
 0001:00000108       .text                      0000000180001108     libglib-2.0:dgoks00077.o
 0001:00000110       .text                      0000000180001110     libglib-2.0:dgoks00074.o
 0001:00000118       .text                      0000000180001118     libglib-2.0:dgoks00673.o
 0001:00000120       .text                      0000000180001120     libglib-2.0:dgoks01122.o
 0001:00000128       .text                      0000000180001128     libglib-2.0:dgoks01081.o
 0001:00000ae0       ?EndsWith@sharp@@YA_NAEBV?$basic_string@DU?$char_traits@D@std@@V?$allocator@D@2@@std@@0@Z 0000000180001ae0 f   common.obj
 0001:00002594       $LN230                     0000000180003594     common.obj
 0001:00003ab4       $LN40                      0000000180004ab4     common.obj
 0001:0000e494       $LN65                      000000018000f494     pipeline.obj
 0001:00012e60       ?FunctionCallbackWrapper@imp@Nan@@YAXAEBV?$FunctionCallbackInfo@VValue@v8@@@v8@@@Z 0000000180013e60 f   sharp.obj
 0001:00013610       _register_sharp            0000000180014610 f   sharp.obj
 0001:00015000       ?load_exe_hook@@YAP6A_JXZIPEAUDelayLoadInfo@@@Z 0000000180016000 f   win_delay_load_hook.obj
 0001:00015660       $$000000                   0000000180016660     LIBCMT:_amdsecgs_.obj
 0001:000157e4       ?dllmain_crt_dispatch@@YAHQEAUHINSTANCE__@@KQEAX@Z 00000001800167e4 f   LIBCMT:dll_dllmain.obj
 0001:00015834       ?dllmain_crt_process_attach@@YAHQEAUHINSTANCE__@@QEAX@Z 0000000180016834 f   LIBCMT:dll_dllmain.obj
 0001:00015960       ?dllmain_crt_process_detach@@YAH_N@Z 0000000180016960 f   LIBCMT:dll_dllmain.obj
 0001:000159e4       ?dllmain_dispatch@@YAHQEAUHINSTANCE__@@KQEAX@Z 00000001800169e4 f   LIBCMT:dll_dllmain.obj
 0001:00015adc       ?dllmain_raw@@YAHQEAUHINSTANCE__@@KQEAX@Z 0000000180016adc f   LIBCMT:dll_dllmain.obj
 0001:00015d28       capture_current_context    0000000180016d28 f   LIBCMT:gs_report.obj
 0001:00015d98       capture_previous_context   0000000180016d98 f   LIBCMT:gs_report.obj
 0001:00016780       $$000000                   0000000180017780     libvcruntime:memcpy.obj
 0001:00016827       MoveSmall                  0000000180017827     libvcruntime:memcpy.obj
 0001:00016cb0       ?CatchIt@@YAXPEAUEHExceptionRecord@@PEA_KPEAU_CONTEXT@@PEAU_xDISPATCHER_CONTEXT@@PEBU_s_FuncInfo@@PEBU_s_HandlerType@@PEBU_s_CatchableType@@PEBU_s_TryBlockMapEntry@@H1EE@Z 0000000180017cb0 f   libvcruntime:frame.obj
 0001:00016d74       ?ExFilterRethrow@@YAHPEAU_EXCEPTION_POINTERS@@PEAUEHExceptionRecord@@PEAH@Z 0000000180017d74 f   libvcruntime:frame.obj
 0001:00016dfc       ?FindHandler@@YAXPEAUEHExceptionRecord@@PEA_KPEAU_CONTEXT@@PEAU_xDISPATCHER_CONTEXT@@PEBU_s_FuncInfo@@EH1@Z 0000000180017dfc f   libvcruntime:frame.obj
 0001:000172cc       ?FindHandlerForForeignException@@YAXPEAUEHExceptionRecord@@PEA_KPEAU_CONTEXT@@PEAU_xDISPATCHER_CONTEXT@@PEBU_s_FuncInfo@@HH1@Z 00000001800182cc f   libvcruntime:frame.obj
 0001:00017538       ?IsInExceptionSpec@@YAEPEAUEHExceptionRecord@@PEBU_s_ESTypeList@@@Z 0000000180018538 f   libvcruntime:frame.obj
 0001:00018510       $$000000                   0000000180019510     libvcruntime:memset.obj
 0001:000185fc       MsetTab                    00000001800195fc     libvcruntime:memset.obj
 0001:00018980       $$000000                   0000000180019980     libvcruntime:handlers.obj
 0001:00019080       $$000000                   000000018001a080     libvcruntime:_jmpuwind_.obj
 0001:00019198       ?try_get_function@@YAPEAXW4function_id@?A0x679b24ab@@QEBDQEBW4module_id@2@2@Z 000000018001a198 f   libvcruntime:winapi_downlevel.obj
 0001:00019638       ??$common_assert_to_message_box@_W@@YAXQEB_W0IQEAX@Z 000000018001a638 f   libucrt:assert.obj
 0001:000196fc       ??$common_assert_to_message_box_build_string@_W@@YAXQEA_W_KQEB_W2IQEAX@Z 000000018001a6fc f   libucrt:assert.obj
 0001:00019ed0       ??$common_assert_to_stderr@_W@@YAXQEB_W0I@Z 000000018001aed0 f   libucrt:assert.obj
 0001:0001a040       ?get_assert_format@@YAPEB_W_W@Z 000000018001b040 f   libucrt:assert.obj
 0001:0001a8e4       ?atexit_exception_filter@@YAHK@Z 000000018001b8e4 f   libucrt:exit.obj
 0001:0001a8f0       ?common_exit@@YAXHW4_crt_exit_cleanup_mode@@W4_crt_exit_return_mode@@@Z 000000018001b8f0 f   libucrt:exit.obj
 0001:0001aa5c       ?exit_or_terminate_process@@YAXI@Z 000000018001ba5c f   libucrt:exit.obj
 0001:0001aaa8       ?try_cor_exit_process@@YAXI@Z 000000018001baa8 f   libucrt:exit.obj
 0001:0001ab40       ??$parse_command_line@D@@YAXPEADPEAPEAD0PEA_K2@Z 000000018001bb40 f   libucrt:argv_parsing.obj
 0001:0001aed8       ??$common_initialize_environment_nolock@D@@YAHXZ 000000018001bed8 f   libucrt:environment_initialization.obj
 0001:0001af44       ??$create_environment@D@@YAQEAPEADQEAD@Z 000000018001bf44 f   libucrt:environment_initialization.obj
 0001:0001b040       ??$free_environment@D@@YAXQEAPEAD@Z 000000018001c040 f   libucrt:environment_initialization.obj
 0001:0001b040       ??$free_environment@_W@@YAXQEAPEA_W@Z 000000018001c040 f   libucrt:environment_initialization.obj
 0001:0001b084       ??$uninitialize_environment_internal@D@@YAXAEAPEAPEAD@Z 000000018001c084 f   libucrt:environment_initialization.obj
 0001:0001b0a0       ??$uninitialize_environment_internal@_W@@YAXAEAPEAPEA_W@Z 000000018001c0a0 f   libucrt:environment_initialization.obj
 0001:0001b2d8       ??R<lambda_4e60a939b0d047cfe11ddc22648dfba9>@@QEBAHXZ 000000018001c2d8 f   libucrt:onexit.obj
 0001:0001b588       initialize_global_variables 000000018001c588 f   libucrt:initialization.obj
 0001:0001b59c       initialize_c               000000018001c59c f   libucrt:initialization.obj
 0001:0001b5c0       uninitialize_environment   000000018001c5c0 f   libucrt:initialization.obj
 0001:0001b5d0       initialize_pointers        000000018001c5d0 f   libucrt:initialization.obj
 0001:0001b624       uninitialize_vcruntime     000000018001c624 f   libucrt:initialization.obj
 0001:0001b62c       uninitialize_allocated_memory 000000018001c62c f   libucrt:initialization.obj
 0001:0001bcd0       ??R<lambda_dd75445284c072d0bd3768540cc698fa>@@QEBAHXZ 000000018001ccd0 f   libucrt:output.obj
 0001:0001e298       ??$common_xtox@K_W@@YAHKQEA_W_KI_N@Z 000000018001f298 f   libucrt:xtoa.obj
 0001:0001e344       ??$common_xtox_s@K_W@@YAHKQEA_W_KI_N@Z 000000018001f344 f   libucrt:xtoa.obj
 0001:0001e608       ??$message_box_wait_thread@_W@@YAKQEAX@Z 000000018001f608 f   libucrt:crtmbox.obj
 0001:0001e9c4       common_flush_all           000000018001f9c4 f   libucrt:fflush.obj
 0001:0001eb2c       ??R<lambda_b721fa326cdb32351d23dfa67958c160>@@QEBAHXZ 000000018001fb2c f   libucrt:setvbuf.obj
 0001:0001f118       ?construct_ptd_array@@YAXQEAU__acrt_ptd@@@Z 0000000180020118 f   libucrt:per_thread_data.obj
 0001:0001f1e8       ?destroy_fls@@YAXPEAX@Z    00000001800201e8 f   libucrt:per_thread_data.obj
 0001:0001f208       ?destroy_ptd_array@@YAXQEAU__acrt_ptd@@@Z 0000000180020208 f   libucrt:per_thread_data.obj
 0001:0001f300       ?replace_current_thread_locale_nolock@@YAXQEAU__acrt_ptd@@QEAU__crt_locale_data@@@Z 0000000180020300 f   libucrt:per_thread_data.obj
 0001:0001f540       ?internal_isupper_l@@YA_NHQEAU__crt_locale_pointers@@@Z 0000000180020540 f   libucrt:tolower_toupper.obj
 0001:0001f870       ?try_get_function@@YAPEAXW4function_id@?A0x63058377@@QEBDQEBW4module_id@2@2@Z 0000000180020870 f   libucrt:winapi_thunks.obj
 0001:0002009c       ?<helper_func_cdecl>@<lambda_2feae5270eb4d0d5532525f423405775>@@CAHPEBX0@Z 000000018002109c f   libucrt:argv_wildcards.obj
 0001:000200b0       ??$common_expand_argv_wildcards@D@@YAHQEAPEADQEAPEAPEAD@Z 00000001800210b0 f   libucrt:argv_wildcards.obj
 0001:000202bc       ??$copy_and_add_argument_to_buffer@D@@YAHQEBD0_KAEAV?$argument_list@D@?A0xca0879c4@@@Z 00000001800212bc f   libucrt:argv_wildcards.obj
 0001:000203cc       ??$expand_argument_wildcards@D@@YAHQEAD0AEAV?$argument_list@D@?A0xca0879c4@@@Z 00000001800213cc f   libucrt:argv_wildcards.obj
 0001:00020680       ??R<lambda_ad1ced32f4ac17aa236e5ef05d6b3b7c>@@QEBAXXZ 0000000180021680 f   libucrt:mbctype.obj
 0001:00020898       ?getSystemCP@@YAHH@Z       0000000180021898 f   libucrt:mbctype.obj
 0001:00020918       ?setSBCS@@YAXPEAU__crt_multibyte_data@@@Z 0000000180021918 f   libucrt:mbctype.obj
 0001:000209a8       ?setSBUpLow@@YAXPEAU__crt_multibyte_data@@@Z 00000001800219a8 f   libucrt:mbctype.obj
 0001:00020b8c       ?setmbcp_internal@@YAHH_N@Z 0000000180021b8c f   libucrt:mbctype.obj
 0001:000210d4       ?x_ismbbtype_l@@YAHPEAU__crt_locale_pointers@@IHH@Z 00000001800220d4 f   libucrt:ismbbyte.obj
 0001:00021188       initialize_environment     0000000180022188 f   libucrt:initialization.obj
 0001:00021188       uninitialize_c             0000000180022188 f   libucrt:initialization.obj
 0001:00021188       initialize_global_state_isolation 0000000180022188 f   libucrt:initialization.obj
 0001:00021188       report_memory_leaks        0000000180022188 f   libucrt:initialization.obj
 0001:00021188       uninitialize_global_state_isolation 0000000180022188 f   libucrt:initialization.obj
 0001:00021358       ?initialize_inherited_file_handles_nolock@@YAXXZ 0000000180022358 f   libucrt:ioinit.obj
 0001:00021444       ?initialize_stdio_handles_nolock@@YAXXZ 0000000180022444 f   libucrt:ioinit.obj
 0001:00021e1c       ?fp_format_a@@YAHQEBNPEAD_KQEAD2H_NIQEAU__crt_locale_pointers@@@Z 0000000180022e1c f   libucrt:cvt.obj
 0001:0002217c       ?fp_format_e@@YAHQEBNQEAD_K12H_NIQEAU__crt_locale_pointers@@@Z 000000018002317c f   libucrt:cvt.obj
 0001:0002224c       ?fp_format_e_internal@@YAHQEAD_KH_NIQEAU_strflt@@2QEAU__crt_locale_pointers@@@Z 000000018002324c f   libucrt:cvt.obj
 0001:00022428       ?fp_format_f_internal@@YAHQEAD_KHQEAU_strflt@@_NQEAU__crt_locale_pointers@@@Z 0000000180023428 f   libucrt:cvt.obj
 0001:00022570       ?fp_format_g@@YAHQEBNQEAD_K12H_NIQEAU__crt_locale_pointers@@@Z 0000000180023570 f   libucrt:cvt.obj
 0001:000226a8       ?fp_format_nan_or_infinity@@YAHW4__acrt_fp_class@@_NPEAD_K1@Z 00000001800236a8 f   libucrt:cvt.obj
 0001:00023050       ?write_double_translated_ansi_nolock@@YA?AUwrite_result@?A0x9c548279@@HQEBDI@Z 0000000180024050 f   libucrt:write.obj
 0001:00023258       ?write_text_ansi_nolock@@YA?AUwrite_result@?A0x9c548279@@HQEBDI@Z 0000000180024258 f   libucrt:write.obj
 0001:00023360       ?write_text_utf16le_nolock@@YA?AUwrite_result@?A0x9c548279@@HQEBDI@Z 0000000180024360 f   libucrt:write.obj
 0001:0002347c       ?write_text_utf8_nolock@@YA?AUwrite_result@?A0x9c548279@@HQEBDI@Z 000000018002447c f   libucrt:write.obj
 0001:00023e0c       ?__acrt_LCMapStringA_stat@@YAHPEAU__crt_locale_pointers@@PEB_WKPEBDHPEADHHH@Z 0000000180024e0c f   libucrt:lcmapstringa.obj
 0001:00024378       ?free_crt_array_internal@@YAXQEAPEBX_K@Z 0000000180025378 f   libucrt:inittime.obj
 0001:0002468c       ?GetTableIndexFromLocaleName@@YAHPEB_W@Z 000000018002568c f   libucrt:lcidtoname_downlevel.obj
 0001:00024790       ?shortsort@@YAXPEAD0_KP6AHPEBX2@Z@Z 0000000180025790 f   libucrt:qsort.obj
 0001:00024da8       ?initialize_multibyte@@YAHXZ 0000000180025da8 f   libucrt:multibyte_initializer.obj
 0001:00026afc       memcpy_s                   0000000180027afc f   libucrt:cfout.obj
 0001:00026b84       ??$write_buffer_nolock@D@@YA_NDV__crt_stdio_stream@@@Z 0000000180027b84 f   libucrt:_flsbuf.obj
 0001:00026c88       ??$write_buffer_nolock@_W@@YA_N_WV__crt_stdio_stream@@@Z 0000000180027c88 f   libucrt:_flsbuf.obj
 0001:00027010       common_control87           0000000180028010 f   libucrt:ieee.obj
 0001:000272b0       $$000000                   00000001800282b0     libucrt:fpsr.obj
 0001:00027400       ??$common_lseek@_J@@YA_JH_JH@Z 0000000180028400 f   libucrt:lseek.obj
 0001:000274f0       ??$common_lseek_nolock@_J@@YA_JH_JH@Z 00000001800284f0 f   libucrt:lseek.obj
 0001:00027790       $$000000                   0000000180028790     libucrt:log10.obj
 0001:00028014       _call_matherr              0000000180029014 f   libucrt:libm_error.obj
 0001:0002807c       _exception_enabled         000000018002907c f   libucrt:libm_error.obj
 0001:00028310       _log_special_common        0000000180029310 f   libucrt:log_special.obj
 0001:00028ff0       $$000000                   0000000180029ff0     LIBCMT:_chkstk_.obj
 0001:00029060       $$000000                   000000018002a060     libvcruntime:memcmp.obj
 0001:000293b0       $$000000                   000000018002a3b0     LIBCMT:_guard_dispatch_.obj
 0001:000293d0       ?dtor$0@?0??convert@?$ToFactory@VInteger@v8@@@imp@Nan@@SA?AV?$MaybeLocal@VInteger@v8@@@v8@@V?$Local@VValue@v8@@@5@@Z@4HA 000000018002a3d0 f   utilities.obj
 0001:000293d0       ?dtor$0@?0??convert@?$ToFactory@VUint32@v8@@@imp@Nan@@SA?AV?$MaybeLocal@VUint32@v8@@@v8@@V?$Local@VValue@v8@@@5@@Z@4HA 000000018002a3d0 f   metadata.obj
 0001:000293d0       ?dtor$0@?0??NewInstance@Nan@@YA?AV?$MaybeLocal@VObject@v8@@@v8@@V?$Local@VObjectTemplate@v8@@@3@@Z@4HA 000000018002a3d0 f   sharp.obj
 0001:000293d0       ?dtor$0@?0??Get@Nan@@YA?AV?$MaybeLocal@VValue@v8@@@v8@@V?$Local@VObject@v8@@@3@V?$Local@VValue@v8@@@3@@Z@4HA 000000018002a3d0 f   common.obj
 0001:000293d0       ?dtor$0@?0??GetFunction@Nan@@YA?AV?$MaybeLocal@VFunction@v8@@@v8@@V?$Local@VFunctionTemplate@v8@@@3@@Z@4HA 000000018002a3d0 f   sharp.obj
 0001:000293d0       ?dtor$0@?0??Get@Nan@@YA?AV?$MaybeLocal@VValue@v8@@@v8@@V?$Local@VObject@v8@@@3@I@Z@4HA 000000018002a3d0 f   pipeline.obj
 0001:000293e0       ?dtor$0@?0??convert@?$ToFactory@H@imp@Nan@@SA?AV?$Maybe@H@v8@@V?$Local@VValue@v8@@@5@@Z@4HA 000000018002a3e0 f   pipeline.obj
 0001:000293e0       ?dtor$0@?0??convert@?$ToFactory@N@imp@Nan@@SA?AV?$Maybe@N@v8@@V?$Local@VValue@v8@@@5@@Z@4HA 000000018002a3e0 f   pipeline.obj
 0001:000293e0       ?dtor$0@?0??convert@?$ToFactory@I@imp@Nan@@SA?AV?$Maybe@I@v8@@V?$Local@VValue@v8@@@5@@Z@4HA 000000018002a3e0 f   common.obj
 0001:000293e0       ?dtor$0@?0??convert@?$ToFactory@_N@imp@Nan@@SA?AV?$Maybe@_N@v8@@V?$Local@VValue@v8@@@5@@Z@4HA 000000018002a3e0 f   pipeline.obj
 0001:000293e0       ?dtor$0@?0??Has@Nan@@YA?AV?$Maybe@_N@v8@@V?$Local@VObject@v8@@@3@V?$Local@VString@v8@@@3@@Z@4HA 000000018002a3e0 f   common.obj
 0001:000293f0       ?dtor$0@?0??Error@Nan@@YA?AV?$Local@VValue@v8@@@v8@@PEBD@Z@4HA 000000018002a3f0 f   metadata.obj
 0001:000293f0       ?dtor$0@?0???0Utf8String@Nan@@QEAA@V?$Local@VValue@v8@@@v8@@@Z@4HA 000000018002a3f0 f   common.obj
 0001:000293f0       ?dtor$0@?0??ThrowError@Nan@@YAXPEBD@Z@4HA 000000018002a3f0 f   utilities.obj
 0001:000293f0       ?dtor$0@?0??HandleErrorCallback@AsyncWorker@Nan@@MEAAXXZ@4HA 000000018002a3f0 f   metadata.obj
 0001:000293f0       ?dtor$0@?0??Call_@Callback@Nan@@AEBA?AV?$Local@VValue@v8@@@v8@@PEAVIsolate@4@V?$Local@VObject@v8@@@4@HQEAV34@@Z@4HA 000000018002a3f0 f   metadata.obj
 0001:00029400       ?dtor$0@?0???$AttrAs@VFunction@v8@@@sharp@@YA?AV?$Local@VFunction@v8@@@v8@@V?$Local@VObject@v8@@@2@V?$basic_string@DU?$char_traits@D@std@@V?$allocator@D@2@@std@@@Z@4HA 000000018002a400 f   pipeline.obj
 0001:00029400       ?dtor$0@?0???$AttrAs@VObject@v8@@@sharp@@YA?AV?$Local@VObject@v8@@@v8@@V12@V?$basic_string@DU?$char_traits@D@std@@V?$allocator@D@2@@std@@@Z@4HA 000000018002a400 f   common.obj
 0001:00029400       ?dtor$0@?0???$AttrAs@VArray@v8@@@sharp@@YA?AV?$Local@VArray@v8@@@v8@@V?$Local@VObject@v8@@@2@V?$basic_string@DU?$char_traits@D@std@@V?$allocator@D@2@@std@@@Z@4HA 000000018002a400 f   pipeline.obj
 0001:00029400       ?dtor$0@?0???$New@VString@v8@@V?$basic_string@DU?$char_traits@D@std@@V?$allocator@D@2@@std@@@Nan@@YA?AV?$MaybeLocal@VString@v8@@@v8@@V?$basic_string@DU?$char_traits@D@std@@V?$allocator@D@2@@std@@@Z@4HA 000000018002a400 f   common.obj
 0001:00029400       ?dtor$0@?0??HasAttr@sharp@@YA_NV?$Local@VObject@v8@@@v8@@V?$basic_string@DU?$char_traits@D@std@@V?$allocator@D@2@@std@@@Z@4HA 000000018002a400 f   common.obj
 0001:00029410       ?dtor$0@?0??AttrAsStr@sharp@@YA?AV?$basic_string@DU?$char_traits@D@std@@V?$allocator@D@2@@std@@V?$Local@VObject@v8@@@v8@@V23@@Z@4HA 000000018002a410 f   common.obj
 0001:0002941c       ?dtor$1@?0??AttrAsStr@sharp@@YA?AV?$basic_string@DU?$char_traits@D@std@@V?$allocator@D@2@@std@@V?$Local@VObject@v8@@@v8@@V23@@Z@4HA 000000018002a41c f   common.obj
 0001:00029430       ?dtor$0@?0??CreateInputDescriptor@sharp@@YAPEAUInputDescriptor@1@V?$Local@VObject@v8@@@v8@@V?$vector@V?$Local@VObject@v8@@@v8@@V?$allocator@V?$Local@VObject@v8@@@v8@@@std@@@std@@@Z@4HA 000000018002a430 f   common.obj
 0001:0002943c       ?dtor$5@?0??CreateInputDescriptor@sharp@@YAPEAUInputDescriptor@1@V?$Local@VObject@v8@@@v8@@V?$vector@V?$Local@VObject@v8@@@v8@@V?$allocator@V?$Local@VObject@v8@@@v8@@@std@@@std@@@Z@4HA 000000018002a43c f   common.obj
 0001:00029450       ?dtor$0@?0??IsV@sharp@@YA_NAEBV?$basic_string@DU?$char_traits@D@std@@V?$allocator@D@2@@std@@@Z@4HA 000000018002a450 f   common.obj
 0001:00029450       ?dtor$0@?0??IsTiff@sharp@@YA_NAEBV?$basic_string@DU?$char_traits@D@std@@V?$allocator@D@2@@std@@@Z@4HA 000000018002a450 f   common.obj
 0001:00029450       ?dtor$0@?0??IsJpeg@sharp@@YA_NAEBV?$basic_string@DU?$char_traits@D@std@@V?$allocator@D@2@@std@@@Z@4HA 000000018002a450 f   common.obj
 0001:00029450       ?dtor$0@?0??IsDzZip@sharp@@YA_NAEBV?$basic_string@DU?$char_traits@D@std@@V?$allocator@D@2@@std@@@Z@4HA 000000018002a450 f   common.obj
 0001:00029476       ?dtor$1@?0??IsV@sharp@@YA_NAEBV?$basic_string@DU?$char_traits@D@std@@V?$allocator@D@2@@std@@@Z@4HA 000000018002a476 f   common.obj
 0001:00029476       ?dtor$1@?0??IsJpeg@sharp@@YA_NAEBV?$basic_string@DU?$char_traits@D@std@@V?$allocator@D@2@@std@@@Z@4HA 000000018002a476 f   common.obj
 0001:00029476       ?dtor$1@?0??IsTiff@sharp@@YA_NAEBV?$basic_string@DU?$char_traits@D@std@@V?$allocator@D@2@@std@@@Z@4HA 000000018002a476 f   common.obj
 0001:00029476       ?dtor$1@?0??IsDzZip@sharp@@YA_NAEBV?$basic_string@DU?$char_traits@D@std@@V?$allocator@D@2@@std@@@Z@4HA 000000018002a476 f   common.obj
 0001:0002949c       ?dtor$2@?0??IsJpeg@sharp@@YA_NAEBV?$basic_string@DU?$char_traits@D@std@@V?$allocator@D@2@@std@@@Z@4HA 000000018002a49c f   common.obj
 0001:0002949c       ?dtor$2@?0??IsTiff@sharp@@YA_NAEBV?$basic_string@DU?$char_traits@D@std@@V?$allocator@D@2@@std@@@Z@4HA 000000018002a49c f   common.obj
 0001:0002949c       ?dtor$2@?0??IsV@sharp@@YA_NAEBV?$basic_string@DU?$char_traits@D@std@@V?$allocator@D@2@@std@@@Z@4HA 000000018002a49c f   common.obj
 0001:0002949c       ?dtor$2@?0??IsDzZip@sharp@@YA_NAEBV?$basic_string@DU?$char_traits@D@std@@V?$allocator@D@2@@std@@@Z@4HA 000000018002a49c f   common.obj
 0001:000294c2       ?dtor$3@?0??IsJpeg@sharp@@YA_NAEBV?$basic_string@DU?$char_traits@D@std@@V?$allocator@D@2@@std@@@Z@4HA 000000018002a4c2 f   common.obj
 0001:000294c2       ?dtor$3@?0??IsTiff@sharp@@YA_NAEBV?$basic_string@DU?$char_traits@D@std@@V?$allocator@D@2@@std@@@Z@4HA 000000018002a4c2 f   common.obj
 0001:000294c2       ?dtor$3@?0??IsDzZip@sharp@@YA_NAEBV?$basic_string@DU?$char_traits@D@std@@V?$allocator@D@2@@std@@@Z@4HA 000000018002a4c2 f   common.obj
 0001:000294c2       ?dtor$3@?0??IsV@sharp@@YA_NAEBV?$basic_string@DU?$char_traits@D@std@@V?$allocator@D@2@@std@@@Z@4HA 000000018002a4c2 f   common.obj
 0001:000294f0       ?dtor$0@?0??IsWebp@sharp@@YA_NAEBV?$basic_string@DU?$char_traits@D@std@@V?$allocator@D@2@@std@@@Z@4HA 000000018002a4f0 f   common.obj
 0001:000294f0       ?dtor$0@?0??IsPng@sharp@@YA_NAEBV?$basic_string@DU?$char_traits@D@std@@V?$allocator@D@2@@std@@@Z@4HA 000000018002a4f0 f   common.obj
 0001:000294f0       ?dtor$0@?0??IsDz@sharp@@YA_NAEBV?$basic_string@DU?$char_traits@D@std@@V?$allocator@D@2@@std@@@Z@4HA 000000018002a4f0 f   common.obj
 0001:00029516       ?dtor$1@?0??IsWebp@sharp@@YA_NAEBV?$basic_string@DU?$char_traits@D@std@@V?$allocator@D@2@@std@@@Z@4HA 000000018002a516 f   common.obj
 0001:00029516       ?dtor$1@?0??IsPng@sharp@@YA_NAEBV?$basic_string@DU?$char_traits@D@std@@V?$allocator@D@2@@std@@@Z@4HA 000000018002a516 f   common.obj
 0001:00029516       ?dtor$1@?0??IsDz@sharp@@YA_NAEBV?$basic_string@DU?$char_traits@D@std@@V?$allocator@D@2@@std@@@Z@4HA 000000018002a516 f   common.obj
 0001:00029540       ?dtor$0@?0???$?HDU?$char_traits@D@std@@V?$allocator@D@1@@std@@YA?AV?$basic_string@DU?$char_traits@D@std@@V?$allocator@D@2@@0@AEBV10@PEBD@Z@4HA 000000018002a540 f   pipeline.obj
 0001:00029540       ?dtor$0@?0???$?HDU?$char_traits@D@std@@V?$allocator@D@1@@std@@YA?AV?$basic_string@DU?$char_traits@D@std@@V?$allocator@D@2@@0@PEBDAEBV10@@Z@4HA 000000018002a540 f   pipeline.obj
 0001:00029540       ?dtor$0@?0??ImageTypeId@sharp@@YA?AV?$basic_string@DU?$char_traits@D@std@@V?$allocator@D@2@@std@@W4ImageType@1@@Z@4HA 000000018002a540 f   common.obj
 0001:00029570       ?dtor$0@?0??DetermineImageType@sharp@@YA?AW4ImageType@1@PEAX_K@Z@4HA 000000018002a570 f   common.obj
 0001:0002957c       ?dtor$1@?0??DetermineImageType@sharp@@YA?AW4ImageType@1@PEAX_K@Z@4HA 000000018002a57c f   common.obj
 0001:00029588       ?dtor$2@?0??DetermineImageType@sharp@@YA?AW4ImageType@1@PEAX_K@Z@4HA 000000018002a588 f   common.obj
 0001:00029594       ?dtor$3@?0??DetermineImageType@sharp@@YA?AW4ImageType@1@PEAX_K@Z@4HA 000000018002a594 f   common.obj
 0001:000295a0       ?dtor$4@?0??DetermineImageType@sharp@@YA?AW4ImageType@1@PEAX_K@Z@4HA 000000018002a5a0 f   common.obj
 0001:000295ac       ?dtor$5@?0??DetermineImageType@sharp@@YA?AW4ImageType@1@PEAX_K@Z@4HA 000000018002a5ac f   common.obj
 0001:000295b8       ?dtor$6@?0??DetermineImageType@sharp@@YA?AW4ImageType@1@PEAX_K@Z@4HA 000000018002a5b8 f   common.obj
 0001:000295c4       ?dtor$7@?0??DetermineImageType@sharp@@YA?AW4ImageType@1@PEAX_K@Z@4HA 000000018002a5c4 f   common.obj
 0001:000295d0       ?dtor$8@?0??DetermineImageType@sharp@@YA?AW4ImageType@1@PEAX_K@Z@4HA 000000018002a5d0 f   common.obj
 0001:000295e0       ?dtor$0@?0??DetermineImageType@sharp@@YA?AW4ImageType@1@PEBD@Z@4HA 000000018002a5e0 f   common.obj
 0001:000295ec       ?dtor$1@?0??DetermineImageType@sharp@@YA?AW4ImageType@1@PEBD@Z@4HA 000000018002a5ec f   common.obj
 0001:000295f8       ?dtor$2@?0??DetermineImageType@sharp@@YA?AW4ImageType@1@PEBD@Z@4HA 000000018002a5f8 f   common.obj
 0001:00029604       ?dtor$3@?0??DetermineImageType@sharp@@YA?AW4ImageType@1@PEBD@Z@4HA 000000018002a604 f   common.obj
 0001:00029610       ?dtor$4@?0??DetermineImageType@sharp@@YA?AW4ImageType@1@PEBD@Z@4HA 000000018002a610 f   common.obj
 0001:0002961c       ?dtor$5@?0??DetermineImageType@sharp@@YA?AW4ImageType@1@PEBD@Z@4HA 000000018002a61c f   common.obj
 0001:00029628       ?dtor$6@?0??DetermineImageType@sharp@@YA?AW4ImageType@1@PEBD@Z@4HA 000000018002a628 f   common.obj
 0001:00029634       ?dtor$7@?0??DetermineImageType@sharp@@YA?AW4ImageType@1@PEBD@Z@4HA 000000018002a634 f   common.obj
 0001:00029640       ?dtor$8@?0??DetermineImageType@sharp@@YA?AW4ImageType@1@PEBD@Z@4HA 000000018002a640 f   common.obj
 0001:0002964c       ?dtor$9@?0??DetermineImageType@sharp@@YA?AW4ImageType@1@PEBD@Z@4HA 000000018002a64c f   common.obj
 0001:00029658       ?dtor$10@?0??DetermineImageType@sharp@@YA?AW4ImageType@1@PEBD@Z@4HA 000000018002a658 f   common.obj
 0001:00029664       ?dtor$11@?0??DetermineImageType@sharp@@YA?AW4ImageType@1@PEBD@Z@4HA 000000018002a664 f   common.obj
 0001:00029670       ?dtor$12@?0??DetermineImageType@sharp@@YA?AW4ImageType@1@PEBD@Z@4HA 000000018002a670 f   common.obj
 0001:00029696       ?dtor$13@?0??DetermineImageType@sharp@@YA?AW4ImageType@1@PEBD@Z@4HA 000000018002a696 f   common.obj
 0001:000296c0       ?dtor$0@?0??OpenInput@sharp@@YA?AV?$tuple@VVImage@vips@@W4ImageType@sharp@@@std@@PEAUInputDescriptor@1@W4VipsAccess@@@Z@4HA 000000018002a6c0 f   common.obj
 0001:000296ce       ?dtor$1@?0??OpenInput@sharp@@YA?AV?$tuple@VVImage@vips@@W4ImageType@sharp@@@std@@PEAUInputDescriptor@1@W4VipsAccess@@@Z@4HA 000000018002a6ce f   common.obj
 0001:000296dc       ?dtor$2@?0??OpenInput@sharp@@YA?AV?$tuple@VVImage@vips@@W4ImageType@sharp@@@std@@PEAUInputDescriptor@1@W4VipsAccess@@@Z@4HA 000000018002a6dc f   common.obj
 0001:000296e8       ?dtor$3@?0??OpenInput@sharp@@YA?AV?$tuple@VVImage@vips@@W4ImageType@sharp@@@std@@PEAUInputDescriptor@1@W4VipsAccess@@@Z@4HA 000000018002a6e8 f   common.obj
 0001:000296f6       ?catch$13@?0??OpenInput@sharp@@YA?AV?$tuple@VVImage@vips@@W4ImageType@sharp@@@std@@PEAUInputDescriptor@1@W4VipsAccess@@@Z@4HA 000000018002a6f6 f   common.obj
 0001:00029703       __catch$?OpenInput@sharp@@YA?AV?$tuple@VVImage@vips@@W4ImageType@sharp@@@std@@PEAUInputDescriptor@1@W4VipsAccess@@@Z$0 000000018002a703 f   common.obj
 0001:00029755       ?dtor$7@?0??OpenInput@sharp@@YA?AV?$tuple@VVImage@vips@@W4ImageType@sharp@@@std@@PEAUInputDescriptor@1@W4VipsAccess@@@Z@4HA 000000018002a755 f   common.obj
 0001:00029761       ?dtor$8@?0??OpenInput@sharp@@YA?AV?$tuple@VVImage@vips@@W4ImageType@sharp@@@std@@PEAUInputDescriptor@1@W4VipsAccess@@@Z@4HA 000000018002a761 f   common.obj
 0001:0002976f       ?catch$14@?0??OpenInput@sharp@@YA?AV?$tuple@VVImage@vips@@W4ImageType@sharp@@@std@@PEAUInputDescriptor@1@W4VipsAccess@@@Z@4HA 000000018002a76f f   common.obj
 0001:0002977c       __catch$?OpenInput@sharp@@YA?AV?$tuple@VVImage@vips@@W4ImageType@sharp@@@std@@PEAUInputDescriptor@1@W4VipsAccess@@@Z$2 000000018002a77c f   common.obj
 0001:000297d0       ?dtor$0@?0??RemoveExifOrientation@sharp@@YAXVVImage@vips@@@Z@4HA 000000018002a7d0 f   common.obj
 0001:000297d0       ?dtor$0@?0??HasProfile@sharp@@YA_NVVImage@vips@@@Z@4HA 000000018002a7d0 f   common.obj
 0001:000297d0       ?dtor$0@?0??HasAlpha@sharp@@YA_NVVImage@vips@@@Z@4HA 000000018002a7d0 f   common.obj
 0001:000297e0       ?dtor$0@?0??SetDensity@sharp@@YAXVVImage@vips@@H@Z@4HA 000000018002a7e0 f   common.obj
 0001:000297f0       ?dtor$0@?0??GetRgbaAsColourspace@sharp@@YA?AV?$vector@NV?$allocator@N@std@@@std@@V23@W4VipsInterpretation@@@Z@4HA 000000018002a7f0 f   common.obj
 0001:000297fc       ?dtor$2@?0??GetRgbaAsColourspace@sharp@@YA?AV?$vector@NV?$allocator@N@std@@@std@@V23@W4VipsInterpretation@@@Z@4HA 000000018002a7fc f   common.obj
 0001:0002980a       ?dtor$4@?0??GetRgbaAsColourspace@sharp@@YA?AV?$vector@NV?$allocator@N@std@@@std@@V23@W4VipsInterpretation@@@Z@4HA 000000018002a80a f   common.obj
 0001:00029818       ?dtor$5@?0??GetRgbaAsColourspace@sharp@@YA?AV?$vector@NV?$allocator@N@std@@@std@@V23@W4VipsInterpretation@@@Z@4HA 000000018002a818 f   common.obj
 0001:00029830       ?dtor$0@?0???$AttrTo@H@sharp@@YAHV?$Local@VObject@v8@@@v8@@V?$basic_string@DU?$char_traits@D@std@@V?$allocator@D@2@@std@@@Z@4HA 000000018002a830 f   pipeline.obj
 0001:00029830       ?dtor$0@?0???$AttrTo@_N@sharp@@YA_NV?$Local@VObject@v8@@@v8@@V?$basic_string@DU?$char_traits@D@std@@V?$allocator@D@2@@std@@@Z@4HA 000000018002a830 f   pipeline.obj
 0001:00029830       ?dtor$0@?0???$?0AEAY0P@$$CBDPEBDX$0A@@?$pair@V?$basic_string@DU?$char_traits@D@std@@V?$allocator@D@2@@std@@V12@@std@@QEAA@AEAY0P@$$CBD$$QEAPEBD@Z@4HA 000000018002a830 f   pipeline.obj
 0001:00029830       ?dtor$0@?0???$AttrTo@I@sharp@@YAIV?$Local@VObject@v8@@@v8@@V?$basic_string@DU?$char_traits@D@std@@V?$allocator@D@2@@std@@@Z@4HA 000000018002a830 f   common.obj
 0001:00029830       ?dtor$0@?0???$?0AEAY06$$CBDPEBDX$0A@@?$pair@V?$basic_string@DU?$char_traits@D@std@@V?$allocator@D@2@@std@@V12@@std@@QEAA@AEAY06$$CBD$$QEAPEBD@Z@4HA 000000018002a830 f   pipeline.obj
 0001:00029830       ?dtor$0@?0???$?0AEAY08$$CBDPEBDX$0A@@?$pair@V?$basic_string@DU?$char_traits@D@std@@V?$allocator@D@2@@std@@V12@@std@@QEAA@AEAY08$$CBD$$QEAPEBD@Z@4HA 000000018002a830 f   pipeline.obj
 0001:00029830       ?dtor$0@?0???$?0AEAY09$$CBDPEBDX$0A@@?$pair@V?$basic_string@DU?$char_traits@D@std@@V?$allocator@D@2@@std@@V12@@std@@QEAA@AEAY09$$CBD$$QEAPEBD@Z@4HA 000000018002a830 f   pipeline.obj
 0001:00029830       ?dtor$0@?0???$?0AEAY0O@$$CBDPEBDX$0A@@?$pair@V?$basic_string@DU?$char_traits@D@std@@V?$allocator@D@2@@std@@V12@@std@@QEAA@AEAY0O@$$CBD$$QEAPEBD@Z@4HA 000000018002a830 f   pipeline.obj
 0001:00029830       ?dtor$0@?0???$?0AEAY0N@$$CBDPEBDX$0A@@?$pair@V?$basic_string@DU?$char_traits@D@std@@V?$allocator@D@2@@std@@V12@@std@@QEAA@AEAY0N@$$CBD$$QEAPEBD@Z@4HA 000000018002a830 f   pipeline.obj
 0001:00029830       ?dtor$0@?0???$?0AEAY0BE@$$CBDPEBDX$0A@@?$pair@V?$basic_string@DU?$char_traits@D@std@@V?$allocator@D@2@@std@@V12@@std@@QEAA@AEAY0BE@$$CBD$$QEAPEBD@Z@4HA 000000018002a830 f   pipeline.obj
 0001:00029830       ?dtor$0@?0???$?0AEAY0BA@$$CBDAEAY04$$CBDX$0A@@?$pair@V?$basic_string@DU?$char_traits@D@std@@V?$allocator@D@2@@std@@V12@@std@@QEAA@AEAY0BA@$$CBDAEAY04$$CBD@Z@4HA 000000018002a830 f   pipeline.obj
 0001:00029840       ?dtor$0@?0??Set@Nan@@YA?AV?$Maybe@_N@v8@@V?$Local@VObject@v8@@@3@V?$Local@VValue@v8@@@3@1@Z@4HA 000000018002a840 f   metadata.obj
 0001:00029850       ?dtor$0@?0??Call@Callback@Nan@@QEBA?AV?$Local@VValue@v8@@@v8@@HQEAV34@@Z@4HA 000000018002a850 f   metadata.obj
 0001:00029850       ?dtor$0@?0??New@?$Factory@VFunctionTemplate@v8@@@imp@Nan@@SA?AV?$Local@VFunctionTemplate@v8@@@v8@@P6AXAEBV?$FunctionCallbackInfo@VValue@v8@@@3@@ZV?$Local@VValue@v8@@@5@V?$Local@VSignature@v8@@@5@@Z@4HA 000000018002a850 f   sharp.obj
 0001:00029860       ?dtor$0@?0???0AsyncWorker@Nan@@QEAA@PEAVCallback@1@@Z@4HA 000000018002a860 f   metadata.obj
 0001:00029873       ?dtor$1@?0???0AsyncWorker@Nan@@QEAA@PEAVCallback@1@@Z@4HA 000000018002a873 f   metadata.obj
 0001:00029880       ?dtor$0@?0???$_Accumulate_unchecked@PEBV?$Local@VObject@v8@@@v8@@HV<lambda_9252aa89fe9814f85e2a072fe573e6da>@@@std@@YAHPEBV?$Local@VObject@v8@@@v8@@0HAEAV<lambda_9252aa89fe9814f85e2a072fe573e6da>@@@Z@4HA 000000018002a880 f   metadata.obj
 0001:00029880       ?dtor$0@?0??WorkComplete@AsyncWorker@Nan@@UEAAXXZ@4HA 000000018002a880 f   metadata.obj
 0001:00029880       ?dtor$0@?0??GetFromPersistent@AsyncWorker@Nan@@QEBA?AV?$Local@VValue@v8@@@v8@@I@Z@4HA 000000018002a880 f   metadata.obj
 0001:00029880       ?dtor$0@?0??HandleOKCallback@AsyncWorker@Nan@@MEAAXXZ@4HA 000000018002a880 f   metadata.obj
 0001:00029880       ?dtor$0@?0???$_Accumulate_unchecked@PEBV?$Local@VObject@v8@@@v8@@HV<lambda_1cf14cbc5c28648f7ac9038b3f6db2a5>@@@std@@YAHPEBV?$Local@VObject@v8@@@v8@@0HAEAV<lambda_1cf14cbc5c28648f7ac9038b3f6db2a5>@@@Z@4HA 000000018002a880 f   pipeline.obj
 0001:00029890       ?dtor$0@?0???0MetadataWorker@@QEAA@PEAVCallback@Nan@@PEAUMetadataBaton@@V?$vector@V?$Local@VObject@v8@@@v8@@V?$allocator@V?$Local@VObject@v8@@@v8@@@std@@@std@@@Z@4HA 000000018002a890 f   metadata.obj
 0001:0002989c       ?dtor$1@?0???0MetadataWorker@@QEAA@PEAVCallback@Nan@@PEAUMetadataBaton@@V?$vector@V?$Local@VObject@v8@@@v8@@V?$allocator@V?$Local@VObject@v8@@@v8@@@std@@@std@@@Z@4HA 000000018002a89c f   metadata.obj
 0001:000298a8       ?dtor$2@?0???0MetadataWorker@@QEAA@PEAVCallback@Nan@@PEAUMetadataBaton@@V?$vector@V?$Local@VObject@v8@@@v8@@V?$allocator@V?$Local@VObject@v8@@@v8@@@std@@@std@@@Z@4HA 000000018002a8a8 f   metadata.obj
 0001:000298c0       ?dtor$0@?0??Execute@MetadataWorker@@UEAAXXZ@4HA 000000018002a8c0 f   metadata.obj
 0001:000298ce       ?dtor$1@?0??Execute@MetadataWorker@@UEAAXXZ@4HA 000000018002a8ce f   metadata.obj
 0001:000298da       ?catch$14@?0??Execute@MetadataWorker@@UEAAXXZ@4HA 000000018002a8da f   metadata.obj
 0001:000298e7       __catch$?Execute@MetadataWorker@@UEAAXXZ$0 000000018002a8e7 f   metadata.obj
 0001:00029931       ?dtor$2@?0??Execute@MetadataWorker@@UEAAXXZ@4HA 000000018002a931 f   metadata.obj
 0001:0002993d       ?dtor$10@?0??Execute@MetadataWorker@@UEAAXXZ@4HA 000000018002a93d f   metadata.obj
 0001:0002994b       ?dtor$11@?0??Execute@MetadataWorker@@UEAAXXZ@4HA 000000018002a94b f   metadata.obj
 0001:00029959       ?dtor$12@?0??Execute@MetadataWorker@@UEAAXXZ@4HA 000000018002a959 f   metadata.obj
 0001:00029967       ?dtor$13@?0??Execute@MetadataWorker@@UEAAXXZ@4HA 000000018002a967 f   metadata.obj
 0001:00029980       ?dtor$0@?0??metadata@@YAXAEBV?$FunctionCallbackInfo@VValue@v8@@@Nan@@@Z@4HA 000000018002a980 f   metadata.obj
 0001:0002998c       ?dtor$2@?0??metadata@@YAXAEBV?$FunctionCallbackInfo@VValue@v8@@@Nan@@@Z@4HA 000000018002a98c f   metadata.obj
 0001:00029998       ?dtor$4@?0??metadata@@YAXAEBV?$FunctionCallbackInfo@VValue@v8@@@Nan@@@Z@4HA 000000018002a998 f   metadata.obj
 0001:000299b8       ?dtor$5@?0??metadata@@YAXAEBV?$FunctionCallbackInfo@VValue@v8@@@Nan@@@Z@4HA 000000018002a9b8 f   metadata.obj
 0001:000299e0       ?dtor$0@?0??Composite@sharp@@YA?AVVImage@vips@@V23@0HH@Z@4HA 000000018002a9e0 f   operations.obj
 0001:000299e0       ?dtor$0@?0??Composite@sharp@@YA?AVVImage@vips@@V23@0H@Z@4HA 000000018002a9e0 f   operations.obj
 0001:000299ee       ?dtor$1@?0??Composite@sharp@@YA?AVVImage@vips@@V23@0H@Z@4HA 000000018002a9ee f   operations.obj
 0001:000299ee       ?dtor$1@?0??Composite@sharp@@YA?AVVImage@vips@@V23@0HH@Z@4HA 000000018002a9ee f   operations.obj
 0001:000299fc       ?dtor$2@?0??Composite@sharp@@YA?AVVImage@vips@@V23@0HH@Z@4HA 000000018002a9fc f   operations.obj
 0001:000299fc       ?dtor$2@?0??Composite@sharp@@YA?AVVImage@vips@@V23@0H@Z@4HA 000000018002a9fc f   operations.obj
 0001:00029a0a       ?dtor$4@?0??Composite@sharp@@YA?AVVImage@vips@@V23@0HH@Z@4HA 000000018002aa0a f   operations.obj
 0001:00029a0a       ?dtor$4@?0??Composite@sharp@@YA?AVVImage@vips@@V23@0H@Z@4HA 000000018002aa0a f   operations.obj
 0001:00029a16       ?dtor$5@?0??Composite@sharp@@YA?AVVImage@vips@@V23@0H@Z@4HA 000000018002aa16 f   operations.obj
 0001:00029a16       ?dtor$5@?0??Composite@sharp@@YA?AVVImage@vips@@V23@0HH@Z@4HA 000000018002aa16 f   operations.obj
 0001:00029a22       ?dtor$6@?0??Composite@sharp@@YA?AVVImage@vips@@V23@0HH@Z@4HA 000000018002aa22 f   operations.obj
 0001:00029a22       ?dtor$6@?0??Composite@sharp@@YA?AVVImage@vips@@V23@0H@Z@4HA 000000018002aa22 f   operations.obj
 0001:00029a30       ?dtor$7@?0??Composite@sharp@@YA?AVVImage@vips@@V23@0H@Z@4HA 000000018002aa30 f   operations.obj
 0001:00029a30       ?dtor$7@?0??Composite@sharp@@YA?AVVImage@vips@@V23@0HH@Z@4HA 000000018002aa30 f   operations.obj
 0001:00029a40       ?dtor$0@?0??IsInputValidForComposition@sharp@@YA_NVVImage@vips@@0@Z@4HA 000000018002aa40 f   operations.obj
 0001:00029a4e       ?dtor$1@?0??IsInputValidForComposition@sharp@@YA_NVVImage@vips@@0@Z@4HA 000000018002aa4e f   operations.obj
 0001:00029a5c       ?dtor$7@?0??IsInputValidForComposition@sharp@@YA_NVVImage@vips@@0@Z@4HA 000000018002aa5c f   operations.obj
 0001:00029a70       ?dtor$0@?0??CompositeImage@sharp@@YA?AVVImage@vips@@V23@0@Z@4HA 000000018002aa70 f   operations.obj
 0001:00029a7e       ?dtor$1@?0??CompositeImage@sharp@@YA?AVVImage@vips@@V23@0@Z@4HA 000000018002aa7e f   operations.obj
 0001:00029a8c       ?dtor$2@?0??CompositeImage@sharp@@YA?AVVImage@vips@@V23@0@Z@4HA 000000018002aa8c f   operations.obj
 0001:00029a9a       ?dtor$4@?0??CompositeImage@sharp@@YA?AVVImage@vips@@V23@0@Z@4HA 000000018002aa9a f   operations.obj
 0001:00029aa8       ?dtor$5@?0??CompositeImage@sharp@@YA?AVVImage@vips@@V23@0@Z@4HA 000000018002aaa8 f   operations.obj
 0001:00029ab6       ?dtor$7@?0??CompositeImage@sharp@@YA?AVVImage@vips@@V23@0@Z@4HA 000000018002aab6 f   operations.obj
 0001:00029ac4       ?dtor$8@?0??CompositeImage@sharp@@YA?AVVImage@vips@@V23@0@Z@4HA 000000018002aac4 f   operations.obj
 0001:00029ad2       ?dtor$9@?0??CompositeImage@sharp@@YA?AVVImage@vips@@V23@0@Z@4HA 000000018002aad2 f   operations.obj
 0001:00029ae0       ?dtor$11@?0??CompositeImage@sharp@@YA?AVVImage@vips@@V23@0@Z@4HA 000000018002aae0 f   operations.obj
 0001:00029aee       ?dtor$13@?0??CompositeImage@sharp@@YA?AVVImage@vips@@V23@0@Z@4HA 000000018002aaee f   operations.obj
 0001:00029afc       ?dtor$14@?0??CompositeImage@sharp@@YA?AVVImage@vips@@V23@0@Z@4HA 000000018002aafc f   operations.obj
 0001:00029b0a       ?dtor$16@?0??CompositeImage@sharp@@YA?AVVImage@vips@@V23@0@Z@4HA 000000018002ab0a f   operations.obj
 0001:00029b18       ?dtor$18@?0??CompositeImage@sharp@@YA?AVVImage@vips@@V23@0@Z@4HA 000000018002ab18 f   operations.obj
 0001:00029b30       ?dtor$0@?0??Cutout@sharp@@YA?AVVImage@vips@@V23@0H@Z@4HA 000000018002ab30 f   operations.obj
 0001:00029b3e       ?dtor$1@?0??Cutout@sharp@@YA?AVVImage@vips@@V23@0H@Z@4HA 000000018002ab3e f   operations.obj
 0001:00029b4c       ?dtor$21@?0??Cutout@sharp@@YA?AVVImage@vips@@V23@0H@Z@4HA 000000018002ab4c f   operations.obj
 0001:00029b5a       ?dtor$22@?0??Cutout@sharp@@YA?AVVImage@vips@@V23@0H@Z@4HA 000000018002ab5a f   operations.obj
 0001:00029b68       ?dtor$7@?0??Cutout@sharp@@YA?AVVImage@vips@@V23@0H@Z@4HA 000000018002ab68 f   operations.obj
 0001:00029b74       ?dtor$8@?0??Cutout@sharp@@YA?AVVImage@vips@@V23@0H@Z@4HA 000000018002ab74 f   operations.obj
 0001:00029b80       ?dtor$9@?0??Cutout@sharp@@YA?AVVImage@vips@@V23@0H@Z@4HA 000000018002ab80 f   operations.obj
 0001:00029b8e       ?dtor$10@?0??Cutout@sharp@@YA?AVVImage@vips@@V23@0H@Z@4HA 000000018002ab8e f   operations.obj
 0001:00029b9c       ?dtor$11@?0??Cutout@sharp@@YA?AVVImage@vips@@V23@0H@Z@4HA 000000018002ab9c f   operations.obj
 0001:00029baa       ?dtor$12@?0??Cutout@sharp@@YA?AVVImage@vips@@V23@0H@Z@4HA 000000018002abaa f   operations.obj
 0001:00029bb8       ?dtor$14@?0??Cutout@sharp@@YA?AVVImage@vips@@V23@0H@Z@4HA 000000018002abb8 f   operations.obj
 0001:00029bc6       ?dtor$18@?0??Cutout@sharp@@YA?AVVImage@vips@@V23@0H@Z@4HA 000000018002abc6 f   operations.obj
 0001:00029be0       ?dtor$0@?0??Normalise@sharp@@YA?AVVImage@vips@@V23@@Z@4HA 000000018002abe0 f   operations.obj
 0001:00029bee       ?dtor$1@?0??Normalise@sharp@@YA?AVVImage@vips@@V23@@Z@4HA 000000018002abee f   operations.obj
 0001:00029bfc       ?dtor$2@?0??Normalise@sharp@@YA?AVVImage@vips@@V23@@Z@4HA 000000018002abfc f   operations.obj
 0001:00029c0a       ?dtor$3@?0??Normalise@sharp@@YA?AVVImage@vips@@V23@@Z@4HA 000000018002ac0a f   operations.obj
 0001:00029c18       ?dtor$6@?0??Normalise@sharp@@YA?AVVImage@vips@@V23@@Z@4HA 000000018002ac18 f   operations.obj
 0001:00029c26       ?dtor$7@?0??Normalise@sharp@@YA?AVVImage@vips@@V23@@Z@4HA 000000018002ac26 f   operations.obj
 0001:00029c34       ?dtor$8@?0??Normalise@sharp@@YA?AVVImage@vips@@V23@@Z@4HA 000000018002ac34 f   operations.obj
 0001:00029c42       ?dtor$9@?0??Normalise@sharp@@YA?AVVImage@vips@@V23@@Z@4HA 000000018002ac42 f   operations.obj
 0001:00029c50       ?dtor$10@?0??Normalise@sharp@@YA?AVVImage@vips@@V23@@Z@4HA 000000018002ac50 f   operations.obj
 0001:00029c5e       ?dtor$12@?0??Normalise@sharp@@YA?AVVImage@vips@@V23@@Z@4HA 000000018002ac5e f   operations.obj
 0001:00029c70       ?dtor$0@?0??Gamma@sharp@@YA?AVVImage@vips@@V23@N@Z@4HA 000000018002ac70 f   operations.obj
 0001:00029c7e       ?dtor$7@?0??Gamma@sharp@@YA?AVVImage@vips@@V23@N@Z@4HA 000000018002ac7e f   operations.obj
 0001:00029c8c       ?dtor$2@?0??Gamma@sharp@@YA?AVVImage@vips@@V23@N@Z@4HA 000000018002ac8c f   operations.obj
 0001:00029c9a       ?dtor$3@?0??Gamma@sharp@@YA?AVVImage@vips@@V23@N@Z@4HA 000000018002ac9a f   operations.obj
 0001:00029ca8       ?dtor$4@?0??Gamma@sharp@@YA?AVVImage@vips@@V23@N@Z@4HA 000000018002aca8 f   operations.obj
 0001:00029cb6       ?dtor$5@?0??Gamma@sharp@@YA?AVVImage@vips@@V23@N@Z@4HA 000000018002acb6 f   operations.obj
 0001:00029cd0       ?dtor$0@?0??Blur@sharp@@YA?AVVImage@vips@@V23@N@Z@4HA 000000018002acd0 f   operations.obj
 0001:00029cde       ?dtor$1@?0??Blur@sharp@@YA?AVVImage@vips@@V23@N@Z@4HA 000000018002acde f   operations.obj
 0001:00029cf0       ?dtor$0@?0??Convolve@sharp@@YA?AVVImage@vips@@V23@HHNNAEBV?$unique_ptr@$$BY0A@NU?$default_delete@$$BY0A@N@std@@@std@@@Z@4HA 000000018002acf0 f   operations.obj
 0001:00029cfe       ?dtor$1@?0??Convolve@sharp@@YA?AVVImage@vips@@V23@HHNNAEBV?$unique_ptr@$$BY0A@NU?$default_delete@$$BY0A@N@std@@@std@@@Z@4HA 000000018002acfe f   operations.obj
 0001:00029d10       ?dtor$0@?0??Sharpen@sharp@@YA?AVVImage@vips@@V23@NNN@Z@4HA 000000018002ad10 f   operations.obj
 0001:00029d1e       ?dtor$1@?0??Sharpen@sharp@@YA?AVVImage@vips@@V23@NNN@Z@4HA 000000018002ad1e f   operations.obj
 0001:00029d2c       ?dtor$4@?0??Sharpen@sharp@@YA?AVVImage@vips@@V23@NNN@Z@4HA 000000018002ad2c f   operations.obj
 0001:00029d40       ?dtor$0@?0???RAttentionStrategy@sharp@@QEAANVVImage@vips@@@Z@4HA 000000018002ad40 f   operations.obj
 0001:00029d4e       ?dtor$2@?0???RAttentionStrategy@sharp@@QEAANVVImage@vips@@@Z@4HA 000000018002ad4e f   operations.obj
 0001:00029d5a       ?dtor$3@?0???RAttentionStrategy@sharp@@QEAANVVImage@vips@@@Z@4HA 000000018002ad5a f   operations.obj
 0001:00029d66       ?dtor$4@?0???RAttentionStrategy@sharp@@QEAANVVImage@vips@@@Z@4HA 000000018002ad66 f   operations.obj
 0001:00029d74       ?dtor$5@?0???RAttentionStrategy@sharp@@QEAANVVImage@vips@@@Z@4HA 000000018002ad74 f   operations.obj
 0001:00029d82       ?dtor$6@?0???RAttentionStrategy@sharp@@QEAANVVImage@vips@@@Z@4HA 000000018002ad82 f   operations.obj
 0001:00029d90       ?dtor$7@?0???RAttentionStrategy@sharp@@QEAANVVImage@vips@@@Z@4HA 000000018002ad90 f   operations.obj
 0001:00029d9e       ?dtor$8@?0???RAttentionStrategy@sharp@@QEAANVVImage@vips@@@Z@4HA 000000018002ad9e f   operations.obj
 0001:00029dac       ?dtor$9@?0???RAttentionStrategy@sharp@@QEAANVVImage@vips@@@Z@4HA 000000018002adac f   operations.obj
 0001:00029dba       ?dtor$11@?0???RAttentionStrategy@sharp@@QEAANVVImage@vips@@@Z@4HA 000000018002adba f   operations.obj
 0001:00029dc8       ?dtor$12@?0???RAttentionStrategy@sharp@@QEAANVVImage@vips@@@Z@4HA 000000018002adc8 f   operations.obj
 0001:00029dd6       ?dtor$14@?0???RAttentionStrategy@sharp@@QEAANVVImage@vips@@@Z@4HA 000000018002add6 f   operations.obj
 0001:00029de4       ?dtor$16@?0???RAttentionStrategy@sharp@@QEAANVVImage@vips@@@Z@4HA 000000018002ade4 f   operations.obj
 0001:00029df2       ?dtor$18@?0???RAttentionStrategy@sharp@@QEAANVVImage@vips@@@Z@4HA 000000018002adf2 f   operations.obj
 0001:00029e00       ?dtor$20@?0???RAttentionStrategy@sharp@@QEAANVVImage@vips@@@Z@4HA 000000018002ae00 f   operations.obj
 0001:00029e0e       ?dtor$22@?0???RAttentionStrategy@sharp@@QEAANVVImage@vips@@@Z@4HA 000000018002ae0e f   operations.obj
 0001:00029e1c       ?dtor$27@?0???RAttentionStrategy@sharp@@QEAANVVImage@vips@@@Z@4HA 000000018002ae1c f   operations.obj
 0001:00029e2a       ?dtor$28@?0???RAttentionStrategy@sharp@@QEAANVVImage@vips@@@Z@4HA 000000018002ae2a f   operations.obj
 0001:00029e38       ?dtor$29@?0???RAttentionStrategy@sharp@@QEAANVVImage@vips@@@Z@4HA 000000018002ae38 f   operations.obj
 0001:00029e46       ?dtor$31@?0???RAttentionStrategy@sharp@@QEAANVVImage@vips@@@Z@4HA 000000018002ae46 f   operations.obj
 0001:00029e54       ?dtor$32@?0???RAttentionStrategy@sharp@@QEAANVVImage@vips@@@Z@4HA 000000018002ae54 f   operations.obj
 0001:00029e62       ?dtor$33@?0???RAttentionStrategy@sharp@@QEAANVVImage@vips@@@Z@4HA 000000018002ae62 f   operations.obj
 0001:00029e70       ?dtor$36@?0???RAttentionStrategy@sharp@@QEAANVVImage@vips@@@Z@4HA 000000018002ae70 f   operations.obj
 0001:00029e80       ?dtor$0@?0??Crop@sharp@@YA?AV?$tuple@HH@std@@VVImage@vips@@HHV?$function@$$A6ANVVImage@vips@@@Z@3@@Z@4HA 000000018002ae80 f   operations.obj
 0001:00029e8c       ?dtor$1@?0??Crop@sharp@@YA?AV?$tuple@HH@std@@VVImage@vips@@HHV?$function@$$A6ANVVImage@vips@@@Z@3@@Z@4HA 000000018002ae8c f   operations.obj
 0001:00029e9a       ?dtor$6@?0??Crop@sharp@@YA?AV?$tuple@HH@std@@VVImage@vips@@HHV?$function@$$A6ANVVImage@vips@@@Z@3@@Z@4HA 000000018002ae9a f   operations.obj
 0001:00029ea8       ?dtor$7@?0??Crop@sharp@@YA?AV?$tuple@HH@std@@VVImage@vips@@HHV?$function@$$A6ANVVImage@vips@@@Z@3@@Z@4HA 000000018002aea8 f   operations.obj
 0001:00029eb6       ?dtor$8@?0??Crop@sharp@@YA?AV?$tuple@HH@std@@VVImage@vips@@HHV?$function@$$A6ANVVImage@vips@@@Z@3@@Z@4HA 000000018002aeb6 f   operations.obj
 0001:00029ec4       ?dtor$9@?0??Crop@sharp@@YA?AV?$tuple@HH@std@@VVImage@vips@@HHV?$function@$$A6ANVVImage@vips@@@Z@3@@Z@4HA 000000018002aec4 f   operations.obj
 0001:00029ee0       ?dtor$0@?0??TileCache@sharp@@YA?AVVImage@vips@@V23@N@Z@4HA 000000018002aee0 f   operations.obj
 0001:00029ef0       ?dtor$0@?0??Threshold@sharp@@YA?AVVImage@vips@@V23@N_N@Z@4HA 000000018002aef0 f   operations.obj
 0001:00029f00       ?dtor$0@?0??Bandbool@sharp@@YA?AVVImage@vips@@V23@W4VipsOperationBoolean@@@Z@4HA 000000018002af00 f   operations.obj
 0001:00029f0e       ?dtor$1@?0??Bandbool@sharp@@YA?AVVImage@vips@@V23@W4VipsOperationBoolean@@@Z@4HA 000000018002af0e f   operations.obj
 0001:00029f20       ?dtor$0@?0??Boolean@sharp@@YA?AVVImage@vips@@V23@0W4VipsOperationBoolean@@@Z@4HA 000000018002af20 f   operations.obj
 0001:00029f2e       ?dtor$1@?0??Boolean@sharp@@YA?AVVImage@vips@@V23@0W4VipsOperationBoolean@@@Z@4HA 000000018002af2e f   operations.obj
 0001:00029f40       ?dtor$0@?0??Trim@sharp@@YA?AVVImage@vips@@V23@H@Z@4HA 000000018002af40 f   operations.obj
 0001:00029f4e       ?dtor$1@?0??Trim@sharp@@YA?AVVImage@vips@@V23@H@Z@4HA 000000018002af4e f   operations.obj
 0001:00029f5a       ?dtor$2@?0??Trim@sharp@@YA?AVVImage@vips@@V23@H@Z@4HA 000000018002af5a f   operations.obj
 0001:00029f66       ?dtor$4@?0??Trim@sharp@@YA?AVVImage@vips@@V23@H@Z@4HA 000000018002af66 f   operations.obj
 0001:00029f74       ?dtor$6@?0??Trim@sharp@@YA?AVVImage@vips@@V23@H@Z@4HA 000000018002af74 f   operations.obj
 0001:00029f82       ?dtor$7@?0??Trim@sharp@@YA?AVVImage@vips@@V23@H@Z@4HA 000000018002af82 f   operations.obj
 0001:00029f90       ?dtor$8@?0??Trim@sharp@@YA?AVVImage@vips@@V23@H@Z@4HA 000000018002af90 f   operations.obj
 0001:00029f9e       ?dtor$9@?0??Trim@sharp@@YA?AVVImage@vips@@V23@H@Z@4HA 000000018002af9e f   operations.obj
 0001:00029fac       ?dtor$10@?0??Trim@sharp@@YA?AVVImage@vips@@V23@H@Z@4HA 000000018002afac f   operations.obj
 0001:00029fba       ?dtor$11@?0??Trim@sharp@@YA?AVVImage@vips@@V23@H@Z@4HA 000000018002afba f   operations.obj
 0001:00029fc8       ?dtor$12@?0??Trim@sharp@@YA?AVVImage@vips@@V23@H@Z@4HA 000000018002afc8 f   operations.obj
 0001:00029fd6       ?dtor$13@?0??Trim@sharp@@YA?AVVImage@vips@@V23@H@Z@4HA 000000018002afd6 f   operations.obj
 0001:00029fe4       ?dtor$14@?0??Trim@sharp@@YA?AVVImage@vips@@V23@H@Z@4HA 000000018002afe4 f   operations.obj
 0001:00029ff2       ?dtor$15@?0??Trim@sharp@@YA?AVVImage@vips@@V23@H@Z@4HA 000000018002aff2 f   operations.obj
 0001:0002a000       ?dtor$16@?0??Trim@sharp@@YA?AVVImage@vips@@V23@H@Z@4HA 000000018002b000 f   operations.obj
 0001:0002a00e       ?dtor$17@?0??Trim@sharp@@YA?AVVImage@vips@@V23@H@Z@4HA 000000018002b00e f   operations.obj
 0001:0002a01c       ?dtor$18@?0??Trim@sharp@@YA?AVVImage@vips@@V23@H@Z@4HA 000000018002b01c f   operations.obj
 0001:0002a030       ?dtor$0@?0???0PipelineBaton@@QEAA@XZ@4HA 000000018002b030 f   pipeline.obj
 0001:0002a040       ?dtor$1@?0???0PipelineBaton@@QEAA@XZ@4HA 000000018002b040 f   pipeline.obj
 0001:0002a050       ?dtor$2@?0???0PipelineBaton@@QEAA@XZ@4HA 000000018002b050 f   pipeline.obj
 0001:0002a060       ?dtor$3@?0???0PipelineBaton@@QEAA@XZ@4HA 000000018002b060 f   pipeline.obj
 0001:0002a073       ?dtor$4@?0???0PipelineBaton@@QEAA@XZ@4HA 000000018002b073 f   pipeline.obj
 0001:0002a086       ?dtor$5@?0???0PipelineBaton@@QEAA@XZ@4HA 000000018002b086 f   pipeline.obj
 0001:0002a0a0       ?dtor$0@?0???0PipelineWorker@@QEAA@PEAVCallback@Nan@@PEAUPipelineBaton@@0V?$vector@V?$Local@VObject@v8@@@v8@@V?$allocator@V?$Local@VObject@v8@@@v8@@@std@@@std@@@Z@4HA 000000018002b0a0 f   pipeline.obj
 0001:0002a0ac       ?dtor$1@?0???0PipelineWorker@@QEAA@PEAVCallback@Nan@@PEAUPipelineBaton@@0V?$vector@V?$Local@VObject@v8@@@v8@@V?$allocator@V?$Local@VObject@v8@@@v8@@@std@@@std@@@Z@4HA 000000018002b0ac f   pipeline.obj
 0001:0002a0b8       ?dtor$2@?0???0PipelineWorker@@QEAA@PEAVCallback@Nan@@PEAUPipelineBaton@@0V?$vector@V?$Local@VObject@v8@@@v8@@V?$allocator@V?$Local@VObject@v8@@@v8@@@std@@@std@@@Z@4HA 000000018002b0b8 f   pipeline.obj
 0001:0002a0d0       ?dtor$0@?0??Execute@PipelineWorker@@UEAAXXZ@4HA 000000018002b0d0 f   pipeline.obj
 0001:0002a0dc       ?dtor$1@?0??Execute@PipelineWorker@@UEAAXXZ@4HA 000000018002b0dc f   pipeline.obj
 0001:0002a0e8       ?dtor$2@?0??Execute@PipelineWorker@@UEAAXXZ@4HA 000000018002b0e8 f   pipeline.obj
 0001:0002a0f4       ?dtor$3@?0??Execute@PipelineWorker@@UEAAXXZ@4HA 000000018002b0f4 f   pipeline.obj
 0001:0002a100       ?dtor$4@?0??Execute@PipelineWorker@@UEAAXXZ@4HA 000000018002b100 f   pipeline.obj
 0001:0002a10c       ?dtor$5@?0??Execute@PipelineWorker@@UEAAXXZ@4HA 000000018002b10c f   pipeline.obj
 0001:0002a11a       ?dtor$6@?0??Execute@PipelineWorker@@UEAAXXZ@4HA 000000018002b11a f   pipeline.obj
 0001:0002a126       ?dtor$8@?0??Execute@PipelineWorker@@UEAAXXZ@4HA 000000018002b126 f   pipeline.obj
 0001:0002a134       ?dtor$11@?0??Execute@PipelineWorker@@UEAAXXZ@4HA 000000018002b134 f   pipeline.obj
 0001:0002a142       ?dtor$12@?0??Execute@PipelineWorker@@UEAAXXZ@4HA 000000018002b142 f   pipeline.obj
 0001:0002a150       ?dtor$13@?0??Execute@PipelineWorker@@UEAAXXZ@4HA 000000018002b150 f   pipeline.obj
 0001:0002a15e       ?dtor$14@?0??Execute@PipelineWorker@@UEAAXXZ@4HA 000000018002b15e f   pipeline.obj
 0001:0002a16c       ?dtor$15@?0??Execute@PipelineWorker@@UEAAXXZ@4HA 000000018002b16c f   pipeline.obj
 0001:0002a17a       ?dtor$16@?0??Execute@PipelineWorker@@UEAAXXZ@4HA 000000018002b17a f   pipeline.obj
 0001:0002a188       ?dtor$18@?0??Execute@PipelineWorker@@UEAAXXZ@4HA 000000018002b188 f   pipeline.obj
 0001:0002a196       ?catch$195@?0??Execute@PipelineWorker@@UEAAXXZ@4HA 000000018002b196 f   pipeline.obj
 0001:0002a1a3       __catch$?Execute@PipelineWorker@@UEAAXXZ$0 000000018002b1a3 f   pipeline.obj
 0001:0002a1b1       ?dtor$19@?0??Execute@PipelineWorker@@UEAAXXZ@4HA 000000018002b1b1 f   pipeline.obj
 0001:0002a1bf       ?dtor$21@?0??Execute@PipelineWorker@@UEAAXXZ@4HA 000000018002b1bf f   pipeline.obj
 0001:0002a1cb       ?dtor$22@?0??Execute@PipelineWorker@@UEAAXXZ@4HA 000000018002b1cb f   pipeline.obj
 0001:0002a1d7       ?dtor$23@?0??Execute@PipelineWorker@@UEAAXXZ@4HA 000000018002b1d7 f   pipeline.obj
 0001:0002a1e5       ?dtor$24@?0??Execute@PipelineWorker@@UEAAXXZ@4HA 000000018002b1e5 f   pipeline.obj
 0001:0002a1f3       ?dtor$26@?0??Execute@PipelineWorker@@UEAAXXZ@4HA 000000018002b1f3 f   pipeline.obj
 0001:0002a201       ?dtor$27@?0??Execute@PipelineWorker@@UEAAXXZ@4HA 000000018002b201 f   pipeline.obj
 0001:0002a20f       ?dtor$29@?0??Execute@PipelineWorker@@UEAAXXZ@4HA 000000018002b20f f   pipeline.obj
 0001:0002a21d       ?dtor$31@?0??Execute@PipelineWorker@@UEAAXXZ@4HA 000000018002b21d f   pipeline.obj
 0001:0002a22b       ?dtor$33@?0??Execute@PipelineWorker@@UEAAXXZ@4HA 000000018002b22b f   pipeline.obj
 0001:0002a239       ?dtor$34@?0??Execute@PipelineWorker@@UEAAXXZ@4HA 000000018002b239 f   pipeline.obj
 0001:0002a247       ?dtor$35@?0??Execute@PipelineWorker@@UEAAXXZ@4HA 000000018002b247 f   pipeline.obj
 0001:0002a255       ?dtor$37@?0??Execute@PipelineWorker@@UEAAXXZ@4HA 000000018002b255 f   pipeline.obj
 0001:0002a263       ?dtor$39@?0??Execute@PipelineWorker@@UEAAXXZ@4HA 000000018002b263 f   pipeline.obj
 0001:0002a271       ?dtor$40@?0??Execute@PipelineWorker@@UEAAXXZ@4HA 000000018002b271 f   pipeline.obj
 0001:0002a27f       ?dtor$41@?0??Execute@PipelineWorker@@UEAAXXZ@4HA 000000018002b27f f   pipeline.obj
 0001:0002a28d       ?dtor$42@?0??Execute@PipelineWorker@@UEAAXXZ@4HA 000000018002b28d f   pipeline.obj
 0001:0002a29b       ?dtor$44@?0??Execute@PipelineWorker@@UEAAXXZ@4HA 000000018002b29b f   pipeline.obj
 0001:0002a2a9       ?dtor$45@?0??Execute@PipelineWorker@@UEAAXXZ@4HA 000000018002b2a9 f   pipeline.obj
 0001:0002a2b7       ?dtor$47@?0??Execute@PipelineWorker@@UEAAXXZ@4HA 000000018002b2b7 f   pipeline.obj
 0001:0002a2c5       ?dtor$48@?0??Execute@PipelineWorker@@UEAAXXZ@4HA 000000018002b2c5 f   pipeline.obj
 0001:0002a2d3       ?dtor$50@?0??Execute@PipelineWorker@@UEAAXXZ@4HA 000000018002b2d3 f   pipeline.obj
 0001:0002a2e1       ?dtor$52@?0??Execute@PipelineWorker@@UEAAXXZ@4HA 000000018002b2e1 f   pipeline.obj
 0001:0002a2ef       ?dtor$54@?0??Execute@PipelineWorker@@UEAAXXZ@4HA 000000018002b2ef f   pipeline.obj
 0001:0002a2fd       ?dtor$55@?0??Execute@PipelineWorker@@UEAAXXZ@4HA 000000018002b2fd f   pipeline.obj
 0001:0002a309       ?dtor$57@?0??Execute@PipelineWorker@@UEAAXXZ@4HA 000000018002b309 f   pipeline.obj
 0001:0002a317       ?dtor$58@?0??Execute@PipelineWorker@@UEAAXXZ@4HA 000000018002b317 f   pipeline.obj
 0001:0002a325       ?dtor$59@?0??Execute@PipelineWorker@@UEAAXXZ@4HA 000000018002b325 f   pipeline.obj
 0001:0002a331       ?dtor$61@?0??Execute@PipelineWorker@@UEAAXXZ@4HA 000000018002b331 f   pipeline.obj
 0001:0002a33d       ?dtor$64@?0??Execute@PipelineWorker@@UEAAXXZ@4HA 000000018002b33d f   pipeline.obj
 0001:0002a34b       ?dtor$66@?0??Execute@PipelineWorker@@UEAAXXZ@4HA 000000018002b34b f   pipeline.obj
 0001:0002a359       ?dtor$67@?0??Execute@PipelineWorker@@UEAAXXZ@4HA 000000018002b359 f   pipeline.obj
 0001:0002a365       ?dtor$68@?0??Execute@PipelineWorker@@UEAAXXZ@4HA 000000018002b365 f   pipeline.obj
 0001:0002a373       ?dtor$69@?0??Execute@PipelineWorker@@UEAAXXZ@4HA 000000018002b373 f   pipeline.obj
 0001:0002a37f       ?dtor$71@?0??Execute@PipelineWorker@@UEAAXXZ@4HA 000000018002b37f f   pipeline.obj
 0001:0002a38b       ?dtor$73@?0??Execute@PipelineWorker@@UEAAXXZ@4HA 000000018002b38b f   pipeline.obj
 0001:0002a399       ?dtor$74@?0??Execute@PipelineWorker@@UEAAXXZ@4HA 000000018002b399 f   pipeline.obj
 0001:0002a3a7       ?dtor$75@?0??Execute@PipelineWorker@@UEAAXXZ@4HA 000000018002b3a7 f   pipeline.obj
 0001:0002a3b3       ?dtor$77@?0??Execute@PipelineWorker@@UEAAXXZ@4HA 000000018002b3b3 f   pipeline.obj
 0001:0002a3bf       ?dtor$80@?0??Execute@PipelineWorker@@UEAAXXZ@4HA 000000018002b3bf f   pipeline.obj
 0001:0002a3cd       ?dtor$82@?0??Execute@PipelineWorker@@UEAAXXZ@4HA 000000018002b3cd f   pipeline.obj
 0001:0002a3db       ?dtor$83@?0??Execute@PipelineWorker@@UEAAXXZ@4HA 000000018002b3db f   pipeline.obj
 0001:0002a3e7       ?dtor$84@?0??Execute@PipelineWorker@@UEAAXXZ@4HA 000000018002b3e7 f   pipeline.obj
 0001:0002a3f5       ?dtor$86@?0??Execute@PipelineWorker@@UEAAXXZ@4HA 000000018002b3f5 f   pipeline.obj
 0001:0002a403       ?dtor$88@?0??Execute@PipelineWorker@@UEAAXXZ@4HA 000000018002b403 f   pipeline.obj
 0001:0002a411       ?dtor$90@?0??Execute@PipelineWorker@@UEAAXXZ@4HA 000000018002b411 f   pipeline.obj
 0001:0002a41f       ?dtor$92@?0??Execute@PipelineWorker@@UEAAXXZ@4HA 000000018002b41f f   pipeline.obj
 0001:0002a42d       ?dtor$93@?0??Execute@PipelineWorker@@UEAAXXZ@4HA 000000018002b42d f   pipeline.obj
 0001:0002a43b       ?dtor$94@?0??Execute@PipelineWorker@@UEAAXXZ@4HA 000000018002b43b f   pipeline.obj
 0001:0002a447       ?dtor$95@?0??Execute@PipelineWorker@@UEAAXXZ@4HA 000000018002b447 f   pipeline.obj
 0001:0002a455       ?dtor$96@?0??Execute@PipelineWorker@@UEAAXXZ@4HA 000000018002b455 f   pipeline.obj
 0001:0002a463       ?dtor$97@?0??Execute@PipelineWorker@@UEAAXXZ@4HA 000000018002b463 f   pipeline.obj
 0001:0002a471       ?dtor$99@?0??Execute@PipelineWorker@@UEAAXXZ@4HA 000000018002b471 f   pipeline.obj
 0001:0002a47f       ?dtor$101@?0??Execute@PipelineWorker@@UEAAXXZ@4HA 000000018002b47f f   pipeline.obj
 0001:0002a48d       ?dtor$103@?0??Execute@PipelineWorker@@UEAAXXZ@4HA 000000018002b48d f   pipeline.obj
 0001:0002a49b       ?dtor$105@?0??Execute@PipelineWorker@@UEAAXXZ@4HA 000000018002b49b f   pipeline.obj
 0001:0002a4a9       ?dtor$107@?0??Execute@PipelineWorker@@UEAAXXZ@4HA 000000018002b4a9 f   pipeline.obj
 0001:0002a4b7       ?dtor$108@?0??Execute@PipelineWorker@@UEAAXXZ@4HA 000000018002b4b7 f   pipeline.obj
 0001:0002a4c5       ?dtor$109@?0??Execute@PipelineWorker@@UEAAXXZ@4HA 000000018002b4c5 f   pipeline.obj
 0001:0002a4d3       ?dtor$110@?0??Execute@PipelineWorker@@UEAAXXZ@4HA 000000018002b4d3 f   pipeline.obj
 0001:0002a4e1       ?dtor$112@?0??Execute@PipelineWorker@@UEAAXXZ@4HA 000000018002b4e1 f   pipeline.obj
 0001:0002a4ef       ?dtor$113@?0??Execute@PipelineWorker@@UEAAXXZ@4HA 000000018002b4ef f   pipeline.obj
 0001:0002a4fd       ?dtor$115@?0??Execute@PipelineWorker@@UEAAXXZ@4HA 000000018002b4fd f   pipeline.obj
 0001:0002a50b       ?dtor$116@?0??Execute@PipelineWorker@@UEAAXXZ@4HA 000000018002b50b f   pipeline.obj
 0001:0002a519       ?dtor$117@?0??Execute@PipelineWorker@@UEAAXXZ@4HA 000000018002b519 f   pipeline.obj
 0001:0002a527       ?dtor$118@?0??Execute@PipelineWorker@@UEAAXXZ@4HA 000000018002b527 f   pipeline.obj
 0001:0002a535       ?dtor$120@?0??Execute@PipelineWorker@@UEAAXXZ@4HA 000000018002b535 f   pipeline.obj
 0001:0002a543       ?dtor$122@?0??Execute@PipelineWorker@@UEAAXXZ@4HA 000000018002b543 f   pipeline.obj
 0001:0002a551       ?dtor$123@?0??Execute@PipelineWorker@@UEAAXXZ@4HA 000000018002b551 f   pipeline.obj
 0001:0002a55f       ?dtor$124@?0??Execute@PipelineWorker@@UEAAXXZ@4HA 000000018002b55f f   pipeline.obj
 0001:0002a56b       ?dtor$125@?0??Execute@PipelineWorker@@UEAAXXZ@4HA 000000018002b56b f   pipeline.obj
 0001:0002a579       ?dtor$127@?0??Execute@PipelineWorker@@UEAAXXZ@4HA 000000018002b579 f   pipeline.obj
 0001:0002a587       ?dtor$129@?0??Execute@PipelineWorker@@UEAAXXZ@4HA 000000018002b587 f   pipeline.obj
 0001:0002a595       ?dtor$130@?0??Execute@PipelineWorker@@UEAAXXZ@4HA 000000018002b595 f   pipeline.obj
 0001:0002a5a3       ?dtor$131@?0??Execute@PipelineWorker@@UEAAXXZ@4HA 000000018002b5a3 f   pipeline.obj
 0001:0002a5b1       ?dtor$132@?0??Execute@PipelineWorker@@UEAAXXZ@4HA 000000018002b5b1 f   pipeline.obj
 0001:0002a5bf       ?dtor$134@?0??Execute@PipelineWorker@@UEAAXXZ@4HA 000000018002b5bf f   pipeline.obj
 0001:0002a5ee       ?dtor$135@?0??Execute@PipelineWorker@@UEAAXXZ@4HA 000000018002b5ee f   pipeline.obj
 0001:0002a5fc       ?dtor$192@?0??Execute@PipelineWorker@@UEAAXXZ@4HA 000000018002b5fc f   pipeline.obj
 0001:0002a60a       ?dtor$137@?0??Execute@PipelineWorker@@UEAAXXZ@4HA 000000018002b60a f   pipeline.obj
 0001:0002a618       ?dtor$138@?0??Execute@PipelineWorker@@UEAAXXZ@4HA 000000018002b618 f   pipeline.obj
 0001:0002a626       ?dtor$139@?0??Execute@PipelineWorker@@UEAAXXZ@4HA 000000018002b626 f   pipeline.obj
 0001:0002a632       ?dtor$140@?0??Execute@PipelineWorker@@UEAAXXZ@4HA 000000018002b632 f   pipeline.obj
 0001:0002a63e       ?dtor$141@?0??Execute@PipelineWorker@@UEAAXXZ@4HA 000000018002b63e f   pipeline.obj
 0001:0002a64a       ?dtor$142@?0??Execute@PipelineWorker@@UEAAXXZ@4HA 000000018002b64a f   pipeline.obj
 0001:0002a656       ?dtor$143@?0??Execute@PipelineWorker@@UEAAXXZ@4HA 000000018002b656 f   pipeline.obj
 0001:0002a662       ?dtor$145@?0??Execute@PipelineWorker@@UEAAXXZ@4HA 000000018002b662 f   pipeline.obj
 0001:0002a68f       ?dtor$146@?0??Execute@PipelineWorker@@UEAAXXZ@4HA 000000018002b68f f   pipeline.obj
 0001:0002a69b       ?dtor$147@?0??Execute@PipelineWorker@@UEAAXXZ@4HA 000000018002b69b f   pipeline.obj
 0001:0002a6a7       ?dtor$149@?0??Execute@PipelineWorker@@UEAAXXZ@4HA 000000018002b6a7 f   pipeline.obj
 0001:0002a6b3       ?dtor$150@?0??Execute@PipelineWorker@@UEAAXXZ@4HA 000000018002b6b3 f   pipeline.obj
 0001:0002a6bf       ?dtor$151@?0??Execute@PipelineWorker@@UEAAXXZ@4HA 000000018002b6bf f   pipeline.obj
 0001:0002a6cb       ?dtor$152@?0??Execute@PipelineWorker@@UEAAXXZ@4HA 000000018002b6cb f   pipeline.obj
 0001:0002a6d7       ?dtor$153@?0??Execute@PipelineWorker@@UEAAXXZ@4HA 000000018002b6d7 f   pipeline.obj
 0001:0002a6e3       ?dtor$154@?0??Execute@PipelineWorker@@UEAAXXZ@4HA 000000018002b6e3 f   pipeline.obj
 0001:0002a6ef       ?dtor$156@?0??Execute@PipelineWorker@@UEAAXXZ@4HA 000000018002b6ef f   pipeline.obj
 0001:0002a71c       ?dtor$157@?0??Execute@PipelineWorker@@UEAAXXZ@4HA 000000018002b71c f   pipeline.obj
 0001:0002a728       ?dtor$158@?0??Execute@PipelineWorker@@UEAAXXZ@4HA 000000018002b728 f   pipeline.obj
 0001:0002a734       ?dtor$160@?0??Execute@PipelineWorker@@UEAAXXZ@4HA 000000018002b734 f   pipeline.obj
 0001:0002a740       ?dtor$161@?0??Execute@PipelineWorker@@UEAAXXZ@4HA 000000018002b740 f   pipeline.obj
 0001:0002a74c       ?dtor$162@?0??Execute@PipelineWorker@@UEAAXXZ@4HA 000000018002b74c f   pipeline.obj
 0001:0002a758       ?dtor$163@?0??Execute@PipelineWorker@@UEAAXXZ@4HA 000000018002b758 f   pipeline.obj
 0001:0002a764       ?dtor$164@?0??Execute@PipelineWorker@@UEAAXXZ@4HA 000000018002b764 f   pipeline.obj
 0001:0002a770       ?dtor$165@?0??Execute@PipelineWorker@@UEAAXXZ@4HA 000000018002b770 f   pipeline.obj
 0001:0002a77c       ?dtor$166@?0??Execute@PipelineWorker@@UEAAXXZ@4HA 000000018002b77c f   pipeline.obj
 0001:0002a788       ?dtor$167@?0??Execute@PipelineWorker@@UEAAXXZ@4HA 000000018002b788 f   pipeline.obj
 0001:0002a794       ?dtor$168@?0??Execute@PipelineWorker@@UEAAXXZ@4HA 000000018002b794 f   pipeline.obj
 0001:0002a7a0       ?dtor$170@?0??Execute@PipelineWorker@@UEAAXXZ@4HA 000000018002b7a0 f   pipeline.obj
 0001:0002a7cd       ?dtor$171@?0??Execute@PipelineWorker@@UEAAXXZ@4HA 000000018002b7cd f   pipeline.obj
 0001:0002a7d9       ?dtor$172@?0??Execute@PipelineWorker@@UEAAXXZ@4HA 000000018002b7d9 f   pipeline.obj
 0001:0002a7e5       ?dtor$174@?0??Execute@PipelineWorker@@UEAAXXZ@4HA 000000018002b7e5 f   pipeline.obj
 0001:0002a7f1       ?dtor$175@?0??Execute@PipelineWorker@@UEAAXXZ@4HA 000000018002b7f1 f   pipeline.obj
 0001:0002a7fd       ?catch$196@?0??Execute@PipelineWorker@@UEAAXXZ@4HA 000000018002b7fd f   pipeline.obj
 0001:0002a80a       __catch$?Execute@PipelineWorker@@UEAAXXZ$2 000000018002b80a f   pipeline.obj
 0001:0002a850       ?dtor$0@?0??CalculateRotationAndFlip@PipelineWorker@@AEAA?AV?$tuple@W4VipsAngle@@_N_N@std@@HVVImage@vips@@@Z@4HA 000000018002b850 f   pipeline.obj
 0001:0002a85e       ?dtor$2@?0??CalculateRotationAndFlip@PipelineWorker@@AEAA?AV?$tuple@W4VipsAngle@@_N_N@std@@HVVImage@vips@@@Z@4HA 000000018002b85e f   pipeline.obj
 0001:0002a870       ?dtor$0@?0??AssembleSuffixString@PipelineWorker@@AEAA?AV?$basic_string@DU?$char_traits@D@std@@V?$allocator@D@2@@std@@V23@V?$vector@U?$pair@V?$basic_string@DU?$char_traits@D@std@@V?$allocator@D@2@@std@@V12@@std@@V?$allocator@U?$pair@V?$basic_string@DU?$char_traits@D@std@@V?$allocator@D@2@@std@@V12@@std@@@2@@3@@Z@4HA 000000018002b870 f   pipeline.obj
 0001:0002a87c       ?dtor$1@?0??AssembleSuffixString@PipelineWorker@@AEAA?AV?$basic_string@DU?$char_traits@D@std@@V?$allocator@D@2@@std@@V23@V?$vector@U?$pair@V?$basic_string@DU?$char_traits@D@std@@V?$allocator@D@2@@std@@V12@@std@@V?$allocator@U?$pair@V?$basic_string@DU?$char_traits@D@std@@V?$allocator@D@2@@std@@V12@@std@@@2@@3@@Z@4HA 000000018002b87c f   pipeline.obj
 0001:0002a888       ?dtor$2@?0??AssembleSuffixString@PipelineWorker@@AEAA?AV?$basic_string@DU?$char_traits@D@std@@V?$allocator@D@2@@std@@V23@V?$vector@U?$pair@V?$basic_string@DU?$char_traits@D@std@@V?$allocator@D@2@@std@@V12@@std@@V?$allocator@U?$pair@V?$basic_string@DU?$char_traits@D@std@@V?$allocator@D@2@@std@@V12@@std@@@2@@3@@Z@4HA 000000018002b888 f   pipeline.obj
 0001:0002a894       ?dtor$3@?0??AssembleSuffixString@PipelineWorker@@AEAA?AV?$basic_string@DU?$char_traits@D@std@@V?$allocator@D@2@@std@@V23@V?$vector@U?$pair@V?$basic_string@DU?$char_traits@D@std@@V?$allocator@D@2@@std@@V12@@std@@V?$allocator@U?$pair@V?$basic_string@DU?$char_traits@D@std@@V?$allocator@D@2@@std@@V12@@std@@@2@@3@@Z@4HA 000000018002b894 f   pipeline.obj
 0001:0002a8a0       ?dtor$4@?0??AssembleSuffixString@PipelineWorker@@AEAA?AV?$basic_string@DU?$char_traits@D@std@@V?$allocator@D@2@@std@@V23@V?$vector@U?$pair@V?$basic_string@DU?$char_traits@D@std@@V?$allocator@D@2@@std@@V12@@std@@V?$allocator@U?$pair@V?$basic_string@DU?$char_traits@D@std@@V?$allocator@D@2@@std@@V12@@std@@@2@@3@@Z@4HA 000000018002b8a0 f   pipeline.obj
 0001:0002a8ac       ?dtor$5@?0??AssembleSuffixString@PipelineWorker@@AEAA?AV?$basic_string@DU?$char_traits@D@std@@V?$allocator@D@2@@std@@V23@V?$vector@U?$pair@V?$basic_string@DU?$char_traits@D@std@@V?$allocator@D@2@@std@@V12@@std@@V?$allocator@U?$pair@V?$basic_string@DU?$char_traits@D@std@@V?$allocator@D@2@@std@@V12@@std@@@2@@3@@Z@4HA 000000018002b8ac f   pipeline.obj
 0001:0002a8b8       ?dtor$6@?0??AssembleSuffixString@PipelineWorker@@AEAA?AV?$basic_string@DU?$char_traits@D@std@@V?$allocator@D@2@@std@@V23@V?$vector@U?$pair@V?$basic_string@DU?$char_traits@D@std@@V?$allocator@D@2@@std@@V12@@std@@V?$allocator@U?$pair@V?$basic_string@DU?$char_traits@D@std@@V?$allocator@D@2@@std@@V12@@std@@@2@@3@@Z@4HA 000000018002b8b8 f   pipeline.obj
 0001:0002a8d0       ?dtor$0@?0??pipeline@@YAXAEBV?$FunctionCallbackInfo@VValue@v8@@@Nan@@@Z@4HA 000000018002b8d0 f   pipeline.obj
 0001:0002a8dc       ?dtor$1@?0??pipeline@@YAXAEBV?$FunctionCallbackInfo@VValue@v8@@@Nan@@@Z@4HA 000000018002b8dc f   pipeline.obj
 0001:0002a8f9       ?dtor$2@?0??pipeline@@YAXAEBV?$FunctionCallbackInfo@VValue@v8@@@Nan@@@Z@4HA 000000018002b8f9 f   pipeline.obj
 0001:0002a905       ?dtor$5@?0??pipeline@@YAXAEBV?$FunctionCallbackInfo@VValue@v8@@@Nan@@@Z@4HA 000000018002b905 f   pipeline.obj
 0001:0002a911       ?dtor$19@?0??pipeline@@YAXAEBV?$FunctionCallbackInfo@VValue@v8@@@Nan@@@Z@4HA 000000018002b911 f   pipeline.obj
 0001:0002a91d       ?dtor$22@?0??pipeline@@YAXAEBV?$FunctionCallbackInfo@VValue@v8@@@Nan@@@Z@4HA 000000018002b91d f   pipeline.obj
 0001:0002a929       ?dtor$32@?0??pipeline@@YAXAEBV?$FunctionCallbackInfo@VValue@v8@@@Nan@@@Z@4HA 000000018002b929 f   pipeline.obj
 0001:0002a935       ?dtor$34@?0??pipeline@@YAXAEBV?$FunctionCallbackInfo@VValue@v8@@@Nan@@@Z@4HA 000000018002b935 f   pipeline.obj
 0001:0002a941       ?dtor$38@?0??pipeline@@YAXAEBV?$FunctionCallbackInfo@VValue@v8@@@Nan@@@Z@4HA 000000018002b941 f   pipeline.obj
 0001:0002a94d       ?dtor$61@?0??pipeline@@YAXAEBV?$FunctionCallbackInfo@VValue@v8@@@Nan@@@Z@4HA 000000018002b94d f   pipeline.obj
 0001:0002a959       ?dtor$79@?0??pipeline@@YAXAEBV?$FunctionCallbackInfo@VValue@v8@@@Nan@@@Z@4HA 000000018002b959 f   pipeline.obj
 0001:0002a965       ?dtor$81@?0??pipeline@@YAXAEBV?$FunctionCallbackInfo@VValue@v8@@@Nan@@@Z@4HA 000000018002b965 f   pipeline.obj
 0001:0002a971       ?dtor$87@?0??pipeline@@YAXAEBV?$FunctionCallbackInfo@VValue@v8@@@Nan@@@Z@4HA 000000018002b971 f   pipeline.obj
 0001:0002a97d       ?dtor$102@?0??pipeline@@YAXAEBV?$FunctionCallbackInfo@VValue@v8@@@Nan@@@Z@4HA 000000018002b97d f   pipeline.obj
 0001:0002a989       ?dtor$104@?0??pipeline@@YAXAEBV?$FunctionCallbackInfo@VValue@v8@@@Nan@@@Z@4HA 000000018002b989 f   pipeline.obj
 0001:0002a995       ?dtor$106@?0??pipeline@@YAXAEBV?$FunctionCallbackInfo@VValue@v8@@@Nan@@@Z@4HA 000000018002b995 f   pipeline.obj
 0001:0002a9a1       ?dtor$107@?0??pipeline@@YAXAEBV?$FunctionCallbackInfo@VValue@v8@@@Nan@@@Z@4HA 000000018002b9a1 f   pipeline.obj
 0001:0002a9be       ?dtor$109@?0??pipeline@@YAXAEBV?$FunctionCallbackInfo@VValue@v8@@@Nan@@@Z@4HA 000000018002b9be f   pipeline.obj
 0001:0002a9de       ?dtor$110@?0??pipeline@@YAXAEBV?$FunctionCallbackInfo@VValue@v8@@@Nan@@@Z@4HA 000000018002b9de f   pipeline.obj
 0001:0002aa00       ?dtor$0@?0???$AttrTo@N@sharp@@YANV?$Local@VObject@v8@@@v8@@V?$basic_string@DU?$char_traits@D@std@@V?$allocator@D@2@@std@@@Z@4HA 000000018002ba00 f   pipeline.obj
 0001:0002aa10       ?dtor$1@?0??_Do_call@?$_Func_impl@UEntropyStrategy@sharp@@V?$allocator@H@std@@NVVImage@vips@@@std@@EEAAN$$QEAVVImage@vips@@@Z@4HA 000000018002ba10 f   pipeline.obj
 0001:0002aa1e       ?dtor$2@?0??_Do_call@?$_Func_impl@UEntropyStrategy@sharp@@V?$allocator@H@std@@NVVImage@vips@@@std@@EEAAN$$QEAVVImage@vips@@@Z@4HA 000000018002ba1e f   pipeline.obj
 0001:0002aa30       ?dtor$0@?0???$_Uninitialized_copy_al_unchecked1@PEBU?$pair@V?$basic_string@DU?$char_traits@D@std@@V?$allocator@D@2@@std@@V12@@std@@PEAU12@V?$allocator@U?$pair@V?$basic_string@DU?$char_traits@D@std@@V?$allocator@D@2@@std@@V12@@std@@@2@@std@@YAPEAU?$pair@V?$basic_string@DU?$char_traits@D@std@@V?$allocator@D@2@@std@@V12@@0@PEBU10@0PEAU10@AEAU?$_Wrap_alloc@V?$allocator@U?$pair@V?$basic_string@DU?$char_traits@D@std@@V?$allocator@D@2@@std@@V12@@std@@@std@@@0@U_General_ptr_iterator_tag@0@U_Any_tag@0@@Z@4HA 000000018002ba30 f   pipeline.obj
 0001:0002aa4c       ?dtor$1@?0???$_Uninitialized_copy_al_unchecked1@PEBU?$pair@V?$basic_string@DU?$char_traits@D@std@@V?$allocator@D@2@@std@@V12@@std@@PEAU12@V?$allocator@U?$pair@V?$basic_string@DU?$char_traits@D@std@@V?$allocator@D@2@@std@@V12@@std@@@2@@std@@YAPEAU?$pair@V?$basic_string@DU?$char_traits@D@std@@V?$allocator@D@2@@std@@V12@@0@PEBU10@0PEAU10@AEAU?$_Wrap_alloc@V?$allocator@U?$pair@V?$basic_string@DU?$char_traits@D@std@@V?$allocator@D@2@@std@@V12@@std@@@std@@@0@U_General_ptr_iterator_tag@0@U_Any_tag@0@@Z@4HA 000000018002ba4c f   pipeline.obj
 0001:0002aa60       ?dtor$1@?0??format@@YAXAEBV?$FunctionCallbackInfo@VValue@v8@@@Nan@@@Z@4HA 000000018002ba60 f   utilities.obj
 0001:0002aa6c       ?dtor$2@?0??format@@YAXAEBV?$FunctionCallbackInfo@VValue@v8@@@Nan@@@Z@4HA 000000018002ba6c f   utilities.obj
 0001:0002aa78       ?dtor$3@?0??format@@YAXAEBV?$FunctionCallbackInfo@VValue@v8@@@Nan@@@Z@4HA 000000018002ba78 f   utilities.obj
 0001:0002aa84       ?dtor$4@?0??format@@YAXAEBV?$FunctionCallbackInfo@VValue@v8@@@Nan@@@Z@4HA 000000018002ba84 f   utilities.obj
 0001:0002aa90       ?dtor$5@?0??format@@YAXAEBV?$FunctionCallbackInfo@VValue@v8@@@Nan@@@Z@4HA 000000018002ba90 f   utilities.obj
 0001:0002aaa0       ?dtor$1@?0??_maxColourDistance@@YAXAEBV?$FunctionCallbackInfo@VValue@v8@@@Nan@@@Z@4HA 000000018002baa0 f   utilities.obj
 0001:0002aaae       ?dtor$2@?0??_maxColourDistance@@YAXAEBV?$FunctionCallbackInfo@VValue@v8@@@Nan@@@Z@4HA 000000018002baae f   utilities.obj
 0001:0002aaba       ?dtor$3@?0??_maxColourDistance@@YAXAEBV?$FunctionCallbackInfo@VValue@v8@@@Nan@@@Z@4HA 000000018002baba f   utilities.obj
 0001:0002aac6       ?dtor$4@?0??_maxColourDistance@@YAXAEBV?$FunctionCallbackInfo@VValue@v8@@@Nan@@@Z@4HA 000000018002bac6 f   utilities.obj
 0001:0002aad4       ?catch$26@?0??_maxColourDistance@@YAXAEBV?$FunctionCallbackInfo@VValue@v8@@@Nan@@@Z@4HA 000000018002bad4 f   utilities.obj
 0001:0002aae1       __catch$?_maxColourDistance@@YAXAEBV?$FunctionCallbackInfo@VValue@v8@@@Nan@@@Z$0 000000018002bae1 f   utilities.obj
 0001:0002aafc       ?dtor$5@?0??_maxColourDistance@@YAXAEBV?$FunctionCallbackInfo@VValue@v8@@@Nan@@@Z@4HA 000000018002bafc f   utilities.obj
 0001:0002ab0a       ?dtor$6@?0??_maxColourDistance@@YAXAEBV?$FunctionCallbackInfo@VValue@v8@@@Nan@@@Z@4HA 000000018002bb0a f   utilities.obj
 0001:0002ab16       ?dtor$7@?0??_maxColourDistance@@YAXAEBV?$FunctionCallbackInfo@VValue@v8@@@Nan@@@Z@4HA 000000018002bb16 f   utilities.obj
 0001:0002ab22       ?dtor$8@?0??_maxColourDistance@@YAXAEBV?$FunctionCallbackInfo@VValue@v8@@@Nan@@@Z@4HA 000000018002bb22 f   utilities.obj
 0001:0002ab30       ?catch$25@?0??_maxColourDistance@@YAXAEBV?$FunctionCallbackInfo@VValue@v8@@@Nan@@@Z@4HA 000000018002bb30 f   utilities.obj
 0001:0002ab3d       __catch$?_maxColourDistance@@YAXAEBV?$FunctionCallbackInfo@VValue@v8@@@Nan@@@Z$2 000000018002bb3d f   utilities.obj
 0001:0002ab58       ?dtor$10@?0??_maxColourDistance@@YAXAEBV?$FunctionCallbackInfo@VValue@v8@@@Nan@@@Z@4HA 000000018002bb58 f   utilities.obj
 0001:0002ab66       ?dtor$11@?0??_maxColourDistance@@YAXAEBV?$FunctionCallbackInfo@VValue@v8@@@Nan@@@Z@4HA 000000018002bb66 f   utilities.obj
 0001:0002ab74       ?dtor$13@?0??_maxColourDistance@@YAXAEBV?$FunctionCallbackInfo@VValue@v8@@@Nan@@@Z@4HA 000000018002bb74 f   utilities.obj
 0001:0002ab82       ?dtor$14@?0??_maxColourDistance@@YAXAEBV?$FunctionCallbackInfo@VValue@v8@@@Nan@@@Z@4HA 000000018002bb82 f   utilities.obj
 0001:0002ab90       ?dtor$16@?0??_maxColourDistance@@YAXAEBV?$FunctionCallbackInfo@VValue@v8@@@Nan@@@Z@4HA 000000018002bb90 f   utilities.obj
 0001:0002ab9e       ?catch$24@?0??_maxColourDistance@@YAXAEBV?$FunctionCallbackInfo@VValue@v8@@@Nan@@@Z@4HA 000000018002bb9e f   utilities.obj
 0001:0002abab       __catch$?_maxColourDistance@@YAXAEBV?$FunctionCallbackInfo@VValue@v8@@@Nan@@@Z$4 000000018002bbab f   utilities.obj
 0001:0002abd7       ?dtor$17@?0??_maxColourDistance@@YAXAEBV?$FunctionCallbackInfo@VValue@v8@@@Nan@@@Z@4HA 000000018002bbd7 f   utilities.obj
 0001:0002abe5       ?fin$0@?0???_M@YAXPEAX_K1P6AX0@Z@Z@4HA 000000018002bbe5 f   LIBCMT:ehvecdtr.obj
 0001:0002ac11       ?filt$0@?0??__ArrayUnwind@@YAXPEAX_K1P6AX0@Z@Z@4HA 000000018002bc11 f   LIBCMT:ehvecdtr.obj
 0001:0002ac52       ?fin$0@?0??dllmain_crt_process_attach@@YAHQEAUHINSTANCE__@@QEAX@Z@4HA 000000018002bc52 f   LIBCMT:dll_dllmain.obj
 0001:0002ac69       ?fin$0@?0??dllmain_crt_process_detach@@YAH_N@Z@4HA 000000018002bc69 f   LIBCMT:dll_dllmain.obj
 0001:0002ac85       ?filt$0@?0??dllmain_dispatch@@YAHQEAUHINSTANCE__@@KQEAX@Z@4HA 000000018002bc85 f   LIBCMT:dll_dllmain.obj
 0001:0002acbb       __scrt_is_nonwritable_in_current_image$filt$0 000000018002bcbb f   LIBCMT:utility.obj
 0001:0002acd3       __CxxCallCatchBlock$filt$0 000000018002bcd3 f   libvcruntime:frame.obj
 0001:0002acf8       __CxxCallCatchBlock$fin$1  000000018002bcf8 f   libvcruntime:frame.obj
 0001:0002ad70       __DestructExceptionObject$filt$0 000000018002bd70 f   libvcruntime:frame.obj
 0001:0002ad88       __FrameUnwindToState$filt$0 000000018002bd88 f   libvcruntime:frame.obj
 0001:0002ad9e       __FrameUnwindToState$fin$1 000000018002bd9e f   libvcruntime:frame.obj
 0001:0002adc1       _CallSETranslator$filt$0   000000018002bdc1 f   libvcruntime:trnsctrl.obj
 0001:0002ae0d       _query_new_handler$fin$0   000000018002be0d f   libucrt:new_handler.obj
 0001:0002ae23       ?filt$0@?0??common_exit@@YAXHW4_crt_exit_cleanup_mode@@W4_crt_exit_return_mode@@@Z@4HA 000000018002be23 f   libucrt:exit.obj
 0001:0002ae3e       ?fin$1@?0??common_exit@@YAXHW4_crt_exit_cleanup_mode@@W4_crt_exit_return_mode@@@Z@4HA 000000018002be3e f   libucrt:exit.obj
 0001:0002ae57       ?fin$0@?0???$?RV<lambda_e24bbb7b643b32fcea6fa61b31d4c984>@@AEAV<lambda_275893d493268fdec8709772e3fcec0e>@@V<lambda_9d71df4d7cf3f480f8d633942495c3b0>@@@?$__crt_seh_guarded_call@H@@QEAAH$$QEAV<lambda_e24bbb7b643b32fcea6fa61b31d4c984>@@AEAV<lambda_275893d493268fdec8709772e3fcec0e>@@$$QEAV<lambda_9d71df4d7cf3f480f8d633942495c3b0>@@@Z@4HA 000000018002be57 f   libucrt:onexit.obj
 0001:0002ae74       common_flush_all$fin$0     000000018002be74 f   libucrt:fflush.obj
 0001:0002ae8e       common_flush_all$fin$1     000000018002be8e f   libucrt:fflush.obj
 0001:0002aea7       ?fin$0@?0???$?RV<lambda_7a5ef57ff966f610505f1d28a3d40618>@@AEAV<lambda_b721fa326cdb32351d23dfa67958c160>@@V<lambda_5e0fb27672408a07956fe59e48ccb2aa>@@@?$__crt_seh_guarded_call@H@@QEAAH$$QEAV<lambda_7a5ef57ff966f610505f1d28a3d40618>@@AEAV<lambda_b721fa326cdb32351d23dfa67958c160>@@$$QEAV<lambda_5e0fb27672408a07956fe59e48ccb2aa>@@@Z@4HA 000000018002bea7 f   libucrt:setvbuf.obj
 0001:0002aea7       ?fin$0@?0???$?RV<lambda_7b91131dde12e1c3dfc74ff76b3f2eac>@@AEAV<lambda_dd75445284c072d0bd3768540cc698fa>@@V<lambda_16bc4ecb55b4718497c16bceaea2ceaf>@@@?$__crt_seh_guarded_call@H@@QEAAH$$QEAV<lambda_7b91131dde12e1c3dfc74ff76b3f2eac>@@AEAV<lambda_dd75445284c072d0bd3768540cc698fa>@@$$QEAV<lambda_16bc4ecb55b4718497c16bceaea2ceaf>@@@Z@4HA 000000018002bea7 f   libucrt:output.obj
 0001:0002aec2       raise$fin$0                000000018002bec2 f   libucrt:signal.obj
 0001:0002aee6       ?fin$0@?0???$?RV<lambda_fb3a7dec4e47f37f22dae91bb15c9095>@@AEAV<lambda_698284760c8add0bfb0756c19673e34b>@@V<lambda_dfb8eca1e75fef3034a8fb18dd509707>@@@?$__crt_seh_guarded_call@X@@QEAAX$$QEAV<lambda_fb3a7dec4e47f37f22dae91bb15c9095>@@AEAV<lambda_698284760c8add0bfb0756c19673e34b>@@$$QEAV<lambda_dfb8eca1e75fef3034a8fb18dd509707>@@@Z@4HA 000000018002bee6 f   libucrt:per_thread_data.obj
 0001:0002aee6       ?fin$0@?0???$?RV<lambda_b8c45f8f788dd370798f47cfe8ac3a86>@@AEAV<lambda_4e60a939b0d047cfe11ddc22648dfba9>@@V<lambda_332c3edc96d0294ec56c57d38c1cdfd5>@@@?$__crt_seh_guarded_call@H@@QEAAH$$QEAV<lambda_b8c45f8f788dd370798f47cfe8ac3a86>@@AEAV<lambda_4e60a939b0d047cfe11ddc22648dfba9>@@$$QEAV<lambda_332c3edc96d0294ec56c57d38c1cdfd5>@@@Z@4HA 000000018002bee6 f   libucrt:onexit.obj
 0001:0002aee6       ?fin$0@?0???$?RV<lambda_72d1df2b273a38828b1ce30cbf4cdab5>@@AEAV<lambda_876a65b173b8412d3a47c70a915b0cf4>@@V<lambda_41932305e351933ebe8f8be3ed8bb5dc>@@@?$__crt_seh_guarded_call@X@@QEAAX$$QEAV<lambda_72d1df2b273a38828b1ce30cbf4cdab5>@@AEAV<lambda_876a65b173b8412d3a47c70a915b0cf4>@@$$QEAV<lambda_41932305e351933ebe8f8be3ed8bb5dc>@@@Z@4HA 000000018002bee6 f   libucrt:per_thread_data.obj
 0001:0002aee6       ?fin$0@?0???$?RV<lambda_46352004c1216016012b18bd6f87e700>@@AEAV<lambda_3bd07e1a1191394380780325891bf33f>@@V<lambda_334532d3f185bcaa59b5be82d7d22bff>@@@?$__crt_seh_guarded_call@X@@QEAAX$$QEAV<lambda_46352004c1216016012b18bd6f87e700>@@AEAV<lambda_3bd07e1a1191394380780325891bf33f>@@$$QEAV<lambda_334532d3f185bcaa59b5be82d7d22bff>@@@Z@4HA 000000018002bee6 f   libucrt:per_thread_data.obj
 0001:0002aee6       ?fin$0@?0???$?RV<lambda_c36588078e9f5dfd39652860aa6b3aaf>@@AEAV<lambda_ec61778202f4f5fc7e7711acc23c3bca>@@V<lambda_dc9d2797ccde5d239b4a0efae8ebd7db>@@@?$__crt_seh_guarded_call@P6AXH@Z@@QEAAP6AXH@Z$$QEAV<lambda_c36588078e9f5dfd39652860aa6b3aaf>@@AEAV<lambda_ec61778202f4f5fc7e7711acc23c3bca>@@$$QEAV<lambda_dc9d2797ccde5d239b4a0efae8ebd7db>@@@Z@4HA 000000018002bee6 f   libucrt:signal.obj
 0001:0002aee6       ?fin$0@?0???$?RV<lambda_5e887d1dcbef67a5eb4283622ba103bf>@@AEAV<lambda_4466841279450cc726390878d4a41900>@@V<lambda_341c25c0346d94847f1f3c463c57e077>@@@?$__crt_seh_guarded_call@X@@QEAAX$$QEAV<lambda_5e887d1dcbef67a5eb4283622ba103bf>@@AEAV<lambda_4466841279450cc726390878d4a41900>@@$$QEAV<lambda_341c25c0346d94847f1f3c463c57e077>@@@Z@4HA 000000018002bee6 f   libucrt:per_thread_data.obj
 0001:0002aee6       ?fin$0@?0???$?RV<lambda_99476a1ad63dd22509b5d3e65b0ffc95>@@AEAV<lambda_ad1ced32f4ac17aa236e5ef05d6b3b7c>@@V<lambda_f7424dd8d45958661754dc4f2697e9c3>@@@?$__crt_seh_guarded_call@X@@QEAAX$$QEAV<lambda_99476a1ad63dd22509b5d3e65b0ffc95>@@AEAV<lambda_ad1ced32f4ac17aa236e5ef05d6b3b7c>@@$$QEAV<lambda_f7424dd8d45958661754dc4f2697e9c3>@@@Z@4HA 000000018002bee6 f   libucrt:mbctype.obj
 0001:0002af00       __acrt_update_thread_multibyte_data$fin$0 000000018002bf00 f   libucrt:mbctype.obj
 0001:0002af19       __acrt_lowio_ensure_fh_exists$fin$0 000000018002bf19 f   libucrt:osfinfo.obj
 0001:0002af19       __acrt_initialize_lowio$fin$0 000000018002bf19 f   libucrt:ioinit.obj
 0001:0002af32       _fcloseall$fin$0           000000018002bf32 f   libucrt:closeall.obj
 0001:0002af4b       _write$fin$0               000000018002bf4b f   libucrt:write.obj
 0001:0002af4b       ?fin$0@?0???$common_lseek@_J@@YA_JH_JH@Z@4HA 000000018002bf4b f   libucrt:lseek.obj
 0001:0002af62       __acrt_uninitialize_locale$fin$0 000000018002bf62 f   libucrt:wsetlocale.obj
 0001:0002af62       __acrt_update_thread_locale_data$fin$0 000000018002bf62 f   libucrt:locale_refcounting.obj
 0001:0002af7b       fflush$fin$0               000000018002bf7b f   libucrt:fflush.obj
 0001:0002af7b       fclose$fin$0               000000018002bf7b f   libucrt:fclose.obj
 0001:0002af93       ?fin$0@?0???$?RV<lambda_b521505b218e5242e90febf6bfebc422>@@AEAV<lambda_6978c1fb23f02e42e1d9e99668cc68aa>@@V<lambda_314360699dd331753a4119843814e9a7>@@@?$__crt_seh_guarded_call@H@@QEAAH$$QEAV<lambda_b521505b218e5242e90febf6bfebc422>@@AEAV<lambda_6978c1fb23f02e42e1d9e99668cc68aa>@@$$QEAV<lambda_314360699dd331753a4119843814e9a7>@@@Z@4HA 000000018002bf93 f   libucrt:commit.obj
 0001:0002af93       ?fin$0@?0???$?RV<lambda_bfedae4ebbf01fab1bb6dcc6a9e276e0>@@AEAV<lambda_2fe9b910cf3cbf4a0ab98a02ba45b3ec>@@V<lambda_237c231691f317818eb88cc1d5d642d6>@@@?$__crt_seh_guarded_call@H@@QEAAH$$QEAV<lambda_bfedae4ebbf01fab1bb6dcc6a9e276e0>@@AEAV<lambda_2fe9b910cf3cbf4a0ab98a02ba45b3ec>@@$$QEAV<lambda_237c231691f317818eb88cc1d5d642d6>@@@Z@4HA 000000018002bf93 f   libucrt:close.obj
 0001:0002afad       common_control87$filt$0    000000018002bfad f   libucrt:ieee.obj
 0001:0002afad       _ctrlfp$filt$0             000000018002bfad f   libucrt:fpctrl.obj
 0001:0002afe0       _IsNonwritableInCurrentImage$filt$0 000000018002bfe0 f   LIBCMT:pesect.obj
 0002:00000270       .idata$5                   000000018002c270     libglib-2.0:dgoks00074.o
 0002:00000278       .idata$5                   000000018002c278     libglib-2.0:dgoks00077.o
 0002:00000280       .idata$5                   000000018002c280     libglib-2.0:dgoks00380.o
 0002:00000288       .idata$5                   000000018002c288     libglib-2.0:dgoks00673.o
 0002:00000290       .idata$5                   000000018002c290     libglib-2.0:dgoks01081.o
 0002:00000298       .idata$5                   000000018002c298     libglib-2.0:dgoks01122.o
 0002:000002a8       .idata$5                   000000018002c2a8     libvips:dmrks00870.o
 0002:000002b0       .idata$5                   000000018002c2b0     libvips:dmrks00939.o
 0002:000002b8       .idata$5                   000000018002c2b8     libvips:dmrks00940.o
 0002:000002c0       .idata$5                   000000018002c2c0     libvips:dmrks00985.o
 0002:000002c8       .idata$5                   000000018002c2c8     libvips:dmrks00986.o
 0002:000002d0       .idata$5                   000000018002c2d0     libvips:dmrks00987.o
 0002:000002d8       .idata$5                   000000018002c2d8     libvips:dmrks00988.o
 0002:000002e0       .idata$5                   000000018002c2e0     libvips:dmrks00996.o
 0002:000002e8       .idata$5                   000000018002c2e8     libvips:dmrks00997.o
 0002:000002f0       .idata$5                   000000018002c2f0     libvips:dmrks00998.o
 0002:000002f8       .idata$5                   000000018002c2f8     libvips:dmrks01102.o
 0002:00000300       .idata$5                   000000018002c300     libvips:dmrks01103.o
 0002:00000308       .idata$5                   000000018002c308     libvips:dmrks01175.o
 0002:00000310       .idata$5                   000000018002c310     libvips:dmrks01176.o
 0002:00000318       .idata$5                   000000018002c318     libvips:dmrks01186.o
 0002:00000320       .idata$5                   000000018002c320     libvips:dmrks01229.o
 0002:00000328       .idata$5                   000000018002c328     libvips:dmrks01230.o
 0002:00000330       .idata$5                   000000018002c330     libvips:dmrks01338.o
 0002:00000338       .idata$5                   000000018002c338     libvips:dmrks01465.o
 0002:00000340       .idata$5                   000000018002c340     libvips:dmrks01486.o
 0002:00000348       .idata$5                   000000018002c348     libvips:dmrks01506.o
 0002:00000350       .idata$5                   000000018002c350     libvips:dmrks01524.o
 0002:00000358       .idata$5                   000000018002c358     libvips:dmrks01662.o
 0002:00000360       .idata$5                   000000018002c360     libvips:dmrks01887.o
 0002:00000368       .idata$5                   000000018002c368     libvips:dmrks01903.o
 0002:00000370       .idata$5                   000000018002c370     libvips:dmrks01904.o
 0002:00000378       .idata$5                   000000018002c378     libvips:dmrks01905.o
 0002:00000380       .idata$5                   000000018002c380     libvips:dmrks01909.o
 0002:00000388       .idata$5                   000000018002c388     libvips:dmrks01946.o
 0002:00000390       .idata$5                   000000018002c390     libvips:dmrks01950.o
 0002:00000398       .idata$5                   000000018002c398     libvips:dmrks01957.o
 0002:00000888       GS_ExceptionPointers       000000018002c888     LIBCMT:gs_report.obj
 0002:00000900       ?ExceptionTemplate@?1??_CxxThrowException@@9@4UEHExceptionRecord@@B 000000018002c900     libvcruntime:throw.obj
 0002:00000940       ?ExceptionTemplate@?1??_UnwindNestedFrames@@9@4U_EXCEPTION_RECORD@@B 000000018002c940     libvcruntime:trnsctrl.obj
 0002:000009d8       ?module_names@?A0x679b24ab@@3QBQEB_WB 000000018002c9d8     libvcruntime:winapi_downlevel.obj
 0002:00000aa8       ?candidate_modules@?1??try_get_FlsAlloc@@YAP6AKP6AXPEAX@Z@ZXZ@4QBW4module_id@?A0x679b24ab@@B 000000018002caa8     libvcruntime:winapi_downlevel.obj
 0002:00000ac0       ?candidate_modules@?1??try_get_FlsFree@@YAP6AHK@ZXZ@4QBW4module_id@?A0x679b24ab@@B 000000018002cac0     libvcruntime:winapi_downlevel.obj
 0002:00000ad0       ?candidate_modules@?1??try_get_FlsGetValue@@YAP6APEAXK@ZXZ@4QBW4module_id@?A0x679b24ab@@B 000000018002cad0     libvcruntime:winapi_downlevel.obj
 0002:00000ae8       ?candidate_modules@?1??try_get_FlsSetValue@@YAP6AHKPEAX@ZXZ@4QBW4module_id@?A0x679b24ab@@B 000000018002cae8     libvcruntime:winapi_downlevel.obj
 0002:00000b00       ?candidate_modules@?1??try_get_InitializeCriticalSectionEx@@YAP6AHPEAU_RTL_CRITICAL_SECTION@@KK@ZXZ@4QBW4module_id@?A0x679b24ab@@B 000000018002cb00     libvcruntime:winapi_downlevel.obj
 0002:00000b30       ?tokenTable@@3QBQEBDB      000000018002cb30     libvcruntime:undname.obj
 0002:00000ba0       ?nameTable@@3QBQEBDB       000000018002cba0     libvcruntime:undname.obj
 0002:00000e28       ?rttiTable@@3QBQEBDB       000000018002ce28     libvcruntime:undname.obj
 0002:00001880       __acrt_initializers        000000018002d880     libucrt:initialization.obj
 0002:000019e8       ?mask@?3??_d_int@@9@9      000000018002d9e8     libucrt:_test.obj
 0002:00001a08       ?sub@?3??_d_int@@9@9       000000018002da08     libucrt:_test.obj
 0002:00001a30       errtable                   000000018002da30     libucrt:errno.obj
 0002:00002220       module_names               000000018002e220     libucrt:winapi_thunks.obj
 0002:00002750       ?candidate_modules@?1??try_get_FlsAlloc@@YAP6AKP6AXPEAX@Z@ZXZ@4QBW4module_id@?A0x63058377@@B 000000018002e750     libucrt:winapi_thunks.obj
 0002:00002758       ?candidate_modules@?1??try_get_FlsFree@@YAP6AHK@ZXZ@4QBW4module_id@?A0x63058377@@B 000000018002e758     libucrt:winapi_thunks.obj
 0002:00002760       ?candidate_modules@?1??try_get_FlsGetValue@@YAP6APEAXK@ZXZ@4QBW4module_id@?A0x63058377@@B 000000018002e760     libucrt:winapi_thunks.obj
 0002:00002768       ?candidate_modules@?1??try_get_FlsSetValue@@YAP6AHKPEAX@ZXZ@4QBW4module_id@?A0x63058377@@B 000000018002e768     libucrt:winapi_thunks.obj
 0002:00002770       ?candidate_modules@?1??try_get_GetActiveWindow@@YAP6APEAUHWND__@@XZXZ@4QBW4module_id@?A0x63058377@@B 000000018002e770     libucrt:winapi_thunks.obj
 0002:00002788       ?candidate_modules@?1??try_get_GetCurrentPackageId@@YAP6AJPEAIPEAE@ZXZ@4QBW4module_id@?A0x63058377@@B 000000018002e788     libucrt:winapi_thunks.obj
 0002:000027a8       ?candidate_modules@?1??try_get_GetLastActivePopup@@YAP6APEAUHWND__@@PEAU2@@ZXZ@4QBW4module_id@?A0x63058377@@B 000000018002e7a8     libucrt:winapi_thunks.obj
 0002:000027c8       ?candidate_modules@?1??try_get_GetProcessWindowStation@@YAP6APEAUHWINSTA__@@XZXZ@4QBW4module_id@?A0x63058377@@B 000000018002e7c8     libucrt:winapi_thunks.obj
 0002:000027e8       ?candidate_modules@?1??try_get_GetUserObjectInformationW@@YAP6AHPEAXH0KPEAK@ZXZ@4QBW4module_id@?A0x63058377@@B 000000018002e7e8     libucrt:winapi_thunks.obj
 0002:00002810       ?candidate_modules@?1??try_get_InitializeCriticalSectionEx@@YAP6AHPEAU_RTL_CRITICAL_SECTION@@KK@ZXZ@4QBW4module_id@?A0x63058377@@B 000000018002e810     libucrt:winapi_thunks.obj
 0002:00002818       ?candidate_modules@?1??try_get_LCMapStringEx@@YAP6AHPEB_WK0HPEA_WHPEAU_nlsversioninfo@@PEAX_J@ZXZ@4QBW4module_id@?A0x63058377@@B 000000018002e818     libucrt:winapi_thunks.obj
 0002:00002830       ?candidate_modules@?1??try_get_LocaleNameToLCID@@YAP6AKPEB_WK@ZXZ@4QBW4module_id@?A0x63058377@@B 000000018002e830     libucrt:winapi_thunks.obj
 0002:00002850       ?candidate_modules@?1??try_get_MessageBoxA@@YAP6AHPEAUHWND__@@PEBD1I@ZXZ@4QBW4module_id@?A0x63058377@@B 000000018002e850     libucrt:winapi_thunks.obj
 0002:00002868       ?candidate_modules@?1??try_get_MessageBoxW@@YAP6AHPEAUHWND__@@PEB_W1I@ZXZ@4QBW4module_id@?A0x63058377@@B 000000018002e868     libucrt:winapi_thunks.obj
 0002:00002880       _mb_locale_names           000000018002e880     libucrt:mbctype.obj
 0002:00003150       LcidToLocaleNameTable      000000018002f150     libucrt:lcidtoname_downlevel.obj
 0002:00004bb0       LocaleNameToIndexTable     0000000180030bb0     libucrt:lcidtoname_downlevel.obj
 0002:00006e40       __real@433fffffffffffff    0000000180032e40     libucrt:fpsr.obj
 0002:00006e48       __real@c33fffffffffffff    0000000180032e48     libucrt:fpsr.obj
 0002:00006e50       __real_ninf                0000000180032e50     libucrt:log10.obj
 0002:00006e60       __real_inf                 0000000180032e60     libucrt:log10.obj
 0002:00006e70       __real_neg_qnan            0000000180032e70     libucrt:log10.obj
 0002:00006e80       __real_qnanbit             0000000180032e80     libucrt:log10.obj
 0002:00006e90       __int_1023                 0000000180032e90     libucrt:log10.obj
 0002:00006ea0       __mask_001                 0000000180032ea0     libucrt:log10.obj
 0002:00006eb0       __mask_mant                0000000180032eb0     libucrt:log10.obj
 0002:00006ec0       __mask_mant_top8           0000000180032ec0     libucrt:log10.obj
 0002:00006ed0       __mask_mant9               0000000180032ed0     libucrt:log10.obj
 0002:00006ee0       __real_log10_e             0000000180032ee0     libucrt:log10.obj
 0002:00006ef0       __real_log10_e_lead        0000000180032ef0     libucrt:log10.obj
 0002:00006f00       __real_log10_e_tail        0000000180032f00     libucrt:log10.obj
 0002:00006f10       __real_log10_2_lead        0000000180032f10     libucrt:log10.obj
 0002:00006f20       __real_log10_2_tail        0000000180032f20     libucrt:log10.obj
 0002:00006f30       __real_two                 0000000180032f30     libucrt:log10.obj
 0002:00006f40       __real_one                 0000000180032f40     libucrt:log10.obj
 0002:00006f50       __real_half                0000000180032f50     libucrt:log10.obj
 0002:00006f60       __mask_100                 0000000180032f60     libucrt:log10.obj
 0002:00006f70       __real_1_over_512          0000000180032f70     libucrt:log10.obj
 0002:00006f80       __real_1_over_2            0000000180032f80     libucrt:log10.obj
 0002:00006f90       __real_1_over_3            0000000180032f90     libucrt:log10.obj
 0002:00006fa0       __real_1_over_4            0000000180032fa0     libucrt:log10.obj
 0002:00006fb0       __real_1_over_5            0000000180032fb0     libucrt:log10.obj
 0002:00006fc0       __real_1_over_6            0000000180032fc0     libucrt:log10.obj
 0002:00006fd0       __real_neg_1023            0000000180032fd0     libucrt:log10.obj
 0002:00006fe0       __mask_2045                0000000180032fe0     libucrt:log10.obj
 0002:00006ff0       __real_threshold           0000000180032ff0     libucrt:log10.obj
 0002:00007000       __real_near_one_lt         0000000180033000     libucrt:log10.obj
 0002:00007010       __real_near_one_gt         0000000180033010     libucrt:log10.obj
 0002:00007020       __real_min_norm            0000000180033020     libucrt:log10.obj
 0002:00007030       __real_notsign             0000000180033030     libucrt:log10.obj
 0002:00007040       __real_ca1                 0000000180033040     libucrt:log10.obj
 0002:00007050       __real_ca2                 0000000180033050     libucrt:log10.obj
 0002:00007060       __real_ca3                 0000000180033060     libucrt:log10.obj
 0002:00007070       __real_ca4                 0000000180033070     libucrt:log10.obj
 0002:00007080       __mask_lower               0000000180033080     libucrt:log10.obj
 0002:00007090       __flag_x_zero              0000000180033090     libucrt:log10.obj
 0002:00007094       __flag_x_neg               0000000180033094     libucrt:log10.obj
 0002:00007098       __flag_x_nan               0000000180033098     libucrt:log10.obj
 0002:00009a18       ?piecewise_construct@std@@3Upiecewise_construct_t@1@B 0000000180035a18     pipeline.obj
 0002:00009c98       $cppxdata$??$AttrTo@I@sharp@@YAIV?$Local@VObject@v8@@@v8@@V?$basic_string@DU?$char_traits@D@std@@V?$allocator@D@2@@std@@@Z 0000000180035c98     common.obj
 0002:00009cc0       $cppxdata$??$AttrAs@VArray@v8@@@sharp@@YA?AV?$Local@VArray@v8@@@v8@@V?$Local@VObject@v8@@@2@V?$basic_string@DU?$char_traits@D@std@@V?$allocator@D@2@@std@@@Z 0000000180035cc0     pipeline.obj
 0002:00009cc0       $cppxdata$??$AttrAs@VFunction@v8@@@sharp@@YA?AV?$Local@VFunction@v8@@@v8@@V?$Local@VObject@v8@@@2@V?$basic_string@DU?$char_traits@D@std@@V?$allocator@D@2@@std@@@Z 0000000180035cc0     pipeline.obj
 0002:00009cc0       $cppxdata$??$AttrAs@VObject@v8@@@sharp@@YA?AV?$Local@VObject@v8@@@v8@@V12@V?$basic_string@DU?$char_traits@D@std@@V?$allocator@D@2@@std@@@Z 0000000180035cc0     common.obj
 0002:00009ce8       $cppxdata$??$New@VString@v8@@V?$basic_string@DU?$char_traits@D@std@@V?$allocator@D@2@@std@@@Nan@@YA?AV?$MaybeLocal@VString@v8@@@v8@@V?$basic_string@DU?$char_traits@D@std@@V?$allocator@D@2@@std@@@Z 0000000180035ce8     common.obj
 0002:00009d10       $cppxdata$?GetRgbaAsColourspace@sharp@@YA?AV?$vector@NV?$allocator@N@std@@@std@@V23@W4VipsInterpretation@@@Z 0000000180035d10     common.obj
 0002:00009d38       $cppxdata$?SetDensity@sharp@@YAXVVImage@vips@@H@Z 0000000180035d38     common.obj
 0002:00009d60       $cppxdata$?RemoveExifOrientation@sharp@@YAXVVImage@vips@@@Z 0000000180035d60     common.obj
 0002:00009d88       $cppxdata$?HasAlpha@sharp@@YA_NVVImage@vips@@@Z 0000000180035d88     common.obj
 0002:00009db0       $cppxdata$?HasProfile@sharp@@YA_NVVImage@vips@@@Z 0000000180035db0     common.obj
 0002:00009dd8       $cppxdata$?OpenInput@sharp@@YA?AV?$tuple@VVImage@vips@@W4ImageType@sharp@@@std@@PEAUInputDescriptor@1@W4VipsAccess@@@Z 0000000180035dd8     common.obj
 0002:00009e00       $cppxdata$?DetermineImageType@sharp@@YA?AW4ImageType@1@PEBD@Z 0000000180035e00     common.obj
 0002:00009e28       $cppxdata$?DetermineImageType@sharp@@YA?AW4ImageType@1@PEAX_K@Z 0000000180035e28     common.obj
 0002:00009e50       $cppxdata$?ImageTypeId@sharp@@YA?AV?$basic_string@DU?$char_traits@D@std@@V?$allocator@D@2@@std@@W4ImageType@1@@Z 0000000180035e50     common.obj
 0002:00009e78       $cppxdata$?IsV@sharp@@YA_NAEBV?$basic_string@DU?$char_traits@D@std@@V?$allocator@D@2@@std@@@Z 0000000180035e78     common.obj
 0002:00009ea0       $cppxdata$?IsDzZip@sharp@@YA_NAEBV?$basic_string@DU?$char_traits@D@std@@V?$allocator@D@2@@std@@@Z 0000000180035ea0     common.obj
 0002:00009ec8       $cppxdata$?IsDz@sharp@@YA_NAEBV?$basic_string@DU?$char_traits@D@std@@V?$allocator@D@2@@std@@@Z 0000000180035ec8     common.obj
 0002:00009ef0       $cppxdata$?IsTiff@sharp@@YA_NAEBV?$basic_string@DU?$char_traits@D@std@@V?$allocator@D@2@@std@@@Z 0000000180035ef0     common.obj
 0002:00009f18       $cppxdata$?IsWebp@sharp@@YA_NAEBV?$basic_string@DU?$char_traits@D@std@@V?$allocator@D@2@@std@@@Z 0000000180035f18     common.obj
 0002:00009f40       $cppxdata$?IsPng@sharp@@YA_NAEBV?$basic_string@DU?$char_traits@D@std@@V?$allocator@D@2@@std@@@Z 0000000180035f40     common.obj
 0002:00009f68       $cppxdata$?IsJpeg@sharp@@YA_NAEBV?$basic_string@DU?$char_traits@D@std@@V?$allocator@D@2@@std@@@Z 0000000180035f68     common.obj
 0002:00009f90       $cppxdata$?CreateInputDescriptor@sharp@@YAPEAUInputDescriptor@1@V?$Local@VObject@v8@@@v8@@V?$vector@V?$Local@VObject@v8@@@v8@@V?$allocator@V?$Local@VObject@v8@@@v8@@@std@@@std@@@Z 0000000180035f90     common.obj
 0002:00009fb8       $cppxdata$?AttrAsStr@sharp@@YA?AV?$basic_string@DU?$char_traits@D@std@@V?$allocator@D@2@@std@@V?$Local@VObject@v8@@@v8@@V23@@Z 0000000180035fb8     common.obj
 0002:00009fe0       $cppxdata$?HasAttr@sharp@@YA_NV?$Local@VObject@v8@@@v8@@V?$basic_string@DU?$char_traits@D@std@@V?$allocator@D@2@@std@@@Z 0000000180035fe0     common.obj
 0002:0000a008       $cppxdata$??0Utf8String@Nan@@QEAA@V?$Local@VValue@v8@@@v8@@@Z 0000000180036008     common.obj
 0002:0000a030       $cppxdata$?convert@?$ToFactory@I@imp@Nan@@SA?AV?$Maybe@I@v8@@V?$Local@VValue@v8@@@5@@Z 0000000180036030     common.obj
 0002:0000a058       $cppxdata$?Has@Nan@@YA?AV?$Maybe@_N@v8@@V?$Local@VObject@v8@@@3@V?$Local@VString@v8@@@3@@Z 0000000180036058     common.obj
 0002:0000a080       $cppxdata$?Get@Nan@@YA?AV?$MaybeLocal@VValue@v8@@@v8@@V?$Local@VObject@v8@@@3@V?$Local@VValue@v8@@@3@@Z 0000000180036080     common.obj
 0002:0000a1c0       $cppxdata$??$_Accumulate_unchecked@PEBV?$Local@VObject@v8@@@v8@@HV<lambda_9252aa89fe9814f85e2a072fe573e6da>@@@std@@YAHPEBV?$Local@VObject@v8@@@v8@@0HAEAV<lambda_9252aa89fe9814f85e2a072fe573e6da>@@@Z 00000001800361c0     metadata.obj
 0002:0000a1c0       $cppxdata$??$_Accumulate_unchecked@PEBV?$Local@VObject@v8@@@v8@@HV<lambda_1cf14cbc5c28648f7ac9038b3f6db2a5>@@@std@@YAHPEBV?$Local@VObject@v8@@@v8@@0HAEAV<lambda_1cf14cbc5c28648f7ac9038b3f6db2a5>@@@Z 00000001800361c0     pipeline.obj
 0002:0000a1e8       $cppxdata$?metadata@@YAXAEBV?$FunctionCallbackInfo@VValue@v8@@@Nan@@@Z 00000001800361e8     metadata.obj
 0002:0000a210       $cppxdata$?Execute@MetadataWorker@@UEAAXXZ 0000000180036210     metadata.obj
 0002:0000a238       $cppxdata$??0MetadataWorker@@QEAA@PEAVCallback@Nan@@PEAUMetadataBaton@@V?$vector@V?$Local@VObject@v8@@@v8@@V?$allocator@V?$Local@VObject@v8@@@v8@@@std@@@std@@@Z 0000000180036238     metadata.obj
 0002:0000a260       $cppxdata$??1?$Persistent@VObject@v8@@V?$NonCopyablePersistentTraits@VObject@v8@@@2@@Nan@@QEAA@XZ 0000000180036260     metadata.obj
 0002:0000a288       $cppxdata$?HandleErrorCallback@AsyncWorker@Nan@@MEAAXXZ 0000000180036288     metadata.obj
 0002:0000a2b0       $cppxdata$?HandleOKCallback@AsyncWorker@Nan@@MEAAXXZ 00000001800362b0     metadata.obj
 0002:0000a2d8       $cppxdata$?GetFromPersistent@AsyncWorker@Nan@@QEBA?AV?$Local@VValue@v8@@@v8@@I@Z 00000001800362d8     metadata.obj
 0002:0000a300       $cppxdata$?WorkComplete@AsyncWorker@Nan@@UEAAXXZ 0000000180036300     metadata.obj
 0002:0000a328       $cppxdata$??1AsyncWorker@Nan@@UEAA@XZ 0000000180036328     metadata.obj
 0002:0000a350       $cppxdata$??0AsyncWorker@Nan@@QEAA@PEAVCallback@1@@Z 0000000180036350     metadata.obj
 0002:0000a378       $cppxdata$?Call_@Callback@Nan@@AEBA?AV?$Local@VValue@v8@@@v8@@PEAVIsolate@4@V?$Local@VObject@v8@@@4@HQEAV34@@Z 0000000180036378     metadata.obj
 0002:0000a3a0       $cppxdata$?Call@Callback@Nan@@QEBA?AV?$Local@VValue@v8@@@v8@@HQEAV34@@Z 00000001800363a0     metadata.obj
 0002:0000a3c8       $cppxdata$?Error@Nan@@YA?AV?$Local@VValue@v8@@@v8@@PEBD@Z 00000001800363c8     metadata.obj
 0002:0000a3f0       $cppxdata$?convert@?$ToFactory@VUint32@v8@@@imp@Nan@@SA?AV?$MaybeLocal@VUint32@v8@@@v8@@V?$Local@VValue@v8@@@5@@Z 00000001800363f0     metadata.obj
 0002:0000a418       $cppxdata$?Set@Nan@@YA?AV?$Maybe@_N@v8@@V?$Local@VObject@v8@@@3@V?$Local@VValue@v8@@@3@1@Z 0000000180036418     metadata.obj
 0002:0000a440       $cppxdata$?Trim@sharp@@YA?AVVImage@vips@@V23@H@Z 0000000180036440     operations.obj
 0002:0000a468       $cppxdata$?Boolean@sharp@@YA?AVVImage@vips@@V23@0W4VipsOperationBoolean@@@Z 0000000180036468     operations.obj
 0002:0000a490       $cppxdata$?Bandbool@sharp@@YA?AVVImage@vips@@V23@W4VipsOperationBoolean@@@Z 0000000180036490     operations.obj
 0002:0000a4b8       $cppxdata$?Threshold@sharp@@YA?AVVImage@vips@@V23@N_N@Z 00000001800364b8     operations.obj
 0002:0000a4e0       $cppxdata$?TileCache@sharp@@YA?AVVImage@vips@@V23@N@Z 00000001800364e0     operations.obj
 0002:0000a508       $cppxdata$?Crop@sharp@@YA?AV?$tuple@HH@std@@VVImage@vips@@HHV?$function@$$A6ANVVImage@vips@@@Z@3@@Z 0000000180036508     operations.obj
 0002:0000a530       $cppxdata$??RAttentionStrategy@sharp@@QEAANVVImage@vips@@@Z 0000000180036530     operations.obj
 0002:0000a558       $cppxdata$?Sharpen@sharp@@YA?AVVImage@vips@@V23@NNN@Z 0000000180036558     operations.obj
 0002:0000a580       $cppxdata$?Convolve@sharp@@YA?AVVImage@vips@@V23@HHNNAEBV?$unique_ptr@$$BY0A@NU?$default_delete@$$BY0A@N@std@@@std@@@Z 0000000180036580     operations.obj
 0002:0000a5a8       $cppxdata$?Blur@sharp@@YA?AVVImage@vips@@V23@N@Z 00000001800365a8     operations.obj
 0002:0000a5d0       $cppxdata$?Gamma@sharp@@YA?AVVImage@vips@@V23@N@Z 00000001800365d0     operations.obj
 0002:0000a5f8       $cppxdata$?Normalise@sharp@@YA?AVVImage@vips@@V23@@Z 00000001800365f8     operations.obj
 0002:0000a620       $cppxdata$?Cutout@sharp@@YA?AVVImage@vips@@V23@0H@Z 0000000180036620     operations.obj
 0002:0000a648       $cppxdata$?CompositeImage@sharp@@YA?AVVImage@vips@@V23@0@Z 0000000180036648     operations.obj
 0002:0000a670       $cppxdata$?IsInputValidForComposition@sharp@@YA_NVVImage@vips@@0@Z 0000000180036670     operations.obj
 0002:0000a698       $cppxdata$?Composite@sharp@@YA?AVVImage@vips@@V23@0HH@Z 0000000180036698     operations.obj
 0002:0000a6c0       $cppxdata$?Composite@sharp@@YA?AVVImage@vips@@V23@0H@Z 00000001800366c0     operations.obj
 0002:0000a6e8       $cppxdata$??$_Uninitialized_copy_al_unchecked1@PEBU?$pair@V?$basic_string@DU?$char_traits@D@std@@V?$allocator@D@2@@std@@V12@@std@@PEAU12@V?$allocator@U?$pair@V?$basic_string@DU?$char_traits@D@std@@V?$allocator@D@2@@std@@V12@@std@@@2@@std@@YAPEAU?$pair@V?$basic_string@DU?$char_traits@D@std@@V?$allocator@D@2@@std@@V12@@0@PEBU10@0PEAU10@AEAU?$_Wrap_alloc@V?$allocator@U?$pair@V?$basic_string@DU?$char_traits@D@std@@V?$allocator@D@2@@std@@V12@@std@@@std@@@0@U_General_ptr_iterator_tag@0@U_Any_tag@0@@Z 00000001800366e8     pipeline.obj
 0002:0000a710       $cppxdata$?_Do_call@?$_Func_impl@UEntropyStrategy@sharp@@V?$allocator@H@std@@NVVImage@vips@@@std@@EEAAN$$QEAVVImage@vips@@@Z 0000000180036710     pipeline.obj
 0002:0000a738       $cppxdata$??$AttrTo@N@sharp@@YANV?$Local@VObject@v8@@@v8@@V?$basic_string@DU?$char_traits@D@std@@V?$allocator@D@2@@std@@@Z 0000000180036738     pipeline.obj
 0002:0000a760       $cppxdata$??$AttrTo@H@sharp@@YAHV?$Local@VObject@v8@@@v8@@V?$basic_string@DU?$char_traits@D@std@@V?$allocator@D@2@@std@@@Z 0000000180036760     pipeline.obj
 0002:0000a788       $cppxdata$??$AttrTo@_N@sharp@@YA_NV?$Local@VObject@v8@@@v8@@V?$basic_string@DU?$char_traits@D@std@@V?$allocator@D@2@@std@@@Z 0000000180036788     pipeline.obj
 0002:0000a7b0       $cppxdata$??$?HDU?$char_traits@D@std@@V?$allocator@D@1@@std@@YA?AV?$basic_string@DU?$char_traits@D@std@@V?$allocator@D@2@@0@PEBDAEBV10@@Z 00000001800367b0     pipeline.obj
 0002:0000a7d8       $cppxdata$??$?0AEAY0BA@$$CBDAEAY04$$CBDX$0A@@?$pair@V?$basic_string@DU?$char_traits@D@std@@V?$allocator@D@2@@std@@V12@@std@@QEAA@AEAY0BA@$$CBDAEAY04$$CBD@Z 00000001800367d8     pipeline.obj
 0002:0000a800       $cppxdata$??$?0AEAY0P@$$CBDPEBDX$0A@@?$pair@V?$basic_string@DU?$char_traits@D@std@@V?$allocator@D@2@@std@@V12@@std@@QEAA@AEAY0P@$$CBD$$QEAPEBD@Z 0000000180036800     pipeline.obj
 0002:0000a828       $cppxdata$??$?0AEAY0BE@$$CBDPEBDX$0A@@?$pair@V?$basic_string@DU?$char_traits@D@std@@V?$allocator@D@2@@std@@V12@@std@@QEAA@AEAY0BE@$$CBD$$QEAPEBD@Z 0000000180036828     pipeline.obj
 0002:0000a850       $cppxdata$??$?0AEAY0N@$$CBDPEBDX$0A@@?$pair@V?$basic_string@DU?$char_traits@D@std@@V?$allocator@D@2@@std@@V12@@std@@QEAA@AEAY0N@$$CBD$$QEAPEBD@Z 0000000180036850     pipeline.obj
 0002:0000a878       $cppxdata$??$?0AEAY0O@$$CBDPEBDX$0A@@?$pair@V?$basic_string@DU?$char_traits@D@std@@V?$allocator@D@2@@std@@V12@@std@@QEAA@AEAY0O@$$CBD$$QEAPEBD@Z 0000000180036878     pipeline.obj
 0002:0000a8a0       $cppxdata$??$?0AEAY08$$CBDPEBDX$0A@@?$pair@V?$basic_string@DU?$char_traits@D@std@@V?$allocator@D@2@@std@@V12@@std@@QEAA@AEAY08$$CBD$$QEAPEBD@Z 00000001800368a0     pipeline.obj
 0002:0000a8c8       $cppxdata$??$?0AEAY06$$CBDPEBDX$0A@@?$pair@V?$basic_string@DU?$char_traits@D@std@@V?$allocator@D@2@@std@@V12@@std@@QEAA@AEAY06$$CBD$$QEAPEBD@Z 00000001800368c8     pipeline.obj
 0002:0000a8f0       $cppxdata$??$?0AEAY09$$CBDPEBDX$0A@@?$pair@V?$basic_string@DU?$char_traits@D@std@@V?$allocator@D@2@@std@@V12@@std@@QEAA@AEAY09$$CBD$$QEAPEBD@Z 00000001800368f0     pipeline.obj
 0002:0000a918       $cppxdata$??$?HDU?$char_traits@D@std@@V?$allocator@D@1@@std@@YA?AV?$basic_string@DU?$char_traits@D@std@@V?$allocator@D@2@@0@AEBV10@PEBD@Z 0000000180036918     pipeline.obj
 0002:0000a940       $cppxdata$?pipeline@@YAXAEBV?$FunctionCallbackInfo@VValue@v8@@@Nan@@@Z 0000000180036940     pipeline.obj
 0002:0000a968       $cppxdata$?AssembleSuffixString@PipelineWorker@@AEAA?AV?$basic_string@DU?$char_traits@D@std@@V?$allocator@D@2@@std@@V23@V?$vector@U?$pair@V?$basic_string@DU?$char_traits@D@std@@V?$allocator@D@2@@std@@V12@@std@@V?$allocator@U?$pair@V?$basic_string@DU?$char_traits@D@std@@V?$allocator@D@2@@std@@V12@@std@@@2@@3@@Z 0000000180036968     pipeline.obj
 0002:0000a990       $cppxdata$?CalculateRotationAndFlip@PipelineWorker@@AEAA?AV?$tuple@W4VipsAngle@@_N_N@std@@HVVImage@vips@@@Z 0000000180036990     pipeline.obj
 0002:0000a9b8       $cppxdata$?HandleOKCallback@PipelineWorker@@UEAAXXZ 00000001800369b8     pipeline.obj
 0002:0000a9e0       $cppxdata$?Execute@PipelineWorker@@UEAAXXZ 00000001800369e0     pipeline.obj
 0002:0000aa08       $cppxdata$??0PipelineWorker@@QEAA@PEAVCallback@Nan@@PEAUPipelineBaton@@0V?$vector@V?$Local@VObject@v8@@@v8@@V?$allocator@V?$Local@VObject@v8@@@v8@@@std@@@std@@@Z 0000000180036a08     pipeline.obj
 0002:0000aa30       $cppxdata$??0PipelineBaton@@QEAA@XZ 0000000180036a30     pipeline.obj
 0002:0000aa58       $cppxdata$?convert@?$ToFactory@H@imp@Nan@@SA?AV?$Maybe@H@v8@@V?$Local@VValue@v8@@@5@@Z 0000000180036a58     pipeline.obj
 0002:0000aa80       $cppxdata$?convert@?$ToFactory@N@imp@Nan@@SA?AV?$Maybe@N@v8@@V?$Local@VValue@v8@@@5@@Z 0000000180036a80     pipeline.obj
 0002:0000aaa8       $cppxdata$?convert@?$ToFactory@_N@imp@Nan@@SA?AV?$Maybe@_N@v8@@V?$Local@VValue@v8@@@5@@Z 0000000180036aa8     pipeline.obj
 0002:0000aad0       $cppxdata$?Get@Nan@@YA?AV?$MaybeLocal@VValue@v8@@@v8@@V?$Local@VObject@v8@@@3@I@Z 0000000180036ad0     pipeline.obj
 0002:0000aaf8       $cppxdata$?New@?$Factory@VFunctionTemplate@v8@@@imp@Nan@@SA?AV?$Local@VFunctionTemplate@v8@@@v8@@P6AXAEBV?$FunctionCallbackInfo@VValue@v8@@@3@@ZV?$Local@VValue@v8@@@5@V?$Local@VSignature@v8@@@5@@Z 0000000180036af8     sharp.obj
 0002:0000ab20       $cppxdata$?GetFunction@Nan@@YA?AV?$MaybeLocal@VFunction@v8@@@v8@@V?$Local@VFunctionTemplate@v8@@@3@@Z 0000000180036b20     sharp.obj
 0002:0000ab48       $cppxdata$?NewInstance@Nan@@YA?AV?$MaybeLocal@VObject@v8@@@v8@@V?$Local@VObjectTemplate@v8@@@3@@Z 0000000180036b48     sharp.obj
 0002:0000ab70       $cppxdata$?ThrowError@Nan@@YAXPEBD@Z 0000000180036b70     utilities.obj
 0002:0000ab98       $cppxdata$?convert@?$ToFactory@VInteger@v8@@@imp@Nan@@SA?AV?$MaybeLocal@VInteger@v8@@@v8@@V?$Local@VValue@v8@@@5@@Z 0000000180036b98     utilities.obj
 0002:0000abc0       $cppxdata$?_maxColourDistance@@YAXAEBV?$FunctionCallbackInfo@VValue@v8@@@Nan@@@Z 0000000180036bc0     utilities.obj
 0002:0000abe8       $cppxdata$?format@@YAXAEBV?$FunctionCallbackInfo@VValue@v8@@@Nan@@@Z 0000000180036be8     utilities.obj
 0002:0000b520       $unwind$__scrt_release_startup_lock 0000000180037520     LIBCMT:utility.obj
 0002:0000b520       $unwind$__scrt_initialize_crt 0000000180037520     LIBCMT:utility.obj
 0002:0000b520       $unwind$??0?$output_processor@_WV?$stream_output_adapter@_W@__crt_stdio_output@@V?$standard_base@_WV?$stream_output_adapter@_W@__crt_stdio_output@@@2@@__crt_stdio_output@@QEAA@AEBV?$stream_output_adapter@_W@1@_KQEB_WQEAU__crt_locale_pointers@@QEAD@Z 0000000180037520     libucrt:output.obj
 0002:0000b520       $unwind$?AsyncQueueWorker@Nan@@YAXPEAVAsyncWorker@1@@Z 0000000180037520     metadata.obj
 0002:0000b520       $unwind$__acrt_uninitialize_stdio 0000000180037520     libucrt:_file.obj
 0002:0000b520       $unwind$?__StateFromIp@@YAHPEBU_s_FuncInfo@@PEAU_xDISPATCHER_CONTEXT@@_J@Z 0000000180037520     libvcruntime:ehstate.obj
 0002:0000b520       $unwind$?type_case_integer@?$output_processor@_WV?$stream_output_adapter@_W@__crt_stdio_output@@V?$standard_base@_WV?$stream_output_adapter@_W@__crt_stdio_output@@@2@@__crt_stdio_output@@AEAA_NI_N@Z 0000000180037520     libucrt:output.obj
 0002:0000b520       $unwind$??0?$output_processor@_WV?$string_output_adapter@_W@__crt_stdio_output@@V?$standard_base@_WV?$string_output_adapter@_W@__crt_stdio_output@@@2@@__crt_stdio_output@@QEAA@AEBV?$string_output_adapter@_W@1@_KQEB_WQEAU__crt_locale_pointers@@QEAD@Z 0000000180037520     libucrt:output.obj
 0002:0000b520       $unwind$fesetenv           0000000180037520     libucrt:fesetenv.obj
 0002:0000b520       $unwind$??2@YAPEAX_K@Z     0000000180037520     LIBCMT:new_scalar.obj
 0002:0000b520       $unwind$?type_case_integer@?$output_processor@_WV?$string_output_adapter@_W@__crt_stdio_output@@V?$standard_base@_WV?$string_output_adapter@_W@__crt_stdio_output@@@2@@__crt_stdio_output@@AEAA_NI_N@Z 0000000180037520     libucrt:output.obj
 0002:0000b520       $unwind$_purecall          0000000180037520     libvcruntime:purevirt.obj
 0002:0000b520       $unwind$?load_exe_hook@@YAP6A_JXZIPEAUDelayLoadInfo@@@Z 0000000180037520     win_delay_load_hook.obj
 0002:0000b520       $unwind$??1PipelineBaton@@QEAA@XZ 0000000180037520     pipeline.obj
 0002:0000b520       $unwind$__acrt_uninitialize_locks 0000000180037520     libucrt:locks.obj
 0002:0000b520       $unwind$??1?$pair@V?$basic_string@DU?$char_traits@D@std@@V?$allocator@D@2@@std@@V12@@std@@QEAA@XZ 0000000180037520     pipeline.obj
 0002:0000b520       $unwind$__acrt_initialize_locks 0000000180037520     libucrt:locks.obj
 0002:0000b520       $unwind$??1?$map@W4VipsInterpretation@@V?$basic_string@DU?$char_traits@D@std@@V?$allocator@D@2@@std@@U?$less@W4VipsInterpretation@@@3@V?$allocator@U?$pair@$$CBW4VipsInterpretation@@V?$basic_string@DU?$char_traits@D@std@@V?$allocator@D@2@@std@@@std@@@3@@std@@QEAA@XZ 0000000180037520     pipeline.obj
 0002:0000b520       $unwind$??0exception@std@@QEAA@AEBV01@@Z 0000000180037520     libcpmt:xthrow.obj
 0002:0000b520       $unwind$??1?$function@$$A6ANVVImage@vips@@@Z@std@@QEAA@XZ 0000000180037520     operations.obj
 0002:0000b520       $unwind$_fflush_nolock     0000000180037520     libucrt:fflush.obj
 0002:0000b520       $unwind$__acrt_uninitialize_winapi_thunks 0000000180037520     libucrt:winapi_thunks.obj
 0002:0000b520       $unwind$__acrt_update_multibyte_info 0000000180037520     libucrt:locale_update.obj
 0002:0000b520       $unwind$__scrt_uninitialize_crt 0000000180037520     LIBCMT:utility.obj
 0002:0000b520       $unwind$__acrt_stdio_free_buffer_nolock 0000000180037520     libucrt:_freebuf.obj
 0002:0000b520       $unwind$??0bad_array_new_length@std@@QEAA@AEBV01@@Z 0000000180037520     LIBCMT:throw_bad_alloc.obj
 0002:0000b520       $unwind$?AsyncExecuteComplete@Nan@@YAXPEAUuv_work_s@@@Z 0000000180037520     metadata.obj
 0002:0000b520       $unwind$_SetImageBase      0000000180037520     libvcruntime:trnsctrl.obj
 0002:0000b520       $unwind$feholdexcept       0000000180037520     libucrt:feholdexcept.obj
 0002:0000b520       $unwind$__raise_securityfailure 0000000180037520     LIBCMT:gs_report.obj
 0002:0000b520       $unwind$strcpy_s           0000000180037520     libucrt:strcpy_s.obj
 0002:0000b520       $unwind$??1?$vector@NV?$allocator@N@std@@@std@@QEAA@XZ 0000000180037520     common.obj
 0002:0000b520       $unwind$_onexit            0000000180037520     LIBCMT:utility.obj
 0002:0000b520       $unwind$wcscat_s           0000000180037520     libucrt:wcscat_s.obj
 0002:0000b520       $unwind$_malloc_base       0000000180037520     libucrt:malloc_base.obj
 0002:0000b520       $unwind$__acrt_can_show_message_box 0000000180037520     libucrt:winapi_thunks.obj
 0002:0000b520       $unwind$_SetThrowImageBase 0000000180037520     libvcruntime:trnsctrl.obj
 0002:0000b520       $unwind$__acrt_freeptd     0000000180037520     libucrt:per_thread_data.obj
 0002:0000b520       $unwind$initialize_pointers 0000000180037520     libucrt:initialization.obj
 0002:0000b520       $unwind$?exit_or_terminate_process@@YAXI@Z 0000000180037520     libucrt:exit.obj
 0002:0000b520       $unwind$??0bad_alloc@std@@QEAA@AEBV01@@Z 0000000180037520     libcpmt:xthrow.obj
 0002:0000b520       $unwind$_calloc_base       0000000180037520     libucrt:calloc_base.obj
 0002:0000b520       $unwind$__acrt_fp_strflt_to_string 0000000180037520     libucrt:_fptostr.obj
 0002:0000b520       $unwind$??1?$vector@V?$Local@VObject@v8@@@v8@@V?$allocator@V?$Local@VObject@v8@@@v8@@@std@@@std@@QEAA@XZ 0000000180037520     common.obj
 0002:0000b520       $unwind$__vcrt_initialize_locks 0000000180037520     libvcruntime:locks.obj
 0002:0000b520       $unwind$??_Gexception@stdext@@UEAAPEAXI@Z 0000000180037520     common.obj
 0002:0000b520       $unwind$__acrt_stdio_allocate_buffer_nolock 0000000180037520     libucrt:_getbuf.obj
 0002:0000b520       $unwind$?_Tidy@?$vector@U?$pair@V?$basic_string@DU?$char_traits@D@std@@V?$allocator@D@2@@std@@V12@@std@@V?$allocator@U?$pair@V?$basic_string@DU?$char_traits@D@std@@V?$allocator@D@2@@std@@V12@@std@@@2@@std@@IEAAXXZ 0000000180037520     pipeline.obj
 0002:0000b520       $unwind$_setfpstatusword   0000000180037520     libucrt:_fenvutils.obj
 0002:0000b520       $unwind$??0?$basic_string@DU?$char_traits@D@std@@V?$allocator@D@2@@std@@QEAA@AEBV01@@Z 0000000180037520     common.obj
 0002:0000b520       $unwind$__vcrt_uninitialize_locks 0000000180037520     libvcruntime:locks.obj
 0002:0000b520       $unwind$??0logic_error@std@@QEAA@AEBV01@@Z 0000000180037520     libcpmt:xthrow.obj
 0002:0000b520       $unwind$??1?$vector@PEAUInputDescriptor@sharp@@V?$allocator@PEAUInputDescriptor@sharp@@@std@@@std@@QEAA@XZ 0000000180037520     pipeline.obj
 0002:0000b520       $unwind$??_Gtype_info@@UEAAPEAXI@Z 0000000180037520     LIBCMT:std_type_info_static.obj
 0002:0000b520       $unwind$_CreateFrameInfo   0000000180037520     libvcruntime:trnsctrl.obj
 0002:0000b520       $unwind$__acrt_update_locale_info 0000000180037520     libucrt:locale_update.obj
 0002:0000b520       $unwind$??0bad_exception@std@@QEAA@AEBV01@@Z 0000000180037520     libvcruntime:frame.obj
 0002:0000b520       $unwind$_IsExceptionObjectToBeDestroyed 0000000180037520     libvcruntime:trnsctrl.obj
 0002:0000b520       $unwind$uninitialize_allocated_memory 0000000180037520     libucrt:initialization.obj
 0002:0000b520       $unwind$_clearfp           0000000180037520     libucrt:ieee.obj
 0002:0000b520       $unwind$__acrt_allocate_buffer_for_argv 0000000180037520     libucrt:argv_parsing.obj
 0002:0000b520       $unwind$??0length_error@std@@QEAA@AEBV01@@Z 0000000180037520     libcpmt:xthrow.obj
 0002:0000b520       $unwind$??0?$basic_string@DU?$char_traits@D@std@@V?$allocator@D@2@@std@@QEAA@PEBD@Z 0000000180037520     common.obj
 0002:0000b520       $unwind$wcscpy_s           0000000180037520     libucrt:wcscpy_s.obj
 0002:0000b520       $unwind$??$_Insert_at@AEAU?$pair@$$CBW4VipsInterpretation@@V?$basic_string@DU?$char_traits@D@std@@V?$allocator@D@2@@std@@@std@@PEAU?$_Tree_node@U?$pair@$$CBW4VipsInterpretation@@V?$basic_string@DU?$char_traits@D@std@@V?$allocator@D@2@@std@@@std@@PEAX@2@@?$_Tree@V?$_Tmap_traits@W4VipsInterpretation@@V?$basic_string@DU?$char_traits@D@std@@V?$allocator@D@2@@std@@U?$less@W4VipsInterpretation@@@3@V?$allocator@U?$pair@$$CBW4VipsInterpretation@@V?$basic_string@DU?$char_traits@D@std@@V?$allocator@D@2@@std@@@std@@@3@$0A@@std@@@std@@IEAA?AV?$_Tree_iterator@V?$_Tree_val@U?$_Tree_simple_types@U?$pair@$$CBW4VipsInterpretation@@V?$basic_string@DU?$char_traits@D@std@@V?$allocator@D@2@@std@@@std@@@std@@@std@@@1@_NPEAU?$_Tree_node@U?$pair@$$CBW4VipsInterpretation@@V?$basic_string@DU?$char_traits@D@std@@V?$allocator@D@2@@std@@@std@@PEAX@1@AEAU?$pair@$$CBW4VipsInterpretation@@V?$basic_string@DU?$char_traits@D@std@@V?$allocator@D@2@@std@@@1@1@Z 0000000180037520     pipeline.obj
 0002:0000b520       $unwind$fegetenv           0000000180037520     libucrt:fegetenv.obj
 0002:0000b520       $unwind$??0bad_function_call@std@@QEAA@AEBV01@@Z 0000000180037520     libcpmt:xthrow.obj
 0002:0000b520       $unwind$__vcrt_freeptd     0000000180037520     libvcruntime:per_thread_data.obj
 0002:0000b520       $unwind$?__GetUnwindTryBlock@@YAHPEA_KPEAU_xDISPATCHER_CONTEXT@@PEBU_s_FuncInfo@@@Z 0000000180037520     libvcruntime:ehstate.obj
 0002:0000b520       $unwind$??1?$basic_string@DU?$char_traits@D@std@@V?$allocator@D@2@@std@@QEAA@XZ 0000000180037520     common.obj
 0002:0000b520       $unwind$??$message_box_wait_thread@_W@@YAKQEAX@Z 0000000180037520     libucrt:crtmbox.obj
 0002:0000b520       $unwind$_clrfp             0000000180037520     libucrt:fpctrl.obj
 0002:0000b520       $unwind$__std_type_info_destroy_list 0000000180037520     libvcruntime:std_type_info.obj
 0002:0000b520       $unwind$__std_exception_destroy 0000000180037520     libvcruntime:std_exception.obj
 0002:0000b520       $unwind$_set_statfp        0000000180037520     libucrt:fpctrl.obj
 0002:0000b520       $unwind$?DloadReleaseSectionWriteAccess@@YAXXZ 0000000180037520     DelayImp:delayhlp.obj
 0002:0000b520       $unwind$??0out_of_range@std@@QEAA@AEBV01@@Z 0000000180037520     libcpmt:xthrow.obj
 0002:0000b528       $unwind$?deallocate@?$_Wrap_alloc@V?$allocator@V?$Local@VObject@v8@@@v8@@@std@@@std@@QEAAXPEAV?$Local@VObject@v8@@@v8@@_K@Z 0000000180037528     common.obj
 0002:0000b528       $unwind$_statfp            0000000180037528     libucrt:fpctrl.obj
 0002:0000b528       $unwind$__doserrno         0000000180037528     libucrt:errno.obj
 0002:0000b528       $unwind$__std_terminate    0000000180037528     libvcruntime:frame.obj
 0002:0000b528       $unwind$__dcrt_uninitialize_environments_nolock 0000000180037528     libucrt:environment_initialization.obj
 0002:0000b528       $unwind$_errno             0000000180037528     libucrt:errno.obj
 0002:0000b528       $unwind$_invoke_watson     0000000180037528     libucrt:invalid_parameter.obj
 0002:0000b528       $unwind$__vcrt_freefls     0000000180037528     libvcruntime:per_thread_data.obj
 0002:0000b528       $unwind$_set_error_mode    0000000180037528     libucrt:set_error_mode.obj
 0002:0000b528       $unwind$__acrt_initialize_multibyte 0000000180037528     libucrt:mbctype.obj
 0002:0000b528       $unwind$abort              0000000180037528     libucrt:abort.obj
 0002:0000b528       $unwind$__acrt_initialize_command_line 0000000180037528     libucrt:argv_data.obj
 0002:0000b528       $unwind$??$uninitialize_environment_internal@D@@YAXAEAPEAPEAD@Z 0000000180037528     libucrt:environment_initialization.obj
 0002:0000b528       $unwind$?deallocate@?$_Wrap_alloc@V?$allocator@N@std@@@std@@QEAAXPEAN_K@Z 0000000180037528     common.obj
 0002:0000b528       $unwind$__vcrt_getptd      0000000180037528     libvcruntime:per_thread_data.obj
 0002:0000b528       $unwind$?_Do_call@?$_Func_impl@UAttentionStrategy@sharp@@V?$allocator@H@std@@NVVImage@vips@@@std@@EEAAN$$QEAVVImage@vips@@@Z 0000000180037528     pipeline.obj
 0002:0000b528       $unwind$??$uninitialize_environment_internal@_W@@YAXAEAPEAPEA_W@Z 0000000180037528     libucrt:environment_initialization.obj
 0002:0000b528       $unwind$__vcrt_uninitialize_ptd 0000000180037528     libvcruntime:per_thread_data.obj
 0002:0000b528       $unwind$?allocate@?$_Wrap_alloc@V?$allocator@N@std@@@std@@QEAAPEAN_K@Z 0000000180037528     common.obj
 0002:0000b528       $unwind$??$?8DU?$char_traits@D@std@@V?$allocator@D@1@@std@@YA_NAEBV?$basic_string@DU?$char_traits@D@std@@V?$allocator@D@2@@0@PEBD@Z 0000000180037528     pipeline.obj
 0002:0000b528       $unwind$tolower            0000000180037528     libucrt:tolower_toupper.obj
 0002:0000b528       $unwind$__vcrt_initialize_ptd 0000000180037528     libvcruntime:per_thread_data.obj
 0002:0000b528       $unwind$?_Reserve@?$vector@V?$Local@VObject@v8@@@v8@@V?$allocator@V?$Local@VObject@v8@@@v8@@@std@@@std@@IEAAX_K@Z 0000000180037528     common.obj
 0002:0000b528       $unwind$?__GetCurrentState@@YAHPEA_KPEAU_xDISPATCHER_CONTEXT@@PEBU_s_FuncInfo@@@Z 0000000180037528     libvcruntime:ehstate.obj
 0002:0000b528       $unwind$_get_osfhandle     0000000180037528     libucrt:osfinfo.obj
 0002:0000b528       $unwind$__acrt_initialize_ptd 0000000180037528     libucrt:per_thread_data.obj
 0002:0000b528       $unwind$__dcrt_terminate_console_output 0000000180037528     libucrt:initcon.obj
 0002:0000b528       $unwind$__acrt_uninitialize_ptd 0000000180037528     libucrt:per_thread_data.obj
 0002:0000b528       $unwind$_getfpcontrolword  0000000180037528     libucrt:_fenvutils.obj
 0002:0000b528       $unwind$_getfpstatusword   0000000180037528     libucrt:_fenvutils.obj
 0002:0000b528       $unwind$?dllmain_crt_dispatch@@YAHQEAUHINSTANCE__@@KQEAX@Z 0000000180037528     LIBCMT:dll_dllmain.obj
 0002:0000b528       $unwind$?_Deallocate@std@@YAXPEAX_K1@Z 0000000180037528     common.obj
 0002:0000b528       $unwind$__vcrt_thread_detach 0000000180037528     libvcruntime:initialization.obj
 0002:0000b528       $unwind$__scrt_initialize_default_local_stdio_options 0000000180037528     LIBCMT:default_local_stdio_options.obj
 0002:0000b528       $unwind$__FrameUnwindFilter 0000000180037528     libvcruntime:frame.obj
 0002:0000b528       $unwind$atexit             0000000180037528     LIBCMT:utility.obj
 0002:0000b528       $unwind$_isatty            0000000180037528     libucrt:isatty.obj
 0002:0000b528       $unwind$__acrt_initialize_heap 0000000180037528     libucrt:heap_handle.obj
 0002:0000b528       $unwind$__scrt_dllmain_crt_thread_detach 0000000180037528     LIBCMT:utility.obj
 0002:0000b528       $unwind$_msize             0000000180037528     libucrt:msize.obj
 0002:0000b528       $unwind$__scrt_dllmain_crt_thread_attach 0000000180037528     LIBCMT:utility.obj
 0002:0000b528       $unwind$_set_errno_from_matherr 0000000180037528     libucrt:fpexcept.obj
 0002:0000b528       $unwind$_GetThrowImageBase 0000000180037528     libvcruntime:trnsctrl.obj
 0002:0000b528       $unwind$__scrt_dllmain_uninitialize_critical 0000000180037528     LIBCMT:utility.obj
 0002:0000b528       $unwind$__GSHandlerCheck   0000000180037528     LIBCMT:_gshandler_.obj
 0002:0000b528       $unwind$__scrt_dllmain_uninitialize_c 0000000180037528     LIBCMT:utility.obj
 0002:0000b528       $unwind$__scrt_acquire_startup_lock 0000000180037528     LIBCMT:utility.obj
 0002:0000b528       $unwind$__scrt_dllmain_after_initialize_c 0000000180037528     LIBCMT:utility.obj
 0002:0000b528       $unwind$__acrt_release_locale_ref 0000000180037528     libucrt:locale_refcounting.obj
 0002:0000b528       $unwind$_fileno            0000000180037528     libucrt:fileno.obj
 0002:0000b528       $unwind$?allocate@?$_Wrap_alloc@V?$allocator@V?$Local@VObject@v8@@@v8@@@std@@@std@@QEAAPEAV?$Local@VObject@v8@@@v8@@_K@Z 0000000180037528     common.obj
 0002:0000b528       $unwind$_GetImageBase      0000000180037528     libvcruntime:trnsctrl.obj
 0002:0000b528       $unwind$?state_case_size@?$output_processor@_WV?$string_output_adapter@_W@__crt_stdio_output@@V?$standard_base@_WV?$string_output_adapter@_W@__crt_stdio_output@@@2@@__crt_stdio_output@@AEAA_NXZ 0000000180037528     libucrt:output.obj
 0002:0000b528       $unwind$__vcrt_thread_attach 0000000180037528     libvcruntime:initialization.obj
 0002:0000b528       $unwind$?state_case_size@?$output_processor@_WV?$stream_output_adapter@_W@__crt_stdio_output@@V?$standard_base@_WV?$stream_output_adapter@_W@__crt_stdio_output@@@2@@__crt_stdio_output@@AEAA_NXZ 0000000180037528     libucrt:output.obj
 0002:0000b528       $unwind$__scrt_dllmain_before_initialize_c 0000000180037528     LIBCMT:utility.obj
 0002:0000b528       $unwind$?deallocate@?$_Wrap_alloc@V?$allocator@PEAUInputDescriptor@sharp@@@std@@@std@@QEAAXPEAPEAUInputDescriptor@sharp@@_K@Z 0000000180037528     pipeline.obj
 0002:0000b528       $unwind$__vcrt_uninitialize_critical 0000000180037528     libvcruntime:initialization.obj
 0002:0000b528       $unwind$__acrt_uninitialize_critical 0000000180037528     libucrt:initialization.obj
 0002:0000b528       $unwind$__acrt_thread_attach 0000000180037528     libucrt:initialization.obj
 0002:0000b528       $unwind$__report_rangecheckfailure 0000000180037528     LIBCMT:gs_report.obj
 0002:0000b528       $unwind$__acrt_DownlevelLocaleNameToLCID 0000000180037528     libucrt:lcidtoname_downlevel.obj
 0002:0000b528       $unwind$__acrt_thread_detach 0000000180037528     libucrt:initialization.obj
 0002:0000b528       $unwind$initialize_c       0000000180037528     libucrt:initialization.obj
 0002:0000b528       $unwind$__vcrt_uninitialize 0000000180037528     libvcruntime:initialization.obj
 0002:0000b528       $unwind$__vcrt_initialize  0000000180037528     libvcruntime:initialization.obj
 0002:0000b528       $unwind$_stricmp           0000000180037528     libucrt:stricmp.obj
 0002:0000b528       $unwind$uninitialize_environment 0000000180037528     libucrt:initialization.obj
 0002:0000b528       $unwind$__pctype_func      0000000180037528     libucrt:ctype.obj
 0002:0000b528       $unwind$?_Reserve@?$vector@PEAUInputDescriptor@sharp@@V?$allocator@PEAUInputDescriptor@sharp@@@std@@@std@@IEAAX_K@Z 0000000180037528     pipeline.obj
 0002:0000b528       $unwind$?initialize_multibyte@@YAHXZ 0000000180037528     libucrt:multibyte_initializer.obj
 0002:0000b528       $unwind$?_Reserve@?$vector@NV?$allocator@N@std@@@std@@IEAAX_K@Z 0000000180037528     pipeline.obj
 0002:0000b530       $unwind$??$?HDU?$char_traits@D@std@@V?$allocator@D@1@@std@@YA?AV?$basic_string@DU?$char_traits@D@std@@V?$allocator@D@2@@0@$$QEAV10@AEBV10@@Z 0000000180037530     pipeline.obj
 0002:0000b530       $unwind$??$?HDU?$char_traits@D@std@@V?$allocator@D@1@@std@@YA?AV?$basic_string@DU?$char_traits@D@std@@V?$allocator@D@2@@0@$$QEAV10@PEBD@Z 0000000180037530     pipeline.obj
 0002:0000b530       $unwind$?to_string@std@@YA?AV?$basic_string@DU?$char_traits@D@std@@V?$allocator@D@2@@1@H@Z 0000000180037530     common.obj
 0002:0000b530       $unwind$??$common_xtox_s@K_W@@YAHKQEA_W_KI_N@Z 0000000180037530     libucrt:xtoa.obj
 0002:0000b530       $unwind$wcstol             0000000180037530     libucrt:strtox.obj
 0002:0000b530       $unwind$??0out_of_range@std@@QEAA@PEBD@Z 0000000180037530     libcpmt:xthrow.obj
 0002:0000b530       $unwind$??0length_error@std@@QEAA@PEBD@Z 0000000180037530     libcpmt:xthrow.obj
 0002:0000b530       $unwind$??$make_tuple@AEAVVImage@vips@@AEAW4ImageType@sharp@@@std@@YA?AV?$tuple@VVImage@vips@@W4ImageType@sharp@@@0@AEAVVImage@vips@@AEAW4ImageType@sharp@@@Z 0000000180037530     common.obj
 0002:0000b538       $unwind$?Get@Nan@@YA?AV?$MaybeLocal@VValue@v8@@@v8@@V?$Local@VObject@v8@@@3@V?$Local@VValue@v8@@@3@@Z 0000000180037538     common.obj
 0002:0000b54c       $stateUnwindMap$?convert@?$ToFactory@VUint32@v8@@@imp@Nan@@SA?AV?$MaybeLocal@VUint32@v8@@@v8@@V?$Local@VValue@v8@@@5@@Z 000000018003754c     metadata.obj
 0002:0000b54c       $stateUnwindMap$?Get@Nan@@YA?AV?$MaybeLocal@VValue@v8@@@v8@@V?$Local@VObject@v8@@@3@I@Z 000000018003754c     pipeline.obj
 0002:0000b54c       $stateUnwindMap$?convert@?$ToFactory@VInteger@v8@@@imp@Nan@@SA?AV?$MaybeLocal@VInteger@v8@@@v8@@V?$Local@VValue@v8@@@5@@Z 000000018003754c     utilities.obj
 0002:0000b54c       $stateUnwindMap$?Get@Nan@@YA?AV?$MaybeLocal@VValue@v8@@@v8@@V?$Local@VObject@v8@@@3@V?$Local@VValue@v8@@@3@@Z 000000018003754c     common.obj
 0002:0000b54c       $stateUnwindMap$?NewInstance@Nan@@YA?AV?$MaybeLocal@VObject@v8@@@v8@@V?$Local@VObjectTemplate@v8@@@3@@Z 000000018003754c     sharp.obj
 0002:0000b54c       $stateUnwindMap$?GetFunction@Nan@@YA?AV?$MaybeLocal@VFunction@v8@@@v8@@V?$Local@VFunctionTemplate@v8@@@3@@Z 000000018003754c     sharp.obj
 0002:0000b558       $ip2state$?Get@Nan@@YA?AV?$MaybeLocal@VValue@v8@@@v8@@V?$Local@VObject@v8@@@3@V?$Local@VValue@v8@@@3@@Z 0000000180037558     common.obj
 0002:0000b570       $unwind$?Has@Nan@@YA?AV?$Maybe@_N@v8@@V?$Local@VObject@v8@@@3@V?$Local@VString@v8@@@3@@Z 0000000180037570     common.obj
 0002:0000b588       $stateUnwindMap$?convert@?$ToFactory@I@imp@Nan@@SA?AV?$Maybe@I@v8@@V?$Local@VValue@v8@@@5@@Z 0000000180037588     common.obj
 0002:0000b588       $stateUnwindMap$?convert@?$ToFactory@N@imp@Nan@@SA?AV?$Maybe@N@v8@@V?$Local@VValue@v8@@@5@@Z 0000000180037588     pipeline.obj
 0002:0000b588       $stateUnwindMap$?convert@?$ToFactory@H@imp@Nan@@SA?AV?$Maybe@H@v8@@V?$Local@VValue@v8@@@5@@Z 0000000180037588     pipeline.obj
 0002:0000b588       $stateUnwindMap$?Has@Nan@@YA?AV?$Maybe@_N@v8@@V?$Local@VObject@v8@@@3@V?$Local@VString@v8@@@3@@Z 0000000180037588     common.obj
 0002:0000b588       $stateUnwindMap$?convert@?$ToFactory@_N@imp@Nan@@SA?AV?$Maybe@_N@v8@@V?$Local@VValue@v8@@@5@@Z 0000000180037588     pipeline.obj
 0002:0000b590       $ip2state$?Has@Nan@@YA?AV?$Maybe@_N@v8@@V?$Local@VObject@v8@@@3@V?$Local@VString@v8@@@3@@Z 0000000180037590     common.obj
 0002:0000b5a8       $unwind$?convert@?$ToFactory@I@imp@Nan@@SA?AV?$Maybe@I@v8@@V?$Local@VValue@v8@@@5@@Z 00000001800375a8     common.obj
 0002:0000b5c0       $ip2state$?convert@?$ToFactory@I@imp@Nan@@SA?AV?$Maybe@I@v8@@V?$Local@VValue@v8@@@5@@Z 00000001800375c0     common.obj
 0002:0000b5d8       $unwind$?New@Nan@@YA?AV?$MaybeLocal@VString@v8@@@v8@@AEBV?$basic_string@DU?$char_traits@D@std@@V?$allocator@D@2@@std@@@Z 00000001800375d8     common.obj
 0002:0000b5d8       $unwind$?getSystemCP@@YAHH@Z 00000001800375d8     libucrt:mbctype.obj
 0002:0000b5d8       $unwind$_isleadbyte_l      00000001800375d8     libucrt:_wctype.obj
 0002:0000b5d8       $unwind$isdigit            00000001800375d8     libucrt:_ctype.obj
 0002:0000b5e0       $unwind$??0Utf8String@Nan@@QEAA@V?$Local@VValue@v8@@@v8@@@Z 00000001800375e0     common.obj
 0002:0000b5f4       $stateUnwindMap$??0Utf8String@Nan@@QEAA@V?$Local@VValue@v8@@@v8@@@Z 00000001800375f4     common.obj
 0002:0000b5f4       $stateUnwindMap$?ThrowError@Nan@@YAXPEBD@Z 00000001800375f4     utilities.obj
 0002:0000b5f4       $stateUnwindMap$?Call_@Callback@Nan@@AEBA?AV?$Local@VValue@v8@@@v8@@PEAVIsolate@4@V?$Local@VObject@v8@@@4@HQEAV34@@Z 00000001800375f4     metadata.obj
 0002:0000b5f4       $stateUnwindMap$?Error@Nan@@YA?AV?$Local@VValue@v8@@@v8@@PEBD@Z 00000001800375f4     metadata.obj
 0002:0000b5f4       $stateUnwindMap$?HandleErrorCallback@AsyncWorker@Nan@@MEAAXXZ 00000001800375f4     metadata.obj
 0002:0000b600       $ip2state$??0Utf8String@Nan@@QEAA@V?$Local@VValue@v8@@@v8@@@Z 0000000180037600     common.obj
 0002:0000b618       $unwind$?HasAttr@sharp@@YA_NV?$Local@VObject@v8@@@v8@@V?$basic_string@DU?$char_traits@D@std@@V?$allocator@D@2@@std@@@Z 0000000180037618     common.obj
 0002:0000b630       $stateUnwindMap$??$AttrAs@VObject@v8@@@sharp@@YA?AV?$Local@VObject@v8@@@v8@@V12@V?$basic_string@DU?$char_traits@D@std@@V?$allocator@D@2@@std@@@Z 0000000180037630     common.obj
 0002:0000b630       $stateUnwindMap$??$AttrAs@VArray@v8@@@sharp@@YA?AV?$Local@VArray@v8@@@v8@@V?$Local@VObject@v8@@@2@V?$basic_string@DU?$char_traits@D@std@@V?$allocator@D@2@@std@@@Z 0000000180037630     pipeline.obj
 0002:0000b630       $stateUnwindMap$??$New@VString@v8@@V?$basic_string@DU?$char_traits@D@std@@V?$allocator@D@2@@std@@@Nan@@YA?AV?$MaybeLocal@VString@v8@@@v8@@V?$basic_string@DU?$char_traits@D@std@@V?$allocator@D@2@@std@@@Z 0000000180037630     common.obj
 0002:0000b630       $stateUnwindMap$??$AttrAs@VFunction@v8@@@sharp@@YA?AV?$Local@VFunction@v8@@@v8@@V?$Local@VObject@v8@@@2@V?$basic_string@DU?$char_traits@D@std@@V?$allocator@D@2@@std@@@Z 0000000180037630     pipeline.obj
 0002:0000b630       $stateUnwindMap$?HasAttr@sharp@@YA_NV?$Local@VObject@v8@@@v8@@V?$basic_string@DU?$char_traits@D@std@@V?$allocator@D@2@@std@@@Z 0000000180037630     common.obj
 0002:0000b638       $ip2state$?HasAttr@sharp@@YA_NV?$Local@VObject@v8@@@v8@@V?$basic_string@DU?$char_traits@D@std@@V?$allocator@D@2@@std@@@Z 0000000180037638     common.obj
 0002:0000b650       $unwind$?AttrAsStr@sharp@@YA?AV?$basic_string@DU?$char_traits@D@std@@V?$allocator@D@2@@std@@V?$Local@VObject@v8@@@v8@@V23@@Z 0000000180037650     common.obj
 0002:0000b670       $stateUnwindMap$?AttrAsStr@sharp@@YA?AV?$basic_string@DU?$char_traits@D@std@@V?$allocator@D@2@@std@@V?$Local@VObject@v8@@@v8@@V23@@Z 0000000180037670     common.obj
 0002:0000b680       $ip2state$?AttrAsStr@sharp@@YA?AV?$basic_string@DU?$char_traits@D@std@@V?$allocator@D@2@@std@@V?$Local@VObject@v8@@@v8@@V23@@Z 0000000180037680     common.obj
 0002:0000b6a8       $unwind$?CreateInputDescriptor@sharp@@YAPEAUInputDescriptor@1@V?$Local@VObject@v8@@@v8@@V?$vector@V?$Local@VObject@v8@@@v8@@V?$allocator@V?$Local@VObject@v8@@@v8@@@std@@@std@@@Z 00000001800376a8     common.obj
 0002:0000b6c8       $stateUnwindMap$?CreateInputDescriptor@sharp@@YAPEAUInputDescriptor@1@V?$Local@VObject@v8@@@v8@@V?$vector@V?$Local@VObject@v8@@@v8@@V?$allocator@V?$Local@VObject@v8@@@v8@@@std@@@std@@@Z 00000001800376c8     common.obj
 0002:0000b6d8       $ip2state$?CreateInputDescriptor@sharp@@YAPEAUInputDescriptor@1@V?$Local@VObject@v8@@@v8@@V?$vector@V?$Local@VObject@v8@@@v8@@V?$allocator@V?$Local@VObject@v8@@@v8@@@std@@@std@@@Z 00000001800376d8     common.obj
 0002:0000b700       $unwind$__acrt_uninitialize_lowio 0000000180037700     libucrt:ioinit.obj
 0002:0000b700       $unwind$__vcrt_FlsGetValue 0000000180037700     libvcruntime:winapi_downlevel.obj
 0002:0000b700       $unwind$?DloadAcquireSectionWriteAccess@@YAXXZ 0000000180037700     DelayImp:delayhlp.obj
 0002:0000b700       $unwind$??_GPipelineWorker@@UEAAPEAXI@Z 0000000180037700     pipeline.obj
 0002:0000b700       $unwind$?force_decimal_point@__crt_stdio_output@@YAXPEADQEAU__crt_locale_pointers@@@Z 0000000180037700     libucrt:output.obj
 0002:0000b700       $unwind$??$?0AEAY0M@$$CBDV?$basic_string@DU?$char_traits@D@std@@V?$allocator@D@2@@std@@X$0A@@?$pair@V?$basic_string@DU?$char_traits@D@std@@V?$allocator@D@2@@std@@V12@@std@@QEAA@AEAY0M@$$CBD$$QEAV?$basic_string@DU?$char_traits@D@std@@V?$allocator@D@2@@1@@Z 0000000180037700     pipeline.obj
 0002:0000b700       $unwind$__vcrt_FlsFree     0000000180037700     libvcruntime:winapi_downlevel.obj
 0002:0000b700       $unwind$__acrt_getptd      0000000180037700     libucrt:per_thread_data.obj
 0002:0000b700       $unwind$_updatetlocinfoEx_nolock 0000000180037700     libucrt:locale_refcounting.obj
 0002:0000b700       $unwind$?DloadGetSRWLockFunctionPointers@@YAEXZ 0000000180037700     DelayImp:delayhlp.obj
 0002:0000b700       $unwind$??$?8DU?$char_traits@D@std@@V?$allocator@D@1@@std@@YA_NAEBV?$basic_string@DU?$char_traits@D@std@@V?$allocator@D@2@@0@0@Z 0000000180037700     pipeline.obj
 0002:0000b700       $unwind$?erase@?$basic_string@DU?$char_traits@D@std@@V?$allocator@D@2@@std@@QEAAAEAV12@_K0@Z 0000000180037700     common.obj
 0002:0000b700       $unwind$?EndsWith@sharp@@YA_NAEBV?$basic_string@DU?$char_traits@D@std@@V?$allocator@D@2@@std@@0@Z 0000000180037700     common.obj
 0002:0000b700       $unwind$??$?0AEAY01$$CBDV?$basic_string@DU?$char_traits@D@std@@V?$allocator@D@2@@std@@X$0A@@?$pair@V?$basic_string@DU?$char_traits@D@std@@V?$allocator@D@2@@std@@V12@@std@@QEAA@AEAY01$$CBD$$QEAV?$basic_string@DU?$char_traits@D@std@@V?$allocator@D@2@@1@@Z 0000000180037700     pipeline.obj
 0002:0000b700       $unwind$_fclose_nolock     0000000180037700     libucrt:fclose.obj
 0002:0000b700       $unwind$??$?0AEAY07$$CBDV?$basic_string@DU?$char_traits@D@std@@V?$allocator@D@2@@std@@X$0A@@?$pair@V?$basic_string@DU?$char_traits@D@std@@V?$allocator@D@2@@std@@V12@@std@@QEAA@AEAY07$$CBD$$QEAV?$basic_string@DU?$char_traits@D@std@@V?$allocator@D@2@@1@@Z 0000000180037700     pipeline.obj
 0002:0000b700       $unwind$??_Gout_of_range@std@@UEAAPEAXI@Z 0000000180037700     libcpmt:xthrow.obj
 0002:0000b700       $unwind$?internal_isupper_l@@YA_NHQEAU__crt_locale_pointers@@@Z 0000000180037700     libucrt:tolower_toupper.obj
 0002:0000b700       $unwind$??_Gbad_alloc@std@@UEAAPEAXI@Z 0000000180037700     libcpmt:xthrow.obj
 0002:0000b700       $unwind$?ExFilterRethrow@@YAHPEAU_EXCEPTION_POINTERS@@PEAUEHExceptionRecord@@PEAH@Z 0000000180037700     libvcruntime:frame.obj
 0002:0000b700       $unwind$__acrt_stdio_begin_temporary_buffering_nolock 0000000180037700     libucrt:_sftbuf.obj
 0002:0000b700       $unwind$??$common_initialize_environment_nolock@D@@YAHXZ 0000000180037700     libucrt:environment_initialization.obj
 0002:0000b700       $unwind$__acrt_FlsGetValue 0000000180037700     libucrt:winapi_thunks.obj
 0002:0000b700       $unwind$?push_back@?$vector@PEAUInputDescriptor@sharp@@V?$allocator@PEAUInputDescriptor@sharp@@@std@@@std@@QEAAX$$QEAPEAUInputDescriptor@sharp@@@Z 0000000180037700     pipeline.obj
 0002:0000b700       $unwind$??0_LocaleUpdate@@QEAA@QEAU__crt_locale_pointers@@@Z 0000000180037700     libucrt:stricmp.obj
 0002:0000b700       $unwind$??_GMetadataWorker@@UEAAPEAXI@Z 0000000180037700     metadata.obj
 0002:0000b700       $unwind$__acrt_FlsFree     0000000180037700     libucrt:winapi_thunks.obj
 0002:0000b700       $unwind$?try_cor_exit_process@@YAXI@Z 0000000180037700     libucrt:exit.obj
 0002:0000b700       $unwind$??_Gbad_exception@std@@UEAAPEAXI@Z 0000000180037700     libvcruntime:frame.obj
 0002:0000b700       $unwind$??_Glogic_error@std@@UEAAPEAXI@Z 0000000180037700     libcpmt:xthrow.obj
 0002:0000b700       $unwind$??_Gexception@std@@UEAAPEAXI@Z 0000000180037700     libcpmt:xthrow.obj
 0002:0000b700       $unwind$??$common_xtox@K_W@@YAHKQEA_W_KI_N@Z 0000000180037700     libucrt:xtoa.obj
 0002:0000b700       $unwind$strncpy_s          0000000180037700     libucrt:strncpy_s.obj
 0002:0000b700       $unwind$?_Buy@?$vector@U?$pair@V?$basic_string@DU?$char_traits@D@std@@V?$allocator@D@2@@std@@V12@@std@@V?$allocator@U?$pair@V?$basic_string@DU?$char_traits@D@std@@V?$allocator@D@2@@std@@V12@@std@@@2@@std@@IEAA_N_K@Z 0000000180037700     pipeline.obj
 0002:0000b700       $unwind$__acrt_invoke_user_matherr 0000000180037700     libucrt:matherr.obj
 0002:0000b700       $unwind$wcsncat_s          0000000180037700     libucrt:wcsncat_s.obj
 0002:0000b700       $unwind$__acrt_errno_map_os_error 0000000180037700     libucrt:errno.obj
 0002:0000b700       $unwind$_close_nolock      0000000180037700     libucrt:close.obj
 0002:0000b700       $unwind$_realloc_base      0000000180037700     libucrt:realloc_base.obj
 0002:0000b700       $unwind$_callnewh          0000000180037700     libucrt:new_handler.obj
 0002:0000b700       $unwind$?replace_current_thread_locale_nolock@@YAXQEAU__acrt_ptd@@QEAU__crt_locale_data@@@Z 0000000180037700     libucrt:per_thread_data.obj
 0002:0000b700       $unwind$??_Gbad_array_new_length@std@@UEAAPEAXI@Z 0000000180037700     LIBCMT:throw_bad_alloc.obj
 0002:0000b700       $unwind$__acrt_FlsAlloc    0000000180037700     libucrt:winapi_thunks.obj
 0002:0000b700       $unwind$??4?$basic_string@DU?$char_traits@D@std@@V?$allocator@D@2@@std@@QEAAAEAV01@$$QEAV01@@Z 0000000180037700     common.obj
 0002:0000b700       $unwind$?_Assign_rv@?$basic_string@DU?$char_traits@D@std@@V?$allocator@D@2@@std@@QEAAX$$QEAV12@@Z 0000000180037700     common.obj
 0002:0000b700       $unwind$__vcrt_FlsAlloc    0000000180037700     libvcruntime:winapi_downlevel.obj
 0002:0000b700       $unwind$_FindAndUnlinkFrame 0000000180037700     libvcruntime:trnsctrl.obj
 0002:0000b700       $unwind$?__SetUnwindTryBlock@@YAXPEA_KPEAU_xDISPATCHER_CONTEXT@@PEBU_s_FuncInfo@@H@Z 0000000180037700     libvcruntime:ehstate.obj
 0002:0000b700       $unwind$__acrt_get_parent_window 0000000180037700     libucrt:winapi_thunks.obj
 0002:0000b700       $unwind$??_GAsyncWorker@Nan@@UEAAPEAXI@Z 0000000180037700     metadata.obj
 0002:0000b700       $unwind$??_Glength_error@std@@UEAAPEAXI@Z 0000000180037700     libcpmt:xthrow.obj
 0002:0000b700       $unwind$??_Gbad_function_call@std@@UEAAPEAXI@Z 0000000180037700     libcpmt:xthrow.obj
 0002:0000b70c       $unwind$?IsJpeg@sharp@@YA_NAEBV?$basic_string@DU?$char_traits@D@std@@V?$allocator@D@2@@std@@@Z 000000018003770c     common.obj
 0002:0000b734       $stateUnwindMap$?IsJpeg@sharp@@YA_NAEBV?$basic_string@DU?$char_traits@D@std@@V?$allocator@D@2@@std@@@Z 0000000180037734     common.obj
 0002:0000b734       $stateUnwindMap$?IsV@sharp@@YA_NAEBV?$basic_string@DU?$char_traits@D@std@@V?$allocator@D@2@@std@@@Z 0000000180037734     common.obj
 0002:0000b734       $stateUnwindMap$?IsDzZip@sharp@@YA_NAEBV?$basic_string@DU?$char_traits@D@std@@V?$allocator@D@2@@std@@@Z 0000000180037734     common.obj
 0002:0000b734       $stateUnwindMap$?IsTiff@sharp@@YA_NAEBV?$basic_string@DU?$char_traits@D@std@@V?$allocator@D@2@@std@@@Z 0000000180037734     common.obj
 0002:0000b760       $ip2state$?IsJpeg@sharp@@YA_NAEBV?$basic_string@DU?$char_traits@D@std@@V?$allocator@D@2@@std@@@Z 0000000180037760     common.obj
 0002:0000b7a8       $unwind$?dtor$13@?0??DetermineImageType@sharp@@YA?AW4ImageType@1@PEBD@Z@4HA 00000001800377a8     common.obj
 0002:0000b7a8       $unwind$?dtor$12@?0??DetermineImageType@sharp@@YA?AW4ImageType@1@PEBD@Z@4HA 00000001800377a8     common.obj
 0002:0000b7a8       $unwind$?dtor$2@?0??IsV@sharp@@YA_NAEBV?$basic_string@DU?$char_traits@D@std@@V?$allocator@D@2@@std@@@Z@4HA 00000001800377a8     common.obj
 0002:0000b7a8       $unwind$?dtor$0@?0???$_Uninitialized_copy_al_unchecked1@PEBU?$pair@V?$basic_string@DU?$char_traits@D@std@@V?$allocator@D@2@@std@@V12@@std@@PEAU12@V?$allocator@U?$pair@V?$basic_string@DU?$char_traits@D@std@@V?$allocator@D@2@@std@@V12@@std@@@2@@std@@YAPEAU?$pair@V?$basic_string@DU?$char_traits@D@std@@V?$allocator@D@2@@std@@V12@@0@PEBU10@0PEAU10@AEAU?$_Wrap_alloc@V?$allocator@U?$pair@V?$basic_string@DU?$char_traits@D@std@@V?$allocator@D@2@@std@@V12@@std@@@std@@@0@U_General_ptr_iterator_tag@0@U_Any_tag@0@@Z@4HA 00000001800377a8     pipeline.obj
 0002:0000b7a8       $unwind$?dtor$0@?0??IsWebp@sharp@@YA_NAEBV?$basic_string@DU?$char_traits@D@std@@V?$allocator@D@2@@std@@@Z@4HA 00000001800377a8     common.obj
 0002:0000b7a8       $unwind$_query_new_handler$fin$0 00000001800377a8     libucrt:new_handler.obj
 0002:0000b7a8       $unwind$?dtor$3@?0??IsV@sharp@@YA_NAEBV?$basic_string@DU?$char_traits@D@std@@V?$allocator@D@2@@std@@@Z@4HA 00000001800377a8     common.obj
 0002:0000b7a8       $unwind$__CxxCallCatchBlock$filt$0 00000001800377a8     libvcruntime:frame.obj
 0002:0000b7a8       $unwind$?dtor$0@?0??IsDzZip@sharp@@YA_NAEBV?$basic_string@DU?$char_traits@D@std@@V?$allocator@D@2@@std@@@Z@4HA 00000001800377a8     common.obj
 0002:0000b7a8       $unwind$?dtor$1@?0??IsDzZip@sharp@@YA_NAEBV?$basic_string@DU?$char_traits@D@std@@V?$allocator@D@2@@std@@@Z@4HA 00000001800377a8     common.obj
 0002:0000b7a8       $unwind$?fin$0@?0???$?RV<lambda_99476a1ad63dd22509b5d3e65b0ffc95>@@AEAV<lambda_ad1ced32f4ac17aa236e5ef05d6b3b7c>@@V<lambda_f7424dd8d45958661754dc4f2697e9c3>@@@?$__crt_seh_guarded_call@X@@QEAAX$$QEAV<lambda_99476a1ad63dd22509b5d3e65b0ffc95>@@AEAV<lambda_ad1ced32f4ac17aa236e5ef05d6b3b7c>@@$$QEAV<lambda_f7424dd8d45958661754dc4f2697e9c3>@@@Z@4HA 00000001800377a8     libucrt:mbctype.obj
 0002:0000b7a8       $unwind$?dtor$1@?0??IsWebp@sharp@@YA_NAEBV?$basic_string@DU?$char_traits@D@std@@V?$allocator@D@2@@std@@@Z@4HA 00000001800377a8     common.obj
 0002:0000b7a8       $unwind$?dtor$2@?0??IsDzZip@sharp@@YA_NAEBV?$basic_string@DU?$char_traits@D@std@@V?$allocator@D@2@@std@@@Z@4HA 00000001800377a8     common.obj
 0002:0000b7a8       $unwind$?dtor$3@?0??IsDzZip@sharp@@YA_NAEBV?$basic_string@DU?$char_traits@D@std@@V?$allocator@D@2@@std@@@Z@4HA 00000001800377a8     common.obj
 0002:0000b7a8       $unwind$?dtor$0@?0???$?HDU?$char_traits@D@std@@V?$allocator@D@1@@std@@YA?AV?$basic_string@DU?$char_traits@D@std@@V?$allocator@D@2@@0@AEBV10@PEBD@Z@4HA 00000001800377a8     pipeline.obj
 0002:0000b7a8       $unwind$?fin$0@?0??dllmain_crt_process_detach@@YAH_N@Z@4HA 00000001800377a8     LIBCMT:dll_dllmain.obj
 0002:0000b7a8       $unwind$_write$fin$0       00000001800377a8     libucrt:write.obj
 0002:0000b7a8       $unwind$__FrameUnwindToState$filt$0 00000001800377a8     libvcruntime:frame.obj
 0002:0000b7a8       $unwind$?fin$0@?0???_M@YAXPEAX_K1P6AX0@Z@Z@4HA 00000001800377a8     LIBCMT:ehvecdtr.obj
 0002:0000b7a8       $unwind$__FrameUnwindToState$fin$1 00000001800377a8     libvcruntime:frame.obj
 0002:0000b7a8       $unwind$?dtor$0@?0??IsV@sharp@@YA_NAEBV?$basic_string@DU?$char_traits@D@std@@V?$allocator@D@2@@std@@@Z@4HA 00000001800377a8     common.obj
 0002:0000b7a8       $unwind$?fin$0@?0??dllmain_crt_process_attach@@YAHQEAUHINSTANCE__@@QEAX@Z@4HA 00000001800377a8     LIBCMT:dll_dllmain.obj
 0002:0000b7a8       $unwind$_IsNonwritableInCurrentImage$filt$0 00000001800377a8     LIBCMT:pesect.obj
 0002:0000b7a8       $unwind$?fin$0@?0???$common_lseek@_J@@YA_JH_JH@Z@4HA 00000001800377a8     libucrt:lseek.obj
 0002:0000b7a8       $unwind$?fin$1@?0??common_exit@@YAXHW4_crt_exit_cleanup_mode@@W4_crt_exit_return_mode@@@Z@4HA 00000001800377a8     libucrt:exit.obj
 0002:0000b7a8       $unwind$?dtor$0@?0??IsDz@sharp@@YA_NAEBV?$basic_string@DU?$char_traits@D@std@@V?$allocator@D@2@@std@@@Z@4HA 00000001800377a8     common.obj
 0002:0000b7a8       $unwind$?dtor$2@?0??IsTiff@sharp@@YA_NAEBV?$basic_string@DU?$char_traits@D@std@@V?$allocator@D@2@@std@@@Z@4HA 00000001800377a8     common.obj
 0002:0000b7a8       $unwind$?dtor$1@?0??IsDz@sharp@@YA_NAEBV?$basic_string@DU?$char_traits@D@std@@V?$allocator@D@2@@std@@@Z@4HA 00000001800377a8     common.obj
 0002:0000b7a8       $unwind$?fin$0@?0???$?RV<lambda_7a5ef57ff966f610505f1d28a3d40618>@@AEAV<lambda_b721fa326cdb32351d23dfa67958c160>@@V<lambda_5e0fb27672408a07956fe59e48ccb2aa>@@@?$__crt_seh_guarded_call@H@@QEAAH$$QEAV<lambda_7a5ef57ff966f610505f1d28a3d40618>@@AEAV<lambda_b721fa326cdb32351d23dfa67958c160>@@$$QEAV<lambda_5e0fb27672408a07956fe59e48ccb2aa>@@@Z@4HA 00000001800377a8     libucrt:setvbuf.obj
 0002:0000b7a8       $unwind$?fin$0@?0???$?RV<lambda_c36588078e9f5dfd39652860aa6b3aaf>@@AEAV<lambda_ec61778202f4f5fc7e7711acc23c3bca>@@V<lambda_dc9d2797ccde5d239b4a0efae8ebd7db>@@@?$__crt_seh_guarded_call@P6AXH@Z@@QEAAP6AXH@Z$$QEAV<lambda_c36588078e9f5dfd39652860aa6b3aaf>@@AEAV<lambda_ec61778202f4f5fc7e7711acc23c3bca>@@$$QEAV<lambda_dc9d2797ccde5d239b4a0efae8ebd7db>@@@Z@4HA 00000001800377a8     libucrt:signal.obj
 0002:0000b7a8       $unwind$raise$fin$0        00000001800377a8     libucrt:signal.obj
 0002:0000b7a8       $unwind$?filt$0@?0??__ArrayUnwind@@YAXPEAX_K1P6AX0@Z@Z@4HA 00000001800377a8     LIBCMT:ehvecdtr.obj
 0002:0000b7a8       $unwind$_ctrlfp$filt$0     00000001800377a8     libucrt:fpctrl.obj
 0002:0000b7a8       $unwind$__acrt_initialize_lowio$fin$0 00000001800377a8     libucrt:ioinit.obj
 0002:0000b7a8       $unwind$__acrt_update_thread_multibyte_data$fin$0 00000001800377a8     libucrt:mbctype.obj
 0002:0000b7a8       $unwind$?dtor$0@?0???$?HDU?$char_traits@D@std@@V?$allocator@D@1@@std@@YA?AV?$basic_string@DU?$char_traits@D@std@@V?$allocator@D@2@@0@PEBDAEBV10@@Z@4HA 00000001800377a8     pipeline.obj
 0002:0000b7a8       $unwind$__acrt_update_thread_locale_data$fin$0 00000001800377a8     libucrt:locale_refcounting.obj
 0002:0000b7a8       $unwind$common_control87$filt$0 00000001800377a8     libucrt:ieee.obj
 0002:0000b7a8       $unwind$?dtor$1@?0??pipeline@@YAXAEBV?$FunctionCallbackInfo@VValue@v8@@@Nan@@@Z@4HA 00000001800377a8     pipeline.obj
 0002:0000b7a8       $unwind$?dtor$107@?0??pipeline@@YAXAEBV?$FunctionCallbackInfo@VValue@v8@@@Nan@@@Z@4HA 00000001800377a8     pipeline.obj
 0002:0000b7a8       $unwind$?dtor$109@?0??pipeline@@YAXAEBV?$FunctionCallbackInfo@VValue@v8@@@Nan@@@Z@4HA 00000001800377a8     pipeline.obj
 0002:0000b7a8       $unwind$?dtor$0@?0??IsPng@sharp@@YA_NAEBV?$basic_string@DU?$char_traits@D@std@@V?$allocator@D@2@@std@@@Z@4HA 00000001800377a8     common.obj
 0002:0000b7a8       $unwind$?dtor$1@?0??IsPng@sharp@@YA_NAEBV?$basic_string@DU?$char_traits@D@std@@V?$allocator@D@2@@std@@@Z@4HA 00000001800377a8     common.obj
 0002:0000b7a8       $unwind$?dtor$3@?0??IsTiff@sharp@@YA_NAEBV?$basic_string@DU?$char_traits@D@std@@V?$allocator@D@2@@std@@@Z@4HA 00000001800377a8     common.obj
 0002:0000b7a8       $unwind$?dtor$110@?0??pipeline@@YAXAEBV?$FunctionCallbackInfo@VValue@v8@@@Nan@@@Z@4HA 00000001800377a8     pipeline.obj
 0002:0000b7a8       $unwind$?fin$0@?0???$?RV<lambda_7b91131dde12e1c3dfc74ff76b3f2eac>@@AEAV<lambda_dd75445284c072d0bd3768540cc698fa>@@V<lambda_16bc4ecb55b4718497c16bceaea2ceaf>@@@?$__crt_seh_guarded_call@H@@QEAAH$$QEAV<lambda_7b91131dde12e1c3dfc74ff76b3f2eac>@@AEAV<lambda_dd75445284c072d0bd3768540cc698fa>@@$$QEAV<lambda_16bc4ecb55b4718497c16bceaea2ceaf>@@@Z@4HA 00000001800377a8     libucrt:output.obj
 0002:0000b7a8       $unwind$__acrt_lowio_ensure_fh_exists$fin$0 00000001800377a8     libucrt:osfinfo.obj
 0002:0000b7a8       $unwind$?fin$0@?0???$?RV<lambda_fb3a7dec4e47f37f22dae91bb15c9095>@@AEAV<lambda_698284760c8add0bfb0756c19673e34b>@@V<lambda_dfb8eca1e75fef3034a8fb18dd509707>@@@?$__crt_seh_guarded_call@X@@QEAAX$$QEAV<lambda_fb3a7dec4e47f37f22dae91bb15c9095>@@AEAV<lambda_698284760c8add0bfb0756c19673e34b>@@$$QEAV<lambda_dfb8eca1e75fef3034a8fb18dd509707>@@@Z@4HA 00000001800377a8     libucrt:per_thread_data.obj
 0002:0000b7a8       $unwind$fflush$fin$0       00000001800377a8     libucrt:fflush.obj
 0002:0000b7a8       $unwind$?dtor$1@?0??IsJpeg@sharp@@YA_NAEBV?$basic_string@DU?$char_traits@D@std@@V?$allocator@D@2@@std@@@Z@4HA 00000001800377a8     common.obj
 0002:0000b7a8       $unwind$?fin$0@?0???$?RV<lambda_46352004c1216016012b18bd6f87e700>@@AEAV<lambda_3bd07e1a1191394380780325891bf33f>@@V<lambda_334532d3f185bcaa59b5be82d7d22bff>@@@?$__crt_seh_guarded_call@X@@QEAAX$$QEAV<lambda_46352004c1216016012b18bd6f87e700>@@AEAV<lambda_3bd07e1a1191394380780325891bf33f>@@$$QEAV<lambda_334532d3f185bcaa59b5be82d7d22bff>@@@Z@4HA 00000001800377a8     libucrt:per_thread_data.obj
 0002:0000b7a8       $unwind$?dtor$0@?0??IsTiff@sharp@@YA_NAEBV?$basic_string@DU?$char_traits@D@std@@V?$allocator@D@2@@std@@@Z@4HA 00000001800377a8     common.obj
 0002:0000b7a8       $unwind$common_flush_all$fin$0 00000001800377a8     libucrt:fflush.obj
 0002:0000b7a8       $unwind$common_flush_all$fin$1 00000001800377a8     libucrt:fflush.obj
 0002:0000b7a8       $unwind$fclose$fin$0       00000001800377a8     libucrt:fclose.obj
 0002:0000b7a8       $unwind$?dtor$1@?0??IsTiff@sharp@@YA_NAEBV?$basic_string@DU?$char_traits@D@std@@V?$allocator@D@2@@std@@@Z@4HA 00000001800377a8     common.obj
 0002:0000b7a8       $unwind$?dtor$170@?0??Execute@PipelineWorker@@UEAAXXZ@4HA 00000001800377a8     pipeline.obj
 0002:0000b7a8       $unwind$?fin$0@?0???$?RV<lambda_5e887d1dcbef67a5eb4283622ba103bf>@@AEAV<lambda_4466841279450cc726390878d4a41900>@@V<lambda_341c25c0346d94847f1f3c463c57e077>@@@?$__crt_seh_guarded_call@X@@QEAAX$$QEAV<lambda_5e887d1dcbef67a5eb4283622ba103bf>@@AEAV<lambda_4466841279450cc726390878d4a41900>@@$$QEAV<lambda_341c25c0346d94847f1f3c463c57e077>@@@Z@4HA 00000001800377a8     libucrt:per_thread_data.obj
 0002:0000b7a8       $unwind$_fcloseall$fin$0   00000001800377a8     libucrt:closeall.obj
 0002:0000b7a8       $unwind$?fin$0@?0???$?RV<lambda_72d1df2b273a38828b1ce30cbf4cdab5>@@AEAV<lambda_876a65b173b8412d3a47c70a915b0cf4>@@V<lambda_41932305e351933ebe8f8be3ed8bb5dc>@@@?$__crt_seh_guarded_call@X@@QEAAX$$QEAV<lambda_72d1df2b273a38828b1ce30cbf4cdab5>@@AEAV<lambda_876a65b173b8412d3a47c70a915b0cf4>@@$$QEAV<lambda_41932305e351933ebe8f8be3ed8bb5dc>@@@Z@4HA 00000001800377a8     libucrt:per_thread_data.obj
 0002:0000b7a8       $unwind$?fin$0@?0???$?RV<lambda_b8c45f8f788dd370798f47cfe8ac3a86>@@AEAV<lambda_4e60a939b0d047cfe11ddc22648dfba9>@@V<lambda_332c3edc96d0294ec56c57d38c1cdfd5>@@@?$__crt_seh_guarded_call@H@@QEAAH$$QEAV<lambda_b8c45f8f788dd370798f47cfe8ac3a86>@@AEAV<lambda_4e60a939b0d047cfe11ddc22648dfba9>@@$$QEAV<lambda_332c3edc96d0294ec56c57d38c1cdfd5>@@@Z@4HA 00000001800377a8     libucrt:onexit.obj
 0002:0000b7a8       $unwind$?dtor$156@?0??Execute@PipelineWorker@@UEAAXXZ@4HA 00000001800377a8     pipeline.obj
 0002:0000b7a8       $unwind$?fin$0@?0???$?RV<lambda_b521505b218e5242e90febf6bfebc422>@@AEAV<lambda_6978c1fb23f02e42e1d9e99668cc68aa>@@V<lambda_314360699dd331753a4119843814e9a7>@@@?$__crt_seh_guarded_call@H@@QEAAH$$QEAV<lambda_b521505b218e5242e90febf6bfebc422>@@AEAV<lambda_6978c1fb23f02e42e1d9e99668cc68aa>@@$$QEAV<lambda_314360699dd331753a4119843814e9a7>@@@Z@4HA 00000001800377a8     libucrt:commit.obj
 0002:0000b7a8       $unwind$?fin$0@?0???$?RV<lambda_e24bbb7b643b32fcea6fa61b31d4c984>@@AEAV<lambda_275893d493268fdec8709772e3fcec0e>@@V<lambda_9d71df4d7cf3f480f8d633942495c3b0>@@@?$__crt_seh_guarded_call@H@@QEAAH$$QEAV<lambda_e24bbb7b643b32fcea6fa61b31d4c984>@@AEAV<lambda_275893d493268fdec8709772e3fcec0e>@@$$QEAV<lambda_9d71df4d7cf3f480f8d633942495c3b0>@@@Z@4HA 00000001800377a8     libucrt:onexit.obj
 0002:0000b7a8       $unwind$?fin$0@?0???$?RV<lambda_bfedae4ebbf01fab1bb6dcc6a9e276e0>@@AEAV<lambda_2fe9b910cf3cbf4a0ab98a02ba45b3ec>@@V<lambda_237c231691f317818eb88cc1d5d642d6>@@@?$__crt_seh_guarded_call@H@@QEAAH$$QEAV<lambda_bfedae4ebbf01fab1bb6dcc6a9e276e0>@@AEAV<lambda_2fe9b910cf3cbf4a0ab98a02ba45b3ec>@@$$QEAV<lambda_237c231691f317818eb88cc1d5d642d6>@@@Z@4HA 00000001800377a8     libucrt:close.obj
 0002:0000b7a8       $unwind$?dtor$3@?0??IsJpeg@sharp@@YA_NAEBV?$basic_string@DU?$char_traits@D@std@@V?$allocator@D@2@@std@@@Z@4HA 00000001800377a8     common.obj
 0002:0000b7a8       $unwind$?dtor$145@?0??Execute@PipelineWorker@@UEAAXXZ@4HA 00000001800377a8     pipeline.obj
 0002:0000b7a8       $unwind$__acrt_uninitialize_locale$fin$0 00000001800377a8     libucrt:wsetlocale.obj
 0002:0000b7a8       $unwind$?dtor$5@?0??metadata@@YAXAEBV?$FunctionCallbackInfo@VValue@v8@@@Nan@@@Z@4HA 00000001800377a8     metadata.obj
 0002:0000b7a8       $unwind$__DestructExceptionObject$filt$0 00000001800377a8     libvcruntime:frame.obj
 0002:0000b7a8       $unwind$?dtor$2@?0??IsJpeg@sharp@@YA_NAEBV?$basic_string@DU?$char_traits@D@std@@V?$allocator@D@2@@std@@@Z@4HA 00000001800377a8     common.obj
 0002:0000b7a8       $unwind$?dtor$134@?0??Execute@PipelineWorker@@UEAAXXZ@4HA 00000001800377a8     pipeline.obj
 0002:0000b7a8       $unwind$?dtor$4@?0??metadata@@YAXAEBV?$FunctionCallbackInfo@VValue@v8@@@Nan@@@Z@4HA 00000001800377a8     metadata.obj
 0002:0000b7a8       $unwind$?dtor$0@?0??IsJpeg@sharp@@YA_NAEBV?$basic_string@DU?$char_traits@D@std@@V?$allocator@D@2@@std@@@Z@4HA 00000001800377a8     common.obj
 0002:0000b7a8       $unwind$?filt$0@?0??common_exit@@YAXHW4_crt_exit_cleanup_mode@@W4_crt_exit_return_mode@@@Z@4HA 00000001800377a8     libucrt:exit.obj
 0002:0000b7a8       $unwind$?dtor$0@?0??ImageTypeId@sharp@@YA?AV?$basic_string@DU?$char_traits@D@std@@V?$allocator@D@2@@std@@W4ImageType@1@@Z@4HA 00000001800377a8     common.obj
 0002:0000b7a8       $unwind$?dtor$1@?0??IsV@sharp@@YA_NAEBV?$basic_string@DU?$char_traits@D@std@@V?$allocator@D@2@@std@@@Z@4HA 00000001800377a8     common.obj
 0002:0000b7b0       $unwind$?IsPng@sharp@@YA_NAEBV?$basic_string@DU?$char_traits@D@std@@V?$allocator@D@2@@std@@@Z 00000001800377b0     common.obj
 0002:0000b7d8       $stateUnwindMap$?IsDz@sharp@@YA_NAEBV?$basic_string@DU?$char_traits@D@std@@V?$allocator@D@2@@std@@@Z 00000001800377d8     common.obj
 0002:0000b7d8       $stateUnwindMap$?IsPng@sharp@@YA_NAEBV?$basic_string@DU?$char_traits@D@std@@V?$allocator@D@2@@std@@@Z 00000001800377d8     common.obj
 0002:0000b7d8       $stateUnwindMap$?IsWebp@sharp@@YA_NAEBV?$basic_string@DU?$char_traits@D@std@@V?$allocator@D@2@@std@@@Z 00000001800377d8     common.obj
 0002:0000b7e8       $ip2state$?IsPng@sharp@@YA_NAEBV?$basic_string@DU?$char_traits@D@std@@V?$allocator@D@2@@std@@@Z 00000001800377e8     common.obj
 0002:0000b810       $unwind$?IsWebp@sharp@@YA_NAEBV?$basic_string@DU?$char_traits@D@std@@V?$allocator@D@2@@std@@@Z 0000000180037810     common.obj
 0002:0000b838       $ip2state$?IsWebp@sharp@@YA_NAEBV?$basic_string@DU?$char_traits@D@std@@V?$allocator@D@2@@std@@@Z 0000000180037838     common.obj
 0002:0000b860       $unwind$?IsTiff@sharp@@YA_NAEBV?$basic_string@DU?$char_traits@D@std@@V?$allocator@D@2@@std@@@Z 0000000180037860     common.obj
 0002:0000b890       $ip2state$?IsTiff@sharp@@YA_NAEBV?$basic_string@DU?$char_traits@D@std@@V?$allocator@D@2@@std@@@Z 0000000180037890     common.obj
 0002:0000b8d8       $unwind$?IsDz@sharp@@YA_NAEBV?$basic_string@DU?$char_traits@D@std@@V?$allocator@D@2@@std@@@Z 00000001800378d8     common.obj
 0002:0000b900       $ip2state$?IsDz@sharp@@YA_NAEBV?$basic_string@DU?$char_traits@D@std@@V?$allocator@D@2@@std@@@Z 0000000180037900     common.obj
 0002:0000b928       $unwind$?IsDzZip@sharp@@YA_NAEBV?$basic_string@DU?$char_traits@D@std@@V?$allocator@D@2@@std@@@Z 0000000180037928     common.obj
 0002:0000b950       $ip2state$?IsDzZip@sharp@@YA_NAEBV?$basic_string@DU?$char_traits@D@std@@V?$allocator@D@2@@std@@@Z 0000000180037950     common.obj
 0002:0000b998       $unwind$?IsV@sharp@@YA_NAEBV?$basic_string@DU?$char_traits@D@std@@V?$allocator@D@2@@std@@@Z 0000000180037998     common.obj
 0002:0000b9c0       $ip2state$?IsV@sharp@@YA_NAEBV?$basic_string@DU?$char_traits@D@std@@V?$allocator@D@2@@std@@@Z 00000001800379c0     common.obj
 0002:0000ba08       $unwind$?ImageTypeId@sharp@@YA?AV?$basic_string@DU?$char_traits@D@std@@V?$allocator@D@2@@std@@W4ImageType@1@@Z 0000000180037a08     common.obj
 0002:0000ba18       $stateUnwindMap$??$?HDU?$char_traits@D@std@@V?$allocator@D@1@@std@@YA?AV?$basic_string@DU?$char_traits@D@std@@V?$allocator@D@2@@0@AEBV10@PEBD@Z 0000000180037a18     pipeline.obj
 0002:0000ba18       $stateUnwindMap$?ImageTypeId@sharp@@YA?AV?$basic_string@DU?$char_traits@D@std@@V?$allocator@D@2@@std@@W4ImageType@1@@Z 0000000180037a18     common.obj
 0002:0000ba18       $stateUnwindMap$??$?HDU?$char_traits@D@std@@V?$allocator@D@1@@std@@YA?AV?$basic_string@DU?$char_traits@D@std@@V?$allocator@D@2@@0@PEBDAEBV10@@Z 0000000180037a18     pipeline.obj
 0002:0000ba20       $ip2state$?ImageTypeId@sharp@@YA?AV?$basic_string@DU?$char_traits@D@std@@V?$allocator@D@2@@std@@W4ImageType@1@@Z 0000000180037a20     common.obj
 0002:0000ba30       $unwind$?DetermineImageType@sharp@@YA?AW4ImageType@1@PEAX_K@Z 0000000180037a30     common.obj
 0002:0000ba54       $stateUnwindMap$?DetermineImageType@sharp@@YA?AW4ImageType@1@PEAX_K@Z 0000000180037a54     common.obj
 0002:0000baa0       $ip2state$?DetermineImageType@sharp@@YA?AW4ImageType@1@PEAX_K@Z 0000000180037aa0     common.obj
 0002:0000bb38       $unwind$?DetermineImageType@sharp@@YA?AW4ImageType@1@PEBD@Z 0000000180037b38     common.obj
 0002:0000bb60       $stateUnwindMap$?DetermineImageType@sharp@@YA?AW4ImageType@1@PEBD@Z 0000000180037b60     common.obj
 0002:0000bbd0       $ip2state$?DetermineImageType@sharp@@YA?AW4ImageType@1@PEBD@Z 0000000180037bd0     common.obj
 0002:0000bcb8       $unwind$?OpenInput@sharp@@YA?AV?$tuple@VVImage@vips@@W4ImageType@sharp@@@std@@PEAUInputDescriptor@1@W4VipsAccess@@@Z 0000000180037cb8     common.obj
 0002:0000bcdc       $stateUnwindMap$?OpenInput@sharp@@YA?AV?$tuple@VVImage@vips@@W4ImageType@sharp@@@std@@PEAUInputDescriptor@1@W4VipsAccess@@@Z 0000000180037cdc     common.obj
 0002:0000bd2c       $tryMap$?OpenInput@sharp@@YA?AV?$tuple@VVImage@vips@@W4ImageType@sharp@@@std@@PEAUInputDescriptor@1@W4VipsAccess@@@Z 0000000180037d2c     common.obj
 0002:0000bd54       $handlerMap$0$?OpenInput@sharp@@YA?AV?$tuple@VVImage@vips@@W4ImageType@sharp@@@std@@PEAUInputDescriptor@1@W4VipsAccess@@@Z 0000000180037d54     common.obj
 0002:0000bd68       $handlerMap$1$?OpenInput@sharp@@YA?AV?$tuple@VVImage@vips@@W4ImageType@sharp@@@std@@PEAUInputDescriptor@1@W4VipsAccess@@@Z 0000000180037d68     common.obj
 0002:0000bd80       $ip2state$?OpenInput@sharp@@YA?AV?$tuple@VVImage@vips@@W4ImageType@sharp@@@std@@PEAUInputDescriptor@1@W4VipsAccess@@@Z 0000000180037d80     common.obj
 0002:0000be38       $unwind$?catch$14@?0??OpenInput@sharp@@YA?AV?$tuple@VVImage@vips@@W4ImageType@sharp@@@std@@PEAUInputDescriptor@1@W4VipsAccess@@@Z@4HA 0000000180037e38     common.obj
 0002:0000be38       $unwind$?catch$13@?0??OpenInput@sharp@@YA?AV?$tuple@VVImage@vips@@W4ImageType@sharp@@@std@@PEAUInputDescriptor@1@W4VipsAccess@@@Z@4HA 0000000180037e38     common.obj
 0002:0000be48       $unwind$?HasProfile@sharp@@YA_NVVImage@vips@@@Z 0000000180037e48     common.obj
 0002:0000be5c       $stateUnwindMap$?RemoveExifOrientation@sharp@@YAXVVImage@vips@@@Z 0000000180037e5c     common.obj
 0002:0000be5c       $stateUnwindMap$?HasProfile@sharp@@YA_NVVImage@vips@@@Z 0000000180037e5c     common.obj
 0002:0000be5c       $stateUnwindMap$?HasAlpha@sharp@@YA_NVVImage@vips@@@Z 0000000180037e5c     common.obj
 0002:0000be68       $ip2state$?HasProfile@sharp@@YA_NVVImage@vips@@@Z 0000000180037e68     common.obj
 0002:0000be80       $unwind$?HasAlpha@sharp@@YA_NVVImage@vips@@@Z 0000000180037e80     common.obj
 0002:0000be98       $ip2state$?HasAlpha@sharp@@YA_NVVImage@vips@@@Z 0000000180037e98     common.obj
 0002:0000beb0       $unwind$?RemoveExifOrientation@sharp@@YAXVVImage@vips@@@Z 0000000180037eb0     common.obj
 0002:0000bec0       $ip2state$?RemoveExifOrientation@sharp@@YAXVVImage@vips@@@Z 0000000180037ec0     common.obj
 0002:0000bed8       $unwind$?SetDensity@sharp@@YAXVVImage@vips@@H@Z 0000000180037ed8     common.obj
 0002:0000beec       $stateUnwindMap$?SetDensity@sharp@@YAXVVImage@vips@@H@Z 0000000180037eec     common.obj
 0002:0000bef8       $ip2state$?SetDensity@sharp@@YAXVVImage@vips@@H@Z 0000000180037ef8     common.obj
 0002:0000bf10       $unwind$?CalculateCrop@sharp@@YA?AV?$tuple@HH@std@@HHHHH@Z 0000000180037f10     common.obj
 0002:0000bf10       $unwind$__GSHandlerCheckCommon 0000000180037f10     LIBCMT:_gshandler_.obj
 0002:0000bf18       $chain$0$?CalculateCrop@sharp@@YA?AV?$tuple@HH@std@@HHHHH@Z 0000000180037f18     common.obj
 0002:0000bf2c       $chain$1$?CalculateCrop@sharp@@YA?AV?$tuple@HH@std@@HHHHH@Z 0000000180037f2c     common.obj
 0002:0000bf3c       $unwind$?CalculateCrop@sharp@@YA?AV?$tuple@HH@std@@HHHHHH@Z 0000000180037f3c     common.obj
 0002:0000bf3c       $unwind$??$type_case_integer_parse_into_buffer@I@?$output_processor@_WV?$stream_output_adapter@_W@__crt_stdio_output@@V?$standard_base@_WV?$stream_output_adapter@_W@__crt_stdio_output@@@2@@__crt_stdio_output@@AEAAXII_N@Z 0000000180037f3c     libucrt:output.obj
 0002:0000bf3c       $unwind$??$type_case_integer_parse_into_buffer@I@?$output_processor@_WV?$string_output_adapter@_W@__crt_stdio_output@@V?$standard_base@_WV?$string_output_adapter@_W@__crt_stdio_output@@@2@@__crt_stdio_output@@AEAAXII_N@Z 0000000180037f3c     libucrt:output.obj
 0002:0000bf3c       $unwind$??$type_case_integer_parse_into_buffer@_K@?$output_processor@_WV?$stream_output_adapter@_W@__crt_stdio_output@@V?$standard_base@_WV?$stream_output_adapter@_W@__crt_stdio_output@@@2@@__crt_stdio_output@@AEAAX_KI_N@Z 0000000180037f3c     libucrt:output.obj
 0002:0000bf3c       $unwind$??$type_case_integer_parse_into_buffer@_K@?$output_processor@_WV?$string_output_adapter@_W@__crt_stdio_output@@V?$standard_base@_WV?$string_output_adapter@_W@__crt_stdio_output@@@2@@__crt_stdio_output@@AEAAX_KI_N@Z 0000000180037f3c     libucrt:output.obj
 0002:0000bf44       $unwind$?GetRgbaAsColourspace@sharp@@YA?AV?$vector@NV?$allocator@N@std@@@std@@V23@W4VipsInterpretation@@@Z 0000000180037f44     common.obj
 0002:0000bf60       $stateUnwindMap$?GetRgbaAsColourspace@sharp@@YA?AV?$vector@NV?$allocator@N@std@@@std@@V23@W4VipsInterpretation@@@Z 0000000180037f60     common.obj
 0002:0000bf80       $ip2state$?GetRgbaAsColourspace@sharp@@YA?AV?$vector@NV?$allocator@N@std@@@std@@V23@W4VipsInterpretation@@@Z 0000000180037f80     common.obj
 0002:0000bfc8       $unwind$??0?$vector@NV?$allocator@N@std@@@std@@QEAA@AEBV01@@Z 0000000180037fc8     common.obj
 0002:0000bfd8       $chain$0$??0?$vector@NV?$allocator@N@std@@@std@@QEAA@AEBV01@@Z 0000000180037fd8     common.obj
 0002:0000bfec       $chain$1$??0?$vector@NV?$allocator@N@std@@@std@@QEAA@AEBV01@@Z 0000000180037fec     common.obj
 0002:0000bffc       $unwind$?assign@?$basic_string@DU?$char_traits@D@std@@V?$allocator@D@2@@std@@QEAAAEAV12@PEBD_K@Z 0000000180037ffc     common.obj
 0002:0000bffc       $unwind$??R<lambda_ad1ced32f4ac17aa236e5ef05d6b3b7c>@@QEBAXXZ 0000000180037ffc     libucrt:mbctype.obj
 0002:0000bffc       $unwind$_DllMainCRTStartup 0000000180037ffc     LIBCMT:dll_dllmain.obj
 0002:0000bffc       $unwind$?type_case_n@?$output_processor@_WV?$string_output_adapter@_W@__crt_stdio_output@@V?$standard_base@_WV?$string_output_adapter@_W@__crt_stdio_output@@@2@@__crt_stdio_output@@AEAA_NXZ 0000000180037ffc     libucrt:output.obj
 0002:0000bffc       $unwind$memcpy_s           0000000180037ffc     libucrt:cfout.obj
 0002:0000bffc       $unwind$_RTC_Terminate     0000000180037ffc     LIBCMT:_initsect_.obj
 0002:0000bffc       $unwind$?type_case_s@?$output_processor@_WV?$string_output_adapter@_W@__crt_stdio_output@@V?$standard_base@_WV?$string_output_adapter@_W@__crt_stdio_output@@@2@@__crt_stdio_output@@AEAA_NXZ 0000000180037ffc     libucrt:output.obj
 0002:0000bffc       $unwind$__acrt_LocaleNameToLCID 0000000180037ffc     libucrt:winapi_thunks.obj
 0002:0000bffc       $unwind$?type_case_Z@?$output_processor@_WV?$string_output_adapter@_W@__crt_stdio_output@@V?$standard_base@_WV?$string_output_adapter@_W@__crt_stdio_output@@@2@@__crt_stdio_output@@AEAA_NXZ 0000000180037ffc     libucrt:output.obj
 0002:0000bffc       $unwind$__acrt_FlsSetValue 0000000180037ffc     libucrt:winapi_thunks.obj
 0002:0000bffc       $unwind$_RTC_Initialize    0000000180037ffc     LIBCMT:_initsect_.obj
 0002:0000bffc       $unwind$?compare@?$basic_string@DU?$char_traits@D@std@@V?$allocator@D@2@@std@@QEBAHPEBD@Z 0000000180037ffc     pipeline.obj
 0002:0000bffc       $unwind$??$common_lseek_nolock@_J@@YA_JH_JH@Z 0000000180037ffc     libucrt:lseek.obj
 0002:0000bffc       $unwind$?free_crt_array_internal@@YAXQEAPEBX_K@Z 0000000180037ffc     libucrt:inittime.obj
 0002:0000bffc       $unwind$?type_case_n@?$output_processor@_WV?$stream_output_adapter@_W@__crt_stdio_output@@V?$standard_base@_WV?$stream_output_adapter@_W@__crt_stdio_output@@@2@@__crt_stdio_output@@AEAA_NXZ 0000000180037ffc     libucrt:output.obj
 0002:0000bffc       $unwind$__acrt_stdio_flush_and_write_narrow_nolock 0000000180037ffc     libucrt:_flsbuf.obj
 0002:0000bffc       $unwind$?type_case_s@?$output_processor@_WV?$stream_output_adapter@_W@__crt_stdio_output@@V?$standard_base@_WV?$stream_output_adapter@_W@__crt_stdio_output@@@2@@__crt_stdio_output@@AEAA_NXZ 0000000180037ffc     libucrt:output.obj
 0002:0000bffc       $unwind$__vcrt_FlsSetValue 0000000180037ffc     libvcruntime:winapi_downlevel.obj
 0002:0000bffc       $unwind$?type_case_Z@?$output_processor@_WV?$stream_output_adapter@_W@__crt_stdio_output@@V?$standard_base@_WV?$stream_output_adapter@_W@__crt_stdio_output@@@2@@__crt_stdio_output@@AEAA_NXZ 0000000180037ffc     libucrt:output.obj
 0002:0000bffc       $unwind$__acrt_getptd_noexit 0000000180037ffc     libucrt:per_thread_data.obj
 0002:0000bffc       $unwind$__vcrt_getptd_noexit 0000000180037ffc     libvcruntime:per_thread_data.obj
 0002:0000bffc       $unwind$__acrt_stdio_flush_and_write_wide_nolock 0000000180037ffc     libucrt:_flsbuf.obj
 0002:0000bffc       $unwind$_exception_enabled 0000000180037ffc     libucrt:libm_error.obj
 0002:0000bffc       $unwind$__acrt_stdio_flush_nolock 0000000180037ffc     libucrt:fflush.obj
 0002:0000bffc       $unwind$?_Tidy@?$basic_string@DU?$char_traits@D@std@@V?$allocator@D@2@@std@@QEAAX_N_K@Z 0000000180037ffc     common.obj
 0002:0000bffc       $unwind$?reserve@?$basic_string@DU?$char_traits@D@std@@V?$allocator@D@2@@std@@QEAAX_K@Z 0000000180037ffc     pipeline.obj
 0002:0000bffc       $unwind$_initterm_e        0000000180037ffc     libucrt:initterm.obj
 0002:0000bffc       $unwind$__acrt_execute_uninitializers 0000000180037ffc     libucrt:shared_initialization.obj
 0002:0000c00c       $unwind$_free_osfhnd       000000018003800c     libucrt:osfinfo.obj
 0002:0000c00c       $unwind$??0?$vector@V?$Local@VObject@v8@@@v8@@V?$allocator@V?$Local@VObject@v8@@@v8@@@std@@@std@@QEAA@AEBV01@@Z 000000018003800c     metadata.obj
 0002:0000c00c       $unwind$__std_exception_copy 000000018003800c     libvcruntime:std_exception.obj
 0002:0000c00c       $unwind$?initialize_stdio_handles_nolock@@YAXXZ 000000018003800c     libucrt:ioinit.obj
 0002:0000c00c       $unwind$?assign@?$basic_string@DU?$char_traits@D@std@@V?$allocator@D@2@@std@@QEAAAEAV12@AEBV12@_K1@Z 000000018003800c     common.obj
 0002:0000c020       $unwind$?expand_if_necessary@?$argument_list@D@?A0xca0879c4@@AEAAHXZ 0000000180038020     libucrt:argv_wildcards.obj
 0002:0000c020       $unwind$__acrt_lowio_create_handle_array 0000000180038020     libucrt:osfinfo.obj
 0002:0000c020       $unwind$__vcrt_InitializeCriticalSectionEx 0000000180038020     libvcruntime:winapi_downlevel.obj
 0002:0000c020       $unwind$_wassert           0000000180038020     libucrt:assert.obj
 0002:0000c020       $unwind$__acrt_InitializeCriticalSectionEx 0000000180038020     libucrt:winapi_thunks.obj
 0002:0000c020       $unwind$?_ExecutionInCatch@@YAHPEAU_xDISPATCHER_CONTEXT@@PEBU_s_FuncInfo@@@Z 0000000180038020     libvcruntime:trnsctrl.obj
 0002:0000c020       $unwind$__scrt_dllmain_exception_filter 0000000180038020     LIBCMT:utility.obj
 0002:0000c020       $unwind$?setSBCS@@YAXPEAU__crt_multibyte_data@@@Z 0000000180038020     libucrt:mbctype.obj
 0002:0000c020       $unwind$?dllmain_raw@@YAHQEAUHINSTANCE__@@KQEAX@Z 0000000180038020     LIBCMT:dll_dllmain.obj
 0002:0000c020       $unwind$_recalloc_base     0000000180038020     libucrt:recalloc.obj
 0002:0000c020       $unwind$??$ensure_buffer_is_big_enough@D@formatting_buffer@__crt_stdio_output@@QEAA_N_K@Z 0000000180038020     libucrt:output.obj
 0002:0000c020       $unwind$_seh_filter_exe    0000000180038020     libucrt:exception_filter.obj
 0002:0000c020       $unwind$__acrt_execute_initializers 0000000180038020     libucrt:shared_initialization.obj
 0002:0000c020       $unwind$?_Reallocate@?$vector@V?$Local@VObject@v8@@@v8@@V?$allocator@V?$Local@VObject@v8@@@v8@@@std@@@std@@IEAAX_K@Z 0000000180038020     common.obj
 0002:0000c020       $unwind$__acrt_free_locale 0000000180038020     libucrt:locale_refcounting.obj
 0002:0000c034       $unwind$?_Copy@?$basic_string@DU?$char_traits@D@std@@V?$allocator@D@2@@std@@QEAAX_K0@Z 0000000180038034     common.obj
 0002:0000c048       $unwind$??$_Integral_to_string@DH@std@@YA?AV?$basic_string@DU?$char_traits@D@std@@V?$allocator@D@2@@0@H@Z 0000000180038048     common.obj
 0002:0000c058       $unwind$??$New@VString@v8@@V?$basic_string@DU?$char_traits@D@std@@V?$allocator@D@2@@std@@@Nan@@YA?AV?$MaybeLocal@VString@v8@@@v8@@V?$basic_string@DU?$char_traits@D@std@@V?$allocator@D@2@@std@@@Z 0000000180038058     common.obj
 0002:0000c078       $ip2state$??$New@VString@v8@@V?$basic_string@DU?$char_traits@D@std@@V?$allocator@D@2@@std@@@Nan@@YA?AV?$MaybeLocal@VString@v8@@@v8@@V?$basic_string@DU?$char_traits@D@std@@V?$allocator@D@2@@std@@@Z 0000000180038078     common.obj
 0002:0000c090       $unwind$??$AttrAs@VObject@v8@@@sharp@@YA?AV?$Local@VObject@v8@@@v8@@V12@V?$basic_string@DU?$char_traits@D@std@@V?$allocator@D@2@@std@@@Z 0000000180038090     common.obj
 0002:0000c090       $unwind$??$AttrAs@VFunction@v8@@@sharp@@YA?AV?$Local@VFunction@v8@@@v8@@V?$Local@VObject@v8@@@2@V?$basic_string@DU?$char_traits@D@std@@V?$allocator@D@2@@std@@@Z 0000000180038090     pipeline.obj
 0002:0000c090       $unwind$??$AttrAs@VArray@v8@@@sharp@@YA?AV?$Local@VArray@v8@@@v8@@V?$Local@VObject@v8@@@2@V?$basic_string@DU?$char_traits@D@std@@V?$allocator@D@2@@std@@@Z 0000000180038090     pipeline.obj
 0002:0000c0a8       $ip2state$??$AttrAs@VFunction@v8@@@sharp@@YA?AV?$Local@VFunction@v8@@@v8@@V?$Local@VObject@v8@@@2@V?$basic_string@DU?$char_traits@D@std@@V?$allocator@D@2@@std@@@Z 00000001800380a8     pipeline.obj
 0002:0000c0a8       $ip2state$??$AttrAs@VArray@v8@@@sharp@@YA?AV?$Local@VArray@v8@@@v8@@V?$Local@VObject@v8@@@2@V?$basic_string@DU?$char_traits@D@std@@V?$allocator@D@2@@std@@@Z 00000001800380a8     pipeline.obj
 0002:0000c0a8       $ip2state$??$AttrAs@VObject@v8@@@sharp@@YA?AV?$Local@VObject@v8@@@v8@@V12@V?$basic_string@DU?$char_traits@D@std@@V?$allocator@D@2@@std@@@Z 00000001800380a8     common.obj
 0002:0000c0c0       $unwind$??$AttrTo@I@sharp@@YAIV?$Local@VObject@v8@@@v8@@V?$basic_string@DU?$char_traits@D@std@@V?$allocator@D@2@@std@@@Z 00000001800380c0     common.obj
 0002:0000c0d8       $stateUnwindMap$??$AttrTo@I@sharp@@YAIV?$Local@VObject@v8@@@v8@@V?$basic_string@DU?$char_traits@D@std@@V?$allocator@D@2@@std@@@Z 00000001800380d8     common.obj
 0002:0000c0d8       $stateUnwindMap$??$?0AEAY09$$CBDPEBDX$0A@@?$pair@V?$basic_string@DU?$char_traits@D@std@@V?$allocator@D@2@@std@@V12@@std@@QEAA@AEAY09$$CBD$$QEAPEBD@Z 00000001800380d8     pipeline.obj
 0002:0000c0d8       $stateUnwindMap$??$AttrTo@_N@sharp@@YA_NV?$Local@VObject@v8@@@v8@@V?$basic_string@DU?$char_traits@D@std@@V?$allocator@D@2@@std@@@Z 00000001800380d8     pipeline.obj
 0002:0000c0d8       $stateUnwindMap$??$?0AEAY0BA@$$CBDAEAY04$$CBDX$0A@@?$pair@V?$basic_string@DU?$char_traits@D@std@@V?$allocator@D@2@@std@@V12@@std@@QEAA@AEAY0BA@$$CBDAEAY04$$CBD@Z 00000001800380d8     pipeline.obj
 0002:0000c0d8       $stateUnwindMap$??$?0AEAY0O@$$CBDPEBDX$0A@@?$pair@V?$basic_string@DU?$char_traits@D@std@@V?$allocator@D@2@@std@@V12@@std@@QEAA@AEAY0O@$$CBD$$QEAPEBD@Z 00000001800380d8     pipeline.obj
 0002:0000c0d8       $stateUnwindMap$??$?0AEAY0BE@$$CBDPEBDX$0A@@?$pair@V?$basic_string@DU?$char_traits@D@std@@V?$allocator@D@2@@std@@V12@@std@@QEAA@AEAY0BE@$$CBD$$QEAPEBD@Z 00000001800380d8     pipeline.obj
 0002:0000c0d8       $stateUnwindMap$??$AttrTo@H@sharp@@YAHV?$Local@VObject@v8@@@v8@@V?$basic_string@DU?$char_traits@D@std@@V?$allocator@D@2@@std@@@Z 00000001800380d8     pipeline.obj
 0002:0000c0d8       $stateUnwindMap$??$?0AEAY0N@$$CBDPEBDX$0A@@?$pair@V?$basic_string@DU?$char_traits@D@std@@V?$allocator@D@2@@std@@V12@@std@@QEAA@AEAY0N@$$CBD$$QEAPEBD@Z 00000001800380d8     pipeline.obj
 0002:0000c0d8       $stateUnwindMap$??$?0AEAY06$$CBDPEBDX$0A@@?$pair@V?$basic_string@DU?$char_traits@D@std@@V?$allocator@D@2@@std@@V12@@std@@QEAA@AEAY06$$CBD$$QEAPEBD@Z 00000001800380d8     pipeline.obj
 0002:0000c0d8       $stateUnwindMap$??$?0AEAY0P@$$CBDPEBDX$0A@@?$pair@V?$basic_string@DU?$char_traits@D@std@@V?$allocator@D@2@@std@@V12@@std@@QEAA@AEAY0P@$$CBD$$QEAPEBD@Z 00000001800380d8     pipeline.obj
 0002:0000c0d8       $stateUnwindMap$??$?0AEAY08$$CBDPEBDX$0A@@?$pair@V?$basic_string@DU?$char_traits@D@std@@V?$allocator@D@2@@std@@V12@@std@@QEAA@AEAY08$$CBD$$QEAPEBD@Z 00000001800380d8     pipeline.obj
 0002:0000c0e0       $ip2state$??$AttrTo@I@sharp@@YAIV?$Local@VObject@v8@@@v8@@V?$basic_string@DU?$char_traits@D@std@@V?$allocator@D@2@@std@@@Z 00000001800380e0     common.obj
 0002:0000c0f8       $unwind$?Set@Nan@@YA?AV?$Maybe@_N@v8@@V?$Local@VObject@v8@@@3@V?$Local@VValue@v8@@@3@1@Z 00000001800380f8     metadata.obj
 0002:0000c10c       $stateUnwindMap$?Set@Nan@@YA?AV?$Maybe@_N@v8@@V?$Local@VObject@v8@@@3@V?$Local@VValue@v8@@@3@1@Z 000000018003810c     metadata.obj
 0002:0000c118       $ip2state$?Set@Nan@@YA?AV?$Maybe@_N@v8@@V?$Local@VObject@v8@@@3@V?$Local@VValue@v8@@@3@1@Z 0000000180038118     metadata.obj
 0002:0000c130       $unwind$?convert@?$ToFactory@VUint32@v8@@@imp@Nan@@SA?AV?$MaybeLocal@VUint32@v8@@@v8@@V?$Local@VValue@v8@@@5@@Z 0000000180038130     metadata.obj
 0002:0000c148       $ip2state$?convert@?$ToFactory@VUint32@v8@@@imp@Nan@@SA?AV?$MaybeLocal@VUint32@v8@@@v8@@V?$Local@VValue@v8@@@5@@Z 0000000180038148     metadata.obj
 0002:0000c160       $unwind$?Error@Nan@@YA?AV?$Local@VValue@v8@@@v8@@PEBD@Z 0000000180038160     metadata.obj
 0002:0000c178       $ip2state$?Error@Nan@@YA?AV?$Local@VValue@v8@@@v8@@PEBD@Z 0000000180038178     metadata.obj
 0002:0000c190       $unwind$??4?$vector@NV?$allocator@N@std@@@std@@QEAAAEAV01@$$QEAV01@@Z 0000000180038190     pipeline.obj
 0002:0000c190       $unwind$iswctype           0000000180038190     libucrt:iswctype.obj
 0002:0000c190       $unwind$??0Callback@Nan@@QEAA@AEBV?$Local@VFunction@v8@@@v8@@@Z 0000000180038190     metadata.obj
 0002:0000c190       $unwind$??$New@VUint32@v8@@H@Nan@@YA?AV?$Local@VUint32@v8@@@v8@@H@Z 0000000180038190     metadata.obj
 0002:0000c190       $unwind$__acrt_is_packaged_app 0000000180038190     libucrt:winapi_thunks.obj
 0002:0000c19c       $unwind$?Call@Callback@Nan@@QEBA?AV?$Local@VValue@v8@@@v8@@HQEAV34@@Z 000000018003819c     metadata.obj
 0002:0000c1b8       $stateUnwindMap$?New@?$Factory@VFunctionTemplate@v8@@@imp@Nan@@SA?AV?$Local@VFunctionTemplate@v8@@@v8@@P6AXAEBV?$FunctionCallbackInfo@VValue@v8@@@3@@ZV?$Local@VValue@v8@@@5@V?$Local@VSignature@v8@@@5@@Z 00000001800381b8     sharp.obj
 0002:0000c1b8       $stateUnwindMap$?Call@Callback@Nan@@QEBA?AV?$Local@VValue@v8@@@v8@@HQEAV34@@Z 00000001800381b8     metadata.obj
 0002:0000c1c0       $ip2state$?Call@Callback@Nan@@QEBA?AV?$Local@VValue@v8@@@v8@@HQEAV34@@Z 00000001800381c0     metadata.obj
 0002:0000c1d8       $unwind$?Call_@Callback@Nan@@AEBA?AV?$Local@VValue@v8@@@v8@@PEAVIsolate@4@V?$Local@VObject@v8@@@4@HQEAV34@@Z 00000001800381d8     metadata.obj
 0002:0000c1f0       $ip2state$?Call_@Callback@Nan@@AEBA?AV?$Local@VValue@v8@@@v8@@PEAVIsolate@4@V?$Local@VObject@v8@@@4@HQEAV34@@Z 00000001800381f0     metadata.obj
 0002:0000c208       $unwind$??0AsyncWorker@Nan@@QEAA@PEAVCallback@1@@Z 0000000180038208     metadata.obj
 0002:0000c21c       $stateUnwindMap$??0AsyncWorker@Nan@@QEAA@PEAVCallback@1@@Z 000000018003821c     metadata.obj
 0002:0000c230       $ip2state$??0AsyncWorker@Nan@@QEAA@PEAVCallback@1@@Z 0000000180038230     metadata.obj
 0002:0000c258       $unwind$??1AsyncWorker@Nan@@UEAA@XZ 0000000180038258     metadata.obj
 0002:0000c26c       $stateUnwindMap$??1AsyncWorker@Nan@@UEAA@XZ 000000018003826c     metadata.obj
 0002:0000c26c       $stateUnwindMap$?HandleOKCallback@PipelineWorker@@UEAAXXZ 000000018003826c     pipeline.obj
 0002:0000c280       $ip2state$??1AsyncWorker@Nan@@UEAA@XZ 0000000180038280     metadata.obj
 0002:0000c298       $unwind$?WorkComplete@AsyncWorker@Nan@@UEAAXXZ 0000000180038298     metadata.obj
 0002:0000c2ac       $stateUnwindMap$?WorkComplete@AsyncWorker@Nan@@UEAAXXZ 00000001800382ac     metadata.obj
 0002:0000c2c8       $ip2state$?WorkComplete@AsyncWorker@Nan@@UEAAXXZ 00000001800382c8     metadata.obj
 0002:0000c2f0       $unwind$?GetFromPersistent@AsyncWorker@Nan@@QEBA?AV?$Local@VValue@v8@@@v8@@I@Z 00000001800382f0     metadata.obj
 0002:0000c308       $stateUnwindMap$??$_Accumulate_unchecked@PEBV?$Local@VObject@v8@@@v8@@HV<lambda_9252aa89fe9814f85e2a072fe573e6da>@@@std@@YAHPEBV?$Local@VObject@v8@@@v8@@0HAEAV<lambda_9252aa89fe9814f85e2a072fe573e6da>@@@Z 0000000180038308     metadata.obj
 0002:0000c308       $stateUnwindMap$?HandleOKCallback@AsyncWorker@Nan@@MEAAXXZ 0000000180038308     metadata.obj
 0002:0000c308       $stateUnwindMap$?GetFromPersistent@AsyncWorker@Nan@@QEBA?AV?$Local@VValue@v8@@@v8@@I@Z 0000000180038308     metadata.obj
 0002:0000c308       $stateUnwindMap$??$_Accumulate_unchecked@PEBV?$Local@VObject@v8@@@v8@@HV<lambda_1cf14cbc5c28648f7ac9038b3f6db2a5>@@@std@@YAHPEBV?$Local@VObject@v8@@@v8@@0HAEAV<lambda_1cf14cbc5c28648f7ac9038b3f6db2a5>@@@Z 0000000180038308     pipeline.obj
 0002:0000c310       $ip2state$?GetFromPersistent@AsyncWorker@Nan@@QEBA?AV?$Local@VValue@v8@@@v8@@I@Z 0000000180038310     metadata.obj
 0002:0000c328       $unwind$?HandleOKCallback@AsyncWorker@Nan@@MEAAXXZ 0000000180038328     metadata.obj
 0002:0000c338       $ip2state$?HandleOKCallback@AsyncWorker@Nan@@MEAAXXZ 0000000180038338     metadata.obj
 0002:0000c350       $unwind$?HandleErrorCallback@AsyncWorker@Nan@@MEAAXXZ 0000000180038350     metadata.obj
 0002:0000c368       $ip2state$?HandleErrorCallback@AsyncWorker@Nan@@MEAAXXZ 0000000180038368     metadata.obj
 0002:0000c380       $unwind$??1?$Persistent@VObject@v8@@V?$NonCopyablePersistentTraits@VObject@v8@@@2@@Nan@@QEAA@XZ 0000000180038380     metadata.obj
 0002:0000c390       $stateUnwindMap$??1?$Persistent@VObject@v8@@V?$NonCopyablePersistentTraits@VObject@v8@@@2@@Nan@@QEAA@XZ 0000000180038390     metadata.obj
 0002:0000c398       $ip2state$??1?$Persistent@VObject@v8@@V?$NonCopyablePersistentTraits@VObject@v8@@@2@@Nan@@QEAA@XZ 0000000180038398     metadata.obj
 0002:0000c3a0       $unwind$??0MetadataWorker@@QEAA@PEAVCallback@Nan@@PEAUMetadataBaton@@V?$vector@V?$Local@VObject@v8@@@v8@@V?$allocator@V?$Local@VObject@v8@@@v8@@@std@@@std@@@Z 00000001800383a0     metadata.obj
 0002:0000c3b4       $stateUnwindMap$??0MetadataWorker@@QEAA@PEAVCallback@Nan@@PEAUMetadataBaton@@V?$vector@V?$Local@VObject@v8@@@v8@@V?$allocator@V?$Local@VObject@v8@@@v8@@@std@@@std@@@Z 00000001800383b4     metadata.obj
 0002:0000c3d0       $ip2state$??0MetadataWorker@@QEAA@PEAVCallback@Nan@@PEAUMetadataBaton@@V?$vector@V?$Local@VObject@v8@@@v8@@V?$allocator@V?$Local@VObject@v8@@@v8@@@std@@@std@@@Z 00000001800383d0     metadata.obj
 0002:0000c3f8       $unwind$?Execute@MetadataWorker@@UEAAXXZ 00000001800383f8     metadata.obj
 0002:0000c418       $stateUnwindMap$?Execute@MetadataWorker@@UEAAXXZ 0000000180038418     metadata.obj
 0002:0000c460       $tryMap$?Execute@MetadataWorker@@UEAAXXZ 0000000180038460     metadata.obj
 0002:0000c474       $handlerMap$0$?Execute@MetadataWorker@@UEAAXXZ 0000000180038474     metadata.obj
 0002:0000c490       $ip2state$?Execute@MetadataWorker@@UEAAXXZ 0000000180038490     metadata.obj
 0002:0000c530       $unwind$?catch$14@?0??Execute@MetadataWorker@@UEAAXXZ@4HA 0000000180038530     metadata.obj
 0002:0000c540       $unwind$?HandleOKCallback@MetadataWorker@@UEAAXXZ 0000000180038540     metadata.obj
 0002:0000c550       $chain$1$?HandleOKCallback@MetadataWorker@@UEAAXXZ 0000000180038550     metadata.obj
 0002:0000c568       $chain$2$?HandleOKCallback@MetadataWorker@@UEAAXXZ 0000000180038568     metadata.obj
 0002:0000c57c       $chain$3$?HandleOKCallback@MetadataWorker@@UEAAXXZ 000000018003857c     metadata.obj
 0002:0000c58c       $chain$4$?HandleOKCallback@MetadataWorker@@UEAAXXZ 000000018003858c     metadata.obj
 0002:0000c59c       $unwind$?metadata@@YAXAEBV?$FunctionCallbackInfo@VValue@v8@@@Nan@@@Z 000000018003859c     metadata.obj
 0002:0000c5b8       $stateUnwindMap$?metadata@@YAXAEBV?$FunctionCallbackInfo@VValue@v8@@@Nan@@@Z 00000001800385b8     metadata.obj
 0002:0000c5e0       $ip2state$?metadata@@YAXAEBV?$FunctionCallbackInfo@VValue@v8@@@Nan@@@Z 00000001800385e0     metadata.obj
 0002:0000c628       $unwind$?append@?$basic_string@DU?$char_traits@D@std@@V?$allocator@D@2@@std@@QEAAAEAV12@PEBD_K@Z 0000000180038628     metadata.obj
 0002:0000c638       $chain$0$?append@?$basic_string@DU?$char_traits@D@std@@V?$allocator@D@2@@std@@QEAAAEAV12@PEBD_K@Z 0000000180038638     metadata.obj
 0002:0000c64c       $chain$1$?append@?$basic_string@DU?$char_traits@D@std@@V?$allocator@D@2@@std@@QEAAAEAV12@PEBD_K@Z 000000018003864c     metadata.obj
 0002:0000c65c       $chain$2$?append@?$basic_string@DU?$char_traits@D@std@@V?$allocator@D@2@@std@@QEAAAEAV12@PEBD_K@Z 000000018003865c     metadata.obj
 0002:0000c670       $unwind$?append@?$basic_string@DU?$char_traits@D@std@@V?$allocator@D@2@@std@@QEAAAEAV12@AEBV12@_K1@Z 0000000180038670     metadata.obj
 0002:0000c684       $chain$0$?append@?$basic_string@DU?$char_traits@D@std@@V?$allocator@D@2@@std@@QEAAAEAV12@AEBV12@_K1@Z 0000000180038684     metadata.obj
 0002:0000c698       $chain$1$?append@?$basic_string@DU?$char_traits@D@std@@V?$allocator@D@2@@std@@QEAAAEAV12@AEBV12@_K1@Z 0000000180038698     metadata.obj
 0002:0000c6a8       $chain$2$?append@?$basic_string@DU?$char_traits@D@std@@V?$allocator@D@2@@std@@QEAAAEAV12@AEBV12@_K1@Z 00000001800386a8     metadata.obj
 0002:0000c6bc       $unwind$??$_Accumulate_unchecked@PEBV?$Local@VObject@v8@@@v8@@HV<lambda_9252aa89fe9814f85e2a072fe573e6da>@@@std@@YAHPEBV?$Local@VObject@v8@@@v8@@0HAEAV<lambda_9252aa89fe9814f85e2a072fe573e6da>@@@Z 00000001800386bc     metadata.obj
 0002:0000c6bc       $unwind$??$_Accumulate_unchecked@PEBV?$Local@VObject@v8@@@v8@@HV<lambda_1cf14cbc5c28648f7ac9038b3f6db2a5>@@@std@@YAHPEBV?$Local@VObject@v8@@@v8@@0HAEAV<lambda_1cf14cbc5c28648f7ac9038b3f6db2a5>@@@Z 00000001800386bc     pipeline.obj
 0002:0000c6e0       $ip2state$??$_Accumulate_unchecked@PEBV?$Local@VObject@v8@@@v8@@HV<lambda_1cf14cbc5c28648f7ac9038b3f6db2a5>@@@std@@YAHPEBV?$Local@VObject@v8@@@v8@@0HAEAV<lambda_1cf14cbc5c28648f7ac9038b3f6db2a5>@@@Z 00000001800386e0     pipeline.obj
 0002:0000c6e0       $ip2state$??$_Accumulate_unchecked@PEBV?$Local@VObject@v8@@@v8@@HV<lambda_9252aa89fe9814f85e2a072fe573e6da>@@@std@@YAHPEBV?$Local@VObject@v8@@@v8@@0HAEAV<lambda_9252aa89fe9814f85e2a072fe573e6da>@@@Z 00000001800386e0     metadata.obj
 0002:0000c6f8       $unwind$?Composite@sharp@@YA?AVVImage@vips@@V23@0H@Z 00000001800386f8     operations.obj
 0002:0000c720       $stateUnwindMap$?Composite@sharp@@YA?AVVImage@vips@@V23@0HH@Z 0000000180038720     operations.obj
 0002:0000c720       $stateUnwindMap$?Composite@sharp@@YA?AVVImage@vips@@V23@0H@Z 0000000180038720     operations.obj
 0002:0000c760       $ip2state$?Composite@sharp@@YA?AVVImage@vips@@V23@0H@Z 0000000180038760     operations.obj
 0002:0000c7d0       $unwind$?Composite@sharp@@YA?AVVImage@vips@@V23@0HH@Z 00000001800387d0     operations.obj
 0002:0000c800       $ip2state$?Composite@sharp@@YA?AVVImage@vips@@V23@0HH@Z 0000000180038800     operations.obj
 0002:0000c870       $unwind$?IsInputValidForComposition@sharp@@YA_NVVImage@vips@@0@Z 0000000180038870     operations.obj
 0002:0000c894       $stateUnwindMap$?IsInputValidForComposition@sharp@@YA_NVVImage@vips@@0@Z 0000000180038894     operations.obj
 0002:0000c8b0       $ip2state$?IsInputValidForComposition@sharp@@YA_NVVImage@vips@@0@Z 00000001800388b0     operations.obj
 0002:0000c8f0       $unwind$?CompositeImage@sharp@@YA?AVVImage@vips@@V23@0@Z 00000001800388f0     operations.obj
 0002:0000c90c       $stateUnwindMap$?CompositeImage@sharp@@YA?AVVImage@vips@@V23@0@Z 000000018003890c     operations.obj
 0002:0000c980       $ip2state$?CompositeImage@sharp@@YA?AVVImage@vips@@V23@0@Z 0000000180038980     operations.obj
 0002:0000ca50       $unwind$?Cutout@sharp@@YA?AVVImage@vips@@V23@0H@Z 0000000180038a50     operations.obj
 0002:0000ca80       $stateUnwindMap$?Cutout@sharp@@YA?AVVImage@vips@@V23@0H@Z 0000000180038a80     operations.obj
 0002:0000cae0       $ip2state$?Cutout@sharp@@YA?AVVImage@vips@@V23@0H@Z 0000000180038ae0     operations.obj
 0002:0000cbb0       $unwind$?Normalise@sharp@@YA?AVVImage@vips@@V23@@Z 0000000180038bb0     operations.obj
 0002:0000cbd8       $stateUnwindMap$?Normalise@sharp@@YA?AVVImage@vips@@V23@@Z 0000000180038bd8     operations.obj
 0002:0000cc40       $ip2state$?Normalise@sharp@@YA?AVVImage@vips@@V23@@Z 0000000180038c40     operations.obj
 0002:0000ccd8       $unwind$?Gamma@sharp@@YA?AVVImage@vips@@V23@N@Z 0000000180038cd8     operations.obj
 0002:0000ccf4       $stateUnwindMap$?Gamma@sharp@@YA?AVVImage@vips@@V23@N@Z 0000000180038cf4     operations.obj
 0002:0000cd30       $ip2state$?Gamma@sharp@@YA?AVVImage@vips@@V23@N@Z 0000000180038d30     operations.obj
 0002:0000cd90       $unwind$?Blur@sharp@@YA?AVVImage@vips@@V23@N@Z 0000000180038d90     operations.obj
 0002:0000cda4       $stateUnwindMap$?Blur@sharp@@YA?AVVImage@vips@@V23@N@Z 0000000180038da4     operations.obj
 0002:0000cdb8       $ip2state$?Blur@sharp@@YA?AVVImage@vips@@V23@N@Z 0000000180038db8     operations.obj
 0002:0000cde0       $unwind$?Convolve@sharp@@YA?AVVImage@vips@@V23@HHNNAEBV?$unique_ptr@$$BY0A@NU?$default_delete@$$BY0A@N@std@@@std@@@Z 0000000180038de0     operations.obj
 0002:0000cdf4       $stateUnwindMap$?Convolve@sharp@@YA?AVVImage@vips@@V23@HHNNAEBV?$unique_ptr@$$BY0A@NU?$default_delete@$$BY0A@N@std@@@std@@@Z 0000000180038df4     operations.obj
 0002:0000ce08       $ip2state$?Convolve@sharp@@YA?AVVImage@vips@@V23@HHNNAEBV?$unique_ptr@$$BY0A@NU?$default_delete@$$BY0A@N@std@@@std@@@Z 0000000180038e08     operations.obj
 0002:0000ce30       $unwind$?Sharpen@sharp@@YA?AVVImage@vips@@V23@NNN@Z 0000000180038e30     operations.obj
 0002:0000ce54       $stateUnwindMap$?Sharpen@sharp@@YA?AVVImage@vips@@V23@NNN@Z 0000000180038e54     operations.obj
 0002:0000ce70       $ip2state$?Sharpen@sharp@@YA?AVVImage@vips@@V23@NNN@Z 0000000180038e70     operations.obj
 0002:0000cea8       $unwind$??RAttentionStrategy@sharp@@QEAANVVImage@vips@@@Z 0000000180038ea8     operations.obj
 0002:0000ced0       $stateUnwindMap$??RAttentionStrategy@sharp@@QEAANVVImage@vips@@@Z 0000000180038ed0     operations.obj
 0002:0000cfa0       $ip2state$??RAttentionStrategy@sharp@@QEAANVVImage@vips@@@Z 0000000180038fa0     operations.obj
 0002:0000d110       $unwind$?Crop@sharp@@YA?AV?$tuple@HH@std@@VVImage@vips@@HHV?$function@$$A6ANVVImage@vips@@@Z@3@@Z 0000000180039110     operations.obj
 0002:0000d13c       $stateUnwindMap$?Crop@sharp@@YA?AV?$tuple@HH@std@@VVImage@vips@@HHV?$function@$$A6ANVVImage@vips@@@Z@3@@Z 000000018003913c     operations.obj
 0002:0000d170       $ip2state$?Crop@sharp@@YA?AV?$tuple@HH@std@@VVImage@vips@@HHV?$function@$$A6ANVVImage@vips@@@Z@3@@Z 0000000180039170     operations.obj
 0002:0000d200       $unwind$?TileCache@sharp@@YA?AVVImage@vips@@V23@N@Z 0000000180039200     operations.obj
 0002:0000d21c       $stateUnwindMap$?TileCache@sharp@@YA?AVVImage@vips@@V23@N@Z 000000018003921c     operations.obj
 0002:0000d228       $ip2state$?TileCache@sharp@@YA?AVVImage@vips@@V23@N@Z 0000000180039228     operations.obj
 0002:0000d240       $unwind$?Threshold@sharp@@YA?AVVImage@vips@@V23@N_N@Z 0000000180039240     operations.obj
 0002:0000d258       $stateUnwindMap$?Threshold@sharp@@YA?AVVImage@vips@@V23@N_N@Z 0000000180039258     operations.obj
 0002:0000d260       $ip2state$?Threshold@sharp@@YA?AVVImage@vips@@V23@N_N@Z 0000000180039260     operations.obj
 0002:0000d278       $unwind$?Bandbool@sharp@@YA?AVVImage@vips@@V23@W4VipsOperationBoolean@@@Z 0000000180039278     operations.obj
 0002:0000d28c       $stateUnwindMap$?Bandbool@sharp@@YA?AVVImage@vips@@V23@W4VipsOperationBoolean@@@Z 000000018003928c     operations.obj
 0002:0000d2a0       $ip2state$?Bandbool@sharp@@YA?AVVImage@vips@@V23@W4VipsOperationBoolean@@@Z 00000001800392a0     operations.obj
 0002:0000d2c8       $unwind$?Boolean@sharp@@YA?AVVImage@vips@@V23@0W4VipsOperationBoolean@@@Z 00000001800392c8     operations.obj
 0002:0000d2e0       $stateUnwindMap$?Boolean@sharp@@YA?AVVImage@vips@@V23@0W4VipsOperationBoolean@@@Z 00000001800392e0     operations.obj
 0002:0000d2f0       $ip2state$?Boolean@sharp@@YA?AVVImage@vips@@V23@0W4VipsOperationBoolean@@@Z 00000001800392f0     operations.obj
 0002:0000d310       $unwind$?Trim@sharp@@YA?AVVImage@vips@@V23@H@Z 0000000180039310     operations.obj
 0002:0000d33c       $stateUnwindMap$?Trim@sharp@@YA?AVVImage@vips@@V23@H@Z 000000018003933c     operations.obj
 0002:0000d3e0       $ip2state$?Trim@sharp@@YA?AVVImage@vips@@V23@H@Z 00000001800393e0     operations.obj
 0002:0000d4f0       $unwind$??$_Construct@PEBN@?$vector@NV?$allocator@N@std@@@std@@QEAAXPEBN0Uforward_iterator_tag@1@@Z 00000001800394f0     operations.obj
 0002:0000d504       $chain$0$??$_Construct@PEBN@?$vector@NV?$allocator@N@std@@@std@@QEAAXPEBN0Uforward_iterator_tag@1@@Z 0000000180039504     operations.obj
 0002:0000d518       $chain$1$??$_Construct@PEBN@?$vector@NV?$allocator@N@std@@@std@@QEAAXPEBN0Uforward_iterator_tag@1@@Z 0000000180039518     operations.obj
 0002:0000d528       $unwind$?Get@Nan@@YA?AV?$MaybeLocal@VValue@v8@@@v8@@V?$Local@VObject@v8@@@3@I@Z 0000000180039528     pipeline.obj
 0002:0000d540       $ip2state$?Get@Nan@@YA?AV?$MaybeLocal@VValue@v8@@@v8@@V?$Local@VObject@v8@@@3@I@Z 0000000180039540     pipeline.obj
 0002:0000d558       $unwind$?convert@?$ToFactory@_N@imp@Nan@@SA?AV?$Maybe@_N@v8@@V?$Local@VValue@v8@@@5@@Z 0000000180039558     pipeline.obj
 0002:0000d570       $ip2state$?convert@?$ToFactory@_N@imp@Nan@@SA?AV?$Maybe@_N@v8@@V?$Local@VValue@v8@@@5@@Z 0000000180039570     pipeline.obj
 0002:0000d588       $unwind$?convert@?$ToFactory@N@imp@Nan@@SA?AV?$Maybe@N@v8@@V?$Local@VValue@v8@@@5@@Z 0000000180039588     pipeline.obj
 0002:0000d5a0       $ip2state$?convert@?$ToFactory@N@imp@Nan@@SA?AV?$Maybe@N@v8@@V?$Local@VValue@v8@@@5@@Z 00000001800395a0     pipeline.obj
 0002:0000d5b8       $unwind$?convert@?$ToFactory@H@imp@Nan@@SA?AV?$Maybe@H@v8@@V?$Local@VValue@v8@@@5@@Z 00000001800395b8     pipeline.obj
 0002:0000d5d0       $ip2state$?convert@?$ToFactory@H@imp@Nan@@SA?AV?$Maybe@H@v8@@V?$Local@VValue@v8@@@5@@Z 00000001800395d0     pipeline.obj
 0002:0000d5e8       $unwind$??0PipelineBaton@@QEAA@XZ 00000001800395e8     pipeline.obj
 0002:0000d5fc       $stateUnwindMap$??0PipelineBaton@@QEAA@XZ 00000001800395fc     pipeline.obj
 0002:0000d630       $ip2state$??0PipelineBaton@@QEAA@XZ 0000000180039630     pipeline.obj
 0002:0000d670       $unwind$??0PipelineWorker@@QEAA@PEAVCallback@Nan@@PEAUPipelineBaton@@0V?$vector@V?$Local@VObject@v8@@@v8@@V?$allocator@V?$Local@VObject@v8@@@v8@@@std@@@std@@@Z 0000000180039670     pipeline.obj
 0002:0000d688       $stateUnwindMap$??0PipelineWorker@@QEAA@PEAVCallback@Nan@@PEAUPipelineBaton@@0V?$vector@V?$Local@VObject@v8@@@v8@@V?$allocator@V?$Local@VObject@v8@@@v8@@@std@@@std@@@Z 0000000180039688     pipeline.obj
 0002:0000d6a0       $ip2state$??0PipelineWorker@@QEAA@PEAVCallback@Nan@@PEAUPipelineBaton@@0V?$vector@V?$Local@VObject@v8@@@v8@@V?$allocator@V?$Local@VObject@v8@@@v8@@@std@@@std@@@Z 00000001800396a0     pipeline.obj
 0002:0000d6c8       $unwind$?Execute@PipelineWorker@@UEAAXXZ 00000001800396c8     pipeline.obj
 0002:0000d714       $stateUnwindMap$?Execute@PipelineWorker@@UEAAXXZ 0000000180039714     pipeline.obj
 0002:0000db64       $tryMap$?Execute@PipelineWorker@@UEAAXXZ 0000000180039b64     pipeline.obj
 0002:0000db8c       $handlerMap$0$?Execute@PipelineWorker@@UEAAXXZ 0000000180039b8c     pipeline.obj
 0002:0000dba0       $handlerMap$1$?Execute@PipelineWorker@@UEAAXXZ 0000000180039ba0     pipeline.obj
 0002:0000dbc0       $ip2state$?Execute@PipelineWorker@@UEAAXXZ 0000000180039bc0     pipeline.obj
 0002:0000e3e8       $unwind$?catch$195@?0??Execute@PipelineWorker@@UEAAXXZ@4HA 000000018003a3e8     pipeline.obj
 0002:0000e3e8       $unwind$?catch$196@?0??Execute@PipelineWorker@@UEAAXXZ@4HA 000000018003a3e8     pipeline.obj
 0002:0000e3f8       $unwind$?HandleOKCallback@PipelineWorker@@UEAAXXZ 000000018003a3f8     pipeline.obj
 0002:0000e420       $ip2state$?HandleOKCallback@PipelineWorker@@UEAAXXZ 000000018003a420     pipeline.obj
 0002:0000e438       $unwind$?CalculateRotationAndFlip@PipelineWorker@@AEAA?AV?$tuple@W4VipsAngle@@_N_N@std@@HVVImage@vips@@@Z 000000018003a438     pipeline.obj
 0002:0000e454       $stateUnwindMap$?CalculateRotationAndFlip@PipelineWorker@@AEAA?AV?$tuple@W4VipsAngle@@_N_N@std@@HVVImage@vips@@@Z 000000018003a454     pipeline.obj
 0002:0000e468       $ip2state$?CalculateRotationAndFlip@PipelineWorker@@AEAA?AV?$tuple@W4VipsAngle@@_N_N@std@@HVVImage@vips@@@Z 000000018003a468     pipeline.obj
 0002:0000e498       $unwind$?AssembleSuffixString@PipelineWorker@@AEAA?AV?$basic_string@DU?$char_traits@D@std@@V?$allocator@D@2@@std@@V23@V?$vector@U?$pair@V?$basic_string@DU?$char_traits@D@std@@V?$allocator@D@2@@std@@V12@@std@@V?$allocator@U?$pair@V?$basic_string@DU?$char_traits@D@std@@V?$allocator@D@2@@std@@V12@@std@@@2@@3@@Z 000000018003a498     pipeline.obj
 0002:0000e4bc       $stateUnwindMap$?AssembleSuffixString@PipelineWorker@@AEAA?AV?$basic_string@DU?$char_traits@D@std@@V?$allocator@D@2@@std@@V23@V?$vector@U?$pair@V?$basic_string@DU?$char_traits@D@std@@V?$allocator@D@2@@std@@V12@@std@@V?$allocator@U?$pair@V?$basic_string@DU?$char_traits@D@std@@V?$allocator@D@2@@std@@V12@@std@@@2@@3@@Z 000000018003a4bc     pipeline.obj
 0002:0000e500       $ip2state$?AssembleSuffixString@PipelineWorker@@AEAA?AV?$basic_string@DU?$char_traits@D@std@@V?$allocator@D@2@@std@@V23@V?$vector@U?$pair@V?$basic_string@DU?$char_traits@D@std@@V?$allocator@D@2@@std@@V12@@std@@V?$allocator@U?$pair@V?$basic_string@DU?$char_traits@D@std@@V?$allocator@D@2@@std@@V12@@std@@@2@@3@@Z 000000018003a500     pipeline.obj
 0002:0000e580       $unwind$?pipeline@@YAXAEBV?$FunctionCallbackInfo@VValue@v8@@@Nan@@@Z 000000018003a580     pipeline.obj
 0002:0000e5ac       $stateUnwindMap$?pipeline@@YAXAEBV?$FunctionCallbackInfo@VValue@v8@@@Nan@@@Z 000000018003a5ac     pipeline.obj
 0002:0000e650       $ip2state$?pipeline@@YAXAEBV?$FunctionCallbackInfo@VValue@v8@@@Nan@@@Z 000000018003a650     pipeline.obj
 0002:0000e788       $unwind$??0?$vector@U?$pair@V?$basic_string@DU?$char_traits@D@std@@V?$allocator@D@2@@std@@V12@@std@@V?$allocator@U?$pair@V?$basic_string@DU?$char_traits@D@std@@V?$allocator@D@2@@std@@V12@@std@@@2@@std@@QEAA@V?$initializer_list@U?$pair@V?$basic_string@DU?$char_traits@D@std@@V?$allocator@D@2@@std@@V12@@std@@@1@AEBV?$allocator@U?$pair@V?$basic_string@DU?$char_traits@D@std@@V?$allocator@D@2@@std@@V12@@std@@@1@@Z 000000018003a788     pipeline.obj
 0002:0000e798       $unwind$??0?$vector@U?$pair@V?$basic_string@DU?$char_traits@D@std@@V?$allocator@D@2@@std@@V12@@std@@V?$allocator@U?$pair@V?$basic_string@DU?$char_traits@D@std@@V?$allocator@D@2@@std@@V12@@std@@@2@@std@@QEAA@AEBV01@@Z 000000018003a798     pipeline.obj
 0002:0000e7a4       $chain$0$??4?$vector@NV?$allocator@N@std@@@std@@QEAAAEAV01@$$QEAV01@@Z 000000018003a7a4     pipeline.obj
 0002:0000e7b8       $chain$1$??4?$vector@NV?$allocator@N@std@@@std@@QEAAAEAV01@$$QEAV01@@Z 000000018003a7b8     pipeline.obj
 0002:0000e7c8       $unwind$?erase@?$_Tree@V?$_Tmap_traits@W4VipsInterpretation@@V?$basic_string@DU?$char_traits@D@std@@V?$allocator@D@2@@std@@U?$less@W4VipsInterpretation@@@3@V?$allocator@U?$pair@$$CBW4VipsInterpretation@@V?$basic_string@DU?$char_traits@D@std@@V?$allocator@D@2@@std@@@std@@@3@$0A@@std@@@std@@QEAA?AV?$_Tree_iterator@V?$_Tree_val@U?$_Tree_simple_types@U?$pair@$$CBW4VipsInterpretation@@V?$basic_string@DU?$char_traits@D@std@@V?$allocator@D@2@@std@@@std@@@std@@@std@@@2@V?$_Tree_const_iterator@V?$_Tree_val@U?$_Tree_simple_types@U?$pair@$$CBW4VipsInterpretation@@V?$basic_string@DU?$char_traits@D@std@@V?$allocator@D@2@@std@@@std@@@std@@@std@@@2@0@Z 000000018003a7c8     pipeline.obj
 0002:0000e7d4       $unwind$??R<lambda_b721fa326cdb32351d23dfa67958c160>@@QEBAHXZ 000000018003a7d4     libucrt:setvbuf.obj
 0002:0000e7d4       $unwind$?type_case_c_tchar@?$output_processor@_WV?$string_output_adapter@_W@__crt_stdio_output@@V?$standard_base@_WV?$string_output_adapter@_W@__crt_stdio_output@@@2@@__crt_stdio_output@@AEAA_N_W@Z 000000018003a7d4     libucrt:output.obj
 0002:0000e7d4       $unwind$?_Reallocate@?$vector@PEAUInputDescriptor@sharp@@V?$allocator@PEAUInputDescriptor@sharp@@@std@@@std@@IEAAX_K@Z 000000018003a7d4     pipeline.obj
 0002:0000e7d4       $unwind$?_Reallocate@?$vector@NV?$allocator@N@std@@@std@@IEAAX_K@Z 000000018003a7d4     pipeline.obj
 0002:0000e7d4       $unwind$?type_case_c_tchar@?$output_processor@_WV?$stream_output_adapter@_W@__crt_stdio_output@@V?$standard_base@_WV?$stream_output_adapter@_W@__crt_stdio_output@@@2@@__crt_stdio_output@@AEAA_N_W@Z 000000018003a7d4     libucrt:output.obj
 0002:0000e7e4       $chain$0$?_Reallocate@?$vector@NV?$allocator@N@std@@@std@@IEAAX_K@Z 000000018003a7e4     pipeline.obj
 0002:0000e7e4       $chain$0$?_Reallocate@?$vector@PEAUInputDescriptor@sharp@@V?$allocator@PEAUInputDescriptor@sharp@@@std@@@std@@IEAAX_K@Z 000000018003a7e4     pipeline.obj
 0002:0000e7f8       $chain$1$?_Reallocate@?$vector@PEAUInputDescriptor@sharp@@V?$allocator@PEAUInputDescriptor@sharp@@@std@@@std@@IEAAX_K@Z 000000018003a7f8     pipeline.obj
 0002:0000e7f8       $chain$1$?_Reallocate@?$vector@NV?$allocator@N@std@@@std@@IEAAX_K@Z 000000018003a7f8     pipeline.obj
 0002:0000e808       $unwind$?erase@?$_Tree@V?$_Tmap_traits@W4VipsInterpretation@@V?$basic_string@DU?$char_traits@D@std@@V?$allocator@D@2@@std@@U?$less@W4VipsInterpretation@@@3@V?$allocator@U?$pair@$$CBW4VipsInterpretation@@V?$basic_string@DU?$char_traits@D@std@@V?$allocator@D@2@@std@@@std@@@3@$0A@@std@@@std@@QEAA?AV?$_Tree_iterator@V?$_Tree_val@U?$_Tree_simple_types@U?$pair@$$CBW4VipsInterpretation@@V?$basic_string@DU?$char_traits@D@std@@V?$allocator@D@2@@std@@@std@@@std@@@std@@@2@V?$_Tree_const_iterator@V?$_Tree_val@U?$_Tree_simple_types@U?$pair@$$CBW4VipsInterpretation@@V?$basic_string@DU?$char_traits@D@std@@V?$allocator@D@2@@std@@@std@@@std@@@std@@@2@@Z 000000018003a808     pipeline.obj
 0002:0000e81c       $unwind$?_Erase@?$_Tree@V?$_Tmap_traits@W4VipsInterpretation@@V?$basic_string@DU?$char_traits@D@std@@V?$allocator@D@2@@std@@U?$less@W4VipsInterpretation@@@3@V?$allocator@U?$pair@$$CBW4VipsInterpretation@@V?$basic_string@DU?$char_traits@D@std@@V?$allocator@D@2@@std@@@std@@@3@$0A@@std@@@std@@IEAAXPEAU?$_Tree_node@U?$pair@$$CBW4VipsInterpretation@@V?$basic_string@DU?$char_traits@D@std@@V?$allocator@D@2@@std@@@std@@PEAX@2@@Z 000000018003a81c     pipeline.obj
 0002:0000e82c       $chain$0$?_Erase@?$_Tree@V?$_Tmap_traits@W4VipsInterpretation@@V?$basic_string@DU?$char_traits@D@std@@V?$allocator@D@2@@std@@U?$less@W4VipsInterpretation@@@3@V?$allocator@U?$pair@$$CBW4VipsInterpretation@@V?$basic_string@DU?$char_traits@D@std@@V?$allocator@D@2@@std@@@std@@@3@$0A@@std@@@std@@IEAAXPEAU?$_Tree_node@U?$pair@$$CBW4VipsInterpretation@@V?$basic_string@DU?$char_traits@D@std@@V?$allocator@D@2@@std@@@std@@PEAX@2@@Z 000000018003a82c     pipeline.obj
 0002:0000e840       $chain$1$?_Erase@?$_Tree@V?$_Tmap_traits@W4VipsInterpretation@@V?$basic_string@DU?$char_traits@D@std@@V?$allocator@D@2@@std@@U?$less@W4VipsInterpretation@@@3@V?$allocator@U?$pair@$$CBW4VipsInterpretation@@V?$basic_string@DU?$char_traits@D@std@@V?$allocator@D@2@@std@@@std@@@3@$0A@@std@@@std@@IEAAXPEAU?$_Tree_node@U?$pair@$$CBW4VipsInterpretation@@V?$basic_string@DU?$char_traits@D@std@@V?$allocator@D@2@@std@@@std@@PEAX@2@@Z 000000018003a840     pipeline.obj
 0002:0000e850       $chain$2$?_Erase@?$_Tree@V?$_Tmap_traits@W4VipsInterpretation@@V?$basic_string@DU?$char_traits@D@std@@V?$allocator@D@2@@std@@U?$less@W4VipsInterpretation@@@3@V?$allocator@U?$pair@$$CBW4VipsInterpretation@@V?$basic_string@DU?$char_traits@D@std@@V?$allocator@D@2@@std@@@std@@@3@$0A@@std@@@std@@IEAAXPEAU?$_Tree_node@U?$pair@$$CBW4VipsInterpretation@@V?$basic_string@DU?$char_traits@D@std@@V?$allocator@D@2@@std@@@std@@PEAX@2@@Z 000000018003a850     pipeline.obj
 0002:0000e864       $unwind$??$?HDU?$char_traits@D@std@@V?$allocator@D@1@@std@@YA?AV?$basic_string@DU?$char_traits@D@std@@V?$allocator@D@2@@0@AEBV10@PEBD@Z 000000018003a864     pipeline.obj
 0002:0000e880       $ip2state$??$?HDU?$char_traits@D@std@@V?$allocator@D@1@@std@@YA?AV?$basic_string@DU?$char_traits@D@std@@V?$allocator@D@2@@0@AEBV10@PEBD@Z 000000018003a880     pipeline.obj
 0002:0000e890       $unwind$??$?0AEAY09$$CBDPEBDX$0A@@?$pair@V?$basic_string@DU?$char_traits@D@std@@V?$allocator@D@2@@std@@V12@@std@@QEAA@AEAY09$$CBD$$QEAPEBD@Z 000000018003a890     pipeline.obj
 0002:0000e8a8       $ip2state$??$?0AEAY09$$CBDPEBDX$0A@@?$pair@V?$basic_string@DU?$char_traits@D@std@@V?$allocator@D@2@@std@@V12@@std@@QEAA@AEAY09$$CBD$$QEAPEBD@Z 000000018003a8a8     pipeline.obj
 0002:0000e8c0       $unwind$??$?0AEAY06$$CBDPEBDX$0A@@?$pair@V?$basic_string@DU?$char_traits@D@std@@V?$allocator@D@2@@std@@V12@@std@@QEAA@AEAY06$$CBD$$QEAPEBD@Z 000000018003a8c0     pipeline.obj
 0002:0000e8d8       $ip2state$??$?0AEAY06$$CBDPEBDX$0A@@?$pair@V?$basic_string@DU?$char_traits@D@std@@V?$allocator@D@2@@std@@V12@@std@@QEAA@AEAY06$$CBD$$QEAPEBD@Z 000000018003a8d8     pipeline.obj
 0002:0000e8f0       $unwind$??$?0AEAY08$$CBDPEBDX$0A@@?$pair@V?$basic_string@DU?$char_traits@D@std@@V?$allocator@D@2@@std@@V12@@std@@QEAA@AEAY08$$CBD$$QEAPEBD@Z 000000018003a8f0     pipeline.obj
 0002:0000e908       $ip2state$??$?0AEAY08$$CBDPEBDX$0A@@?$pair@V?$basic_string@DU?$char_traits@D@std@@V?$allocator@D@2@@std@@V12@@std@@QEAA@AEAY08$$CBD$$QEAPEBD@Z 000000018003a908     pipeline.obj
 0002:0000e920       $unwind$??$?0AEAY0O@$$CBDPEBDX$0A@@?$pair@V?$basic_string@DU?$char_traits@D@std@@V?$allocator@D@2@@std@@V12@@std@@QEAA@AEAY0O@$$CBD$$QEAPEBD@Z 000000018003a920     pipeline.obj
 0002:0000e938       $ip2state$??$?0AEAY0O@$$CBDPEBDX$0A@@?$pair@V?$basic_string@DU?$char_traits@D@std@@V?$allocator@D@2@@std@@V12@@std@@QEAA@AEAY0O@$$CBD$$QEAPEBD@Z 000000018003a938     pipeline.obj
 0002:0000e950       $unwind$??$?0AEAY0N@$$CBDPEBDX$0A@@?$pair@V?$basic_string@DU?$char_traits@D@std@@V?$allocator@D@2@@std@@V12@@std@@QEAA@AEAY0N@$$CBD$$QEAPEBD@Z 000000018003a950     pipeline.obj
 0002:0000e968       $ip2state$??$?0AEAY0N@$$CBDPEBDX$0A@@?$pair@V?$basic_string@DU?$char_traits@D@std@@V?$allocator@D@2@@std@@V12@@std@@QEAA@AEAY0N@$$CBD$$QEAPEBD@Z 000000018003a968     pipeline.obj
 0002:0000e980       $unwind$??$?0AEAY0BE@$$CBDPEBDX$0A@@?$pair@V?$basic_string@DU?$char_traits@D@std@@V?$allocator@D@2@@std@@V12@@std@@QEAA@AEAY0BE@$$CBD$$QEAPEBD@Z 000000018003a980     pipeline.obj
 0002:0000e998       $ip2state$??$?0AEAY0BE@$$CBDPEBDX$0A@@?$pair@V?$basic_string@DU?$char_traits@D@std@@V?$allocator@D@2@@std@@V12@@std@@QEAA@AEAY0BE@$$CBD$$QEAPEBD@Z 000000018003a998     pipeline.obj
 0002:0000e9b0       $unwind$??$?0AEAY0P@$$CBDPEBDX$0A@@?$pair@V?$basic_string@DU?$char_traits@D@std@@V?$allocator@D@2@@std@@V12@@std@@QEAA@AEAY0P@$$CBD$$QEAPEBD@Z 000000018003a9b0     pipeline.obj
 0002:0000e9c8       $ip2state$??$?0AEAY0P@$$CBDPEBDX$0A@@?$pair@V?$basic_string@DU?$char_traits@D@std@@V?$allocator@D@2@@std@@V12@@std@@QEAA@AEAY0P@$$CBD$$QEAPEBD@Z 000000018003a9c8     pipeline.obj
 0002:0000e9e0       $unwind$??$?0AEAY0BA@$$CBDAEAY04$$CBDX$0A@@?$pair@V?$basic_string@DU?$char_traits@D@std@@V?$allocator@D@2@@std@@V12@@std@@QEAA@AEAY0BA@$$CBDAEAY04$$CBD@Z 000000018003a9e0     pipeline.obj
 0002:0000e9f0       $ip2state$??$?0AEAY0BA@$$CBDAEAY04$$CBDX$0A@@?$pair@V?$basic_string@DU?$char_traits@D@std@@V?$allocator@D@2@@std@@V12@@std@@QEAA@AEAY0BA@$$CBDAEAY04$$CBD@Z 000000018003a9f0     pipeline.obj
 0002:0000ea08       $unwind$??$?HDU?$char_traits@D@std@@V?$allocator@D@1@@std@@YA?AV?$basic_string@DU?$char_traits@D@std@@V?$allocator@D@2@@0@PEBDAEBV10@@Z 000000018003aa08     pipeline.obj
 0002:0000ea20       $ip2state$??$?HDU?$char_traits@D@std@@V?$allocator@D@1@@std@@YA?AV?$basic_string@DU?$char_traits@D@std@@V?$allocator@D@2@@0@PEBDAEBV10@@Z 000000018003aa20     pipeline.obj
 0002:0000ea30       $unwind$??$AttrTo@_N@sharp@@YA_NV?$Local@VObject@v8@@@v8@@V?$basic_string@DU?$char_traits@D@std@@V?$allocator@D@2@@std@@@Z 000000018003aa30     pipeline.obj
 0002:0000ea48       $ip2state$??$AttrTo@_N@sharp@@YA_NV?$Local@VObject@v8@@@v8@@V?$basic_string@DU?$char_traits@D@std@@V?$allocator@D@2@@std@@@Z 000000018003aa48     pipeline.obj
 0002:0000ea60       $unwind$??$AttrTo@H@sharp@@YAHV?$Local@VObject@v8@@@v8@@V?$basic_string@DU?$char_traits@D@std@@V?$allocator@D@2@@std@@@Z 000000018003aa60     pipeline.obj
 0002:0000ea78       $ip2state$??$AttrTo@H@sharp@@YAHV?$Local@VObject@v8@@@v8@@V?$basic_string@DU?$char_traits@D@std@@V?$allocator@D@2@@std@@@Z 000000018003aa78     pipeline.obj
 0002:0000ea90       $unwind$??$AttrTo@N@sharp@@YANV?$Local@VObject@v8@@@v8@@V?$basic_string@DU?$char_traits@D@std@@V?$allocator@D@2@@std@@@Z 000000018003aa90     pipeline.obj
 0002:0000eaac       $stateUnwindMap$??$AttrTo@N@sharp@@YANV?$Local@VObject@v8@@@v8@@V?$basic_string@DU?$char_traits@D@std@@V?$allocator@D@2@@std@@@Z 000000018003aaac     pipeline.obj
 0002:0000eab8       $ip2state$??$AttrTo@N@sharp@@YANV?$Local@VObject@v8@@@v8@@V?$basic_string@DU?$char_traits@D@std@@V?$allocator@D@2@@std@@@Z 000000018003aab8     pipeline.obj
 0002:0000ead0       $unwind$??$_For_each_unchecked@PEAPEAUInputDescriptor@sharp@@V<lambda_c3ae18baaead4f54367c36d71046f7c6>@@@std@@YAXPEAPEAUInputDescriptor@sharp@@0AEAV<lambda_c3ae18baaead4f54367c36d71046f7c6>@@@Z 000000018003aad0     pipeline.obj
 0002:0000eadc       $chain$2$??$_For_each_unchecked@PEAPEAUInputDescriptor@sharp@@V<lambda_c3ae18baaead4f54367c36d71046f7c6>@@@std@@YAXPEAPEAUInputDescriptor@sharp@@0AEAV<lambda_c3ae18baaead4f54367c36d71046f7c6>@@@Z 000000018003aadc     pipeline.obj
 0002:0000eaf8       $chain$3$??$_For_each_unchecked@PEAPEAUInputDescriptor@sharp@@V<lambda_c3ae18baaead4f54367c36d71046f7c6>@@@std@@YAXPEAPEAUInputDescriptor@sharp@@0AEAV<lambda_c3ae18baaead4f54367c36d71046f7c6>@@@Z 000000018003aaf8     pipeline.obj
 0002:0000eb08       $chain$4$??$_For_each_unchecked@PEAPEAUInputDescriptor@sharp@@V<lambda_c3ae18baaead4f54367c36d71046f7c6>@@@std@@YAXPEAPEAUInputDescriptor@sharp@@0AEAV<lambda_c3ae18baaead4f54367c36d71046f7c6>@@@Z 000000018003ab08     pipeline.obj
